"File: ADC.c         Assembler  Version HGASM0202      Page 1


   1  0000              ; Generated by holtek-gcc v3.19, Sat Jul 27 17:19:46 2024
   2  0000              ; 
   3  0000              ; Configuration:
   4  0000              ;       with long instruction
   5  0000              ;       Single ROM, Multi-RAM
   6  0000              ;       bits_per_rom_unit:16
   7  0000              ;       with mp1
   8  0000              ;       with tbhp, address(0x9)
   9  0000              ;          Use tabrd-const
  10  0000              ;       
  11  0000              ; SFR address of long-instruction arch:
  12  0000              ;    mp0 = -1,1,0
  13  0000              ;    mp1 = 4,3,2
  14  0000              ;    mp2 = 14,13,12
  15  0000              ;    tbp = 9,7,8
  16  0000              ;    acc = 5
  17  0000              ;    pcl = 6
  18  0000              ;    status = 10
  19  0000              ;    bp = 11
  20  0000              ;    intc = 72
  21  0000              ;       
  22  0000              ;       
  23  0000              ; use 'tabrdc' instead of 'tabrd'
  24  0000              ;       
  25  0000              
  26  0000              #pragma translator "holtek-gcc 4.6.4" "3.19" "build 20130711"
  27  0000              ; Rebuild 718
  28  0000              
  29  0000              ir equ [2]
  30  0000              mp equ [3]
  31  0000              sbp equ [4]
  32  0000              acc equ [5]
  33  0000              bp equ [11]
  34  0000              tblp equ [7]
  35  0000              tbhp equ [9]
  36  0000              status equ [10]
  37  0000              c equ [10].0
  38  0000              ac equ [10].1
  39  0000              z equ [10].2
  40  0000              ov equ [10].3
  41  0000              cz equ [10].6
  42  0000              sc equ [10].7
  43  0000              intc equ [72]
  44  0000              
  45  0000              extern ra:byte
  46  0000              extern rb:byte
  47  0000              extern rc:byte
  48  0000              extern rd:byte
  49  0000              extern re:byte
  50  0000              extern rf:byte
  51  0000              extern rg:byte
  52  0000              extern rh:byte
  53  0000              extern _Crom2Prom:near
  54  0000              extern _Crom2PromNext:near
  55  0000              
  56  0000              RAMBANK 0 @BITDATASEC, @BITDATASEC1
  57  0000              @HCCINIT	.section 'data'
  58  0000              @HCCINIT0	.section 'data'
  59  0000              @BITDATASEC	 .section 'data'
"File: ADC.ASM       Assembler  Version HGASM0202      Page 2

  60  0000              @BITDATASEC1	 .section 'data'
  61  0000              
  62  0000              #pragma debug scope 1 1
  63  0000              	extern __DELAY3:near
  64  0000              	extern __DELAYX3:near
  65  0000              	extern __DELAYX6:near
  66  0000              	extern __DELAYY5:near
  67  0000              	extern __DELAYY3:near
  68  0000              	extern _builtin_holtek_delay_2:byte
  69  0000              ___sadc0 equ [47]
  70  0000              ___sadc1 equ [48]
  71  0000              ___intc1 equ [73]
  72  0000              public _S_ADC_Init
  73  0000              #pragma debug scope 2 1

  10  0000              #line 10 "c:\users\tech\desktop\powerlinetransceiver\ADC\ADC.c"
  10  0000              _S_ADC_Init .section 'code'
  10  0000              _S_ADC_Init proc
  11  0000              #line 11 "c:\users\tech\desktop\powerlinetransceiver\ADC\ADC.c"
  11  0000  0F07        	mov a,7
  11  0001  00AF        	mov [47],a
  12  0002              #line 12 "c:\users\tech\desktop\powerlinetransceiver\ADC\ADC.c"
  12  0002  0F6B        	mov a,107
  12  0003  00B0        	mov [48],a
  13  0004              #line 13 "c:\users\tech\desktop\powerlinetransceiver\ADC\ADC.c"
  13  0004  3549        	clr [73].2
  13  0005  0003        	ret
  13  0006              _S_ADC_Init endp
  13  0006              #line 13 "c:\users\tech\desktop\powerlinetransceiver\ADC\ADC.c"
  13  0006              #pragma debug scope 1 1
  13  0006              ___sadoh equ [46]
  13  0006              ___sadol equ [45]
  13  0006              public _S_READ_ADC
  13  0006              #pragma debug scope 3 1
  23  0006              #line 23 "c:\users\tech\desktop\powerlinetransceiver\ADC\ADC.c"
  23  0000              _S_READ_ADC .section 'code'
  23  0000              _S_READ_ADC proc
  23  0000  00              local _S_READ_ADC_2 db 1 dup(?)	; 0,1
  23  0000  0080     E  	mov ra,a
  23  0001  0080     R  	mov _S_READ_ADC_2[0],a
  23  0002              #pragma debug variable 8 3 _S_READ_ADC_2+0 "CH"
  26  0002              #line 26 "c:\users\tech\desktop\powerlinetransceiver\ADC\ADC.c"
  26  0002  0700     E  	mov a,ra
  26  0003  0A00        	sub a,0
  26  0004  3D0A        	sz z
  26  0005  2800     R  	jmp _L4
  26  0006  0A01        	sub a,(1)-(0)
  26  0007  3D0A        	sz z
  26  0008  2800     R  	jmp _L5
  26  0009              #line 26 "c:\users\tech\desktop\powerlinetransceiver\ADC\ADC.c"
  26  0009  0700     E  	mov a,ra
  26  000A  0A02        	sub a,2
  26  000B  3D0A        	sz z
  26  000C  2800     R  	jmp _L6
  26  000D  0A01        	sub a,(3)-(2)
  26  000E  3D0A        	sz z
  26  000F  2800     R  	jmp _L7
  26  0010  0700     E  	mov a,ra
  26  0011  0A04        	sub a,4
  26  0012  3D0A        	sz z
"File: ADC.c         Assembler  Version HGASM0202      Page 3

  26  0013  2800     R  	jmp _L8
  26  0014  0A01        	sub a,(5)-(4)
  26  0015  3D0A        	sz z
  26  0016  2800     R  	jmp _L9
  26  0017  0700     E  	mov a,ra
  26  0018  0A06        	sub a,6
  26  0019  3D0A        	sz z
  26  001A  2800     R  	jmp _L10
  26  001B  0700     E  	mov a,ra
  26  001C  0A07        	sub a,7
  26  001D  390A        	snz z
  26  001E  2800     R  	jmp _L3
  50  001F              #line 50 "c:\users\tech\desktop\powerlinetransceiver\ADC\ADC.c"
  50  001F  0F83        	mov a,131
  50  0020  00B0        	mov [48],a
  50  0021  2800     R  	jmp _L18
  50  0022              _L4:
  29  0022              #line 29 "c:\users\tech\desktop\powerlinetransceiver\ADC\ADC.c"
  29  0022  0F03        	mov a,3
  29  0023  00B0        	mov [48],a
  29  0024  1F2F        	clr [47]
  30  0025              #line 30 "c:\users\tech\desktop\powerlinetransceiver\ADC\ADC.c"
  30  0025  2800     R  	jmp _L3
  30  0026              _L5:
  32  0026              #line 32 "c:\users\tech\desktop\powerlinetransceiver\ADC\ADC.c"
  32  0026  0F08        	mov a,8
  32  0027  00B0        	mov [48],a
  32  0028  0F01        	mov a,1
  32  0029  00AF        	mov [47],a
  33  002A              #line 33 "c:\users\tech\desktop\powerlinetransceiver\ADC\ADC.c"
  33  002A  2800     R  	jmp _L3
  33  002B              _L6:
  35  002B              #line 35 "c:\users\tech\desktop\powerlinetransceiver\ADC\ADC.c"
  35  002B  0F03        	mov a,3
  35  002C  00B0        	mov [48],a
  35  002D  0F02        	mov a,2
  35  002E  00AF        	mov [47],a
  36  002F              #line 36 "c:\users\tech\desktop\powerlinetransceiver\ADC\ADC.c"
  36  002F  2800     R  	jmp _L3
  36  0030              _L7:
  38  0030              #line 38 "c:\users\tech\desktop\powerlinetransceiver\ADC\ADC.c"
  38  0030  0F03        	mov a,3
  38  0031  00B0        	mov [48],a
  38  0032  0F03        	mov a,3
  38  0033  00AF        	mov [47],a
  39  0034              #line 39 "c:\users\tech\desktop\powerlinetransceiver\ADC\ADC.c"
  39  0034  2800     R  	jmp _L3
  39  0035              _L8:
  41  0035              #line 41 "c:\users\tech\desktop\powerlinetransceiver\ADC\ADC.c"
  41  0035  0F2B        	mov a,43
  41  0036  00B0        	mov [48],a
  41  0037  0F17        	mov a,23
  41  0038  00AF        	mov [47],a
  42  0039              #line 42 "c:\users\tech\desktop\powerlinetransceiver\ADC\ADC.c"
  42  0039  2800     R  	jmp _L3
  42  003A              _L9:
  44  003A              #line 44 "c:\users\tech\desktop\powerlinetransceiver\ADC\ADC.c"
  44  003A  0F43        	mov a,67
  44  003B  00B0        	mov [48],a
  44  003C  2800     R  	jmp _L18
"File: ADC.c         Assembler  Version HGASM0202      Page 4

  44  003D              _L10:
  47  003D              #line 47 "c:\users\tech\desktop\powerlinetransceiver\ADC\ADC.c"
  47  003D  0F6B        	mov a,107
  47  003E  00B0        	mov [48],a
  47  003F              _L18:
  50  003F              #line 50 "c:\users\tech\desktop\powerlinetransceiver\ADC\ADC.c"
  50  003F  0F07        	mov a,7
  50  0040  00AF        	mov [47],a
  50  0041              _L3:
  56  0041              #line 56 "c:\users\tech\desktop\powerlinetransceiver\ADC\ADC.c"
  56  0041  32AF        	set [47].5
  57  0042              #line 57 "c:\users\tech\desktop\powerlinetransceiver\ADC\ADC.c"
  57  0042              ;# 57 "c:\users\tech\desktop\powerlinetransceiver\ADC\ADC.c" 1
  57  0042              	IF 12>263690
  57  0042              ;# 57 "c:\users\tech\desktop\powerlinetransceiver\ADC\ADC.c" 1
  57  0042              	ERRMESSAGE 'the value 12of the argument exceeds the maxinum 263690'
  57  0042              	ENDIF
  57  0042              ;# 57 "c:\users\tech\desktop\powerlinetransceiver\ADC\ADC.c" 1
  57  0042              	IF 12<0
  57  0042              ;# 57 "c:\users\tech\desktop\powerlinetransceiver\ADC\ADC.c" 1
  57  0042              	ERRMESSAGE 'the value 12 of the argument exceeds the mininum 0'
  57  0042              	ENDIF
  57  0042              ;# 57 "c:\users\tech\desktop\powerlinetransceiver\ADC\ADC.c" 1
  57  0042              	IF 12==0
  57  0042              ;# 57 "c:\users\tech\desktop\powerlinetransceiver\ADC\ADC.c" 1
  57  0042              	JMP $
  57  0042              	ENDIF
  57  0042              ;# 57 "c:\users\tech\desktop\powerlinetransceiver\ADC\ADC.c" 1
  57  0042              	IF 12==1
  57  0042              ;# 57 "c:\users\tech\desktop\powerlinetransceiver\ADC\ADC.c" 1
  57  0042              	NOP
  57  0042              	ENDIF
  57  0042              ;# 57 "c:\users\tech\desktop\powerlinetransceiver\ADC\ADC.c" 1
  57  0042              	IF 12==2
  57  0042              ;# 57 "c:\users\tech\desktop\powerlinetransceiver\ADC\ADC.c" 1
  57  0042              	NOP
  57  0042              ;# 57 "c:\users\tech\desktop\powerlinetransceiver\ADC\ADC.c" 1
  57  0042              	NOP
  57  0042              	ENDIF
  57  0042              ;# 57 "c:\users\tech\desktop\powerlinetransceiver\ADC\ADC.c" 1
  57  0042              	IF 12==3
  57  0042              ;# 57 "c:\users\tech\desktop\powerlinetransceiver\ADC\ADC.c" 1
  57  0042              	NOP
  57  0042              ;# 57 "c:\users\tech\desktop\powerlinetransceiver\ADC\ADC.c" 1
  57  0042              	NOP
  57  0042              ;# 57 "c:\users\tech\desktop\powerlinetransceiver\ADC\ADC.c" 1
  57  0042              	NOP
  57  0042              	ENDIF
  57  0042              ;# 57 "c:\users\tech\desktop\powerlinetransceiver\ADC\ADC.c" 1
  57  0042              	IF (12<8) AND (12>3)
  57  0042              ;# 57 "c:\users\tech\desktop\powerlinetransceiver\ADC\ADC.c" 1
  57  0042              	CALL __DELAY3 + 7 -12
  57  0042              	ENDIF
  57  0042              ;# 57 "c:\users\tech\desktop\powerlinetransceiver\ADC\ADC.c" 1
  57  0042              	IF (12< 0404h) AND (12>7)
  57  0042              ;# 57 "c:\users\tech\desktop\powerlinetransceiver\ADC\ADC.c" 1
  57  0042  0F02        	MOV A,12/4-1
  57  0043              ;# 57 "c:\users\tech\desktop\powerlinetransceiver\ADC\ADC.c" 1
  57  0043  2000     E  	CALL __DELAYX3 + 3 -(12 MOD 4)
  57  0044              	ENDIF
"File: ADC.c         Assembler  Version HGASM0202      Page 5

  57  0044              ;# 57 "c:\users\tech\desktop\powerlinetransceiver\ADC\ADC.c" 1
  57  0044              	IF (12< 0x40B) AND (12> 0403h)
  57  0044              ;# 57 "c:\users\tech\desktop\powerlinetransceiver\ADC\ADC.c" 1
  57  0044              	MOV A,0 
  57  0044              ;# 57 "c:\users\tech\desktop\powerlinetransceiver\ADC\ADC.c" 1
  57  0044              	CALL __DELAYX6 + 0x40a -12
  57  0044              	ENDIF
  57  0044              ;# 57 "c:\users\tech\desktop\powerlinetransceiver\ADC\ADC.c" 1
  57  0044              	IF (12 >= 0x40b) AND ((((12-9)%0402h)/4+1)>256)
  57  0044              ;# 57 "c:\users\tech\desktop\powerlinetransceiver\ADC\ADC.c" 1
  57  0044              	MOV A,(12-9)/0402h
  57  0044              ;# 57 "c:\users\tech\desktop\powerlinetransceiver\ADC\ADC.c" 1
  57  0044              	MOV _builtin_holtek_delay_2,A
  57  0044              ;# 57 "c:\users\tech\desktop\powerlinetransceiver\ADC\ADC.c" 1
  57  0044              	MOV A,0
  57  0044              ;# 57 "c:\users\tech\desktop\powerlinetransceiver\ADC\ADC.c" 1
  57  0044              	CALL __DELAYY5 +5- (((12-9)%0402h)%6)
  57  0044              	ENDIF
  57  0044              ;# 57 "c:\users\tech\desktop\powerlinetransceiver\ADC\ADC.c" 1
  57  0044              	IF (12 >= 0x40b) AND ((((12-9)%0402h)/4+1)<=256)
  57  0044              ;# 57 "c:\users\tech\desktop\powerlinetransceiver\ADC\ADC.c" 1
  57  0044              	MOV A,(12-9)/0402h
  57  0044              ;# 57 "c:\users\tech\desktop\powerlinetransceiver\ADC\ADC.c" 1
  57  0044              	MOV _builtin_holtek_delay_2,A
  57  0044              ;# 57 "c:\users\tech\desktop\powerlinetransceiver\ADC\ADC.c" 1
  57  0044              	MOV A,((12-9)%0402h)/4+1
  57  0044              ;# 57 "c:\users\tech\desktop\powerlinetransceiver\ADC\ADC.c" 1
  57  0044              	CALL __DELAYY3 +3-(((12-9)%0402h)%4)
  57  0044              	ENDIF
  58  0044              #line 58 "c:\users\tech\desktop\powerlinetransceiver\ADC\ADC.c"
  58  0044  37AF        	clr [47].7
  59  0045              #line 59 "c:\users\tech\desktop\powerlinetransceiver\ADC\ADC.c"
  59  0045  33AF        	set [47].7
  60  0046              #line 60 "c:\users\tech\desktop\powerlinetransceiver\ADC\ADC.c"
  60  0046  37AF        	clr [47].7
  60  0047              _L13:
  61  0047              #line 61 "c:\users\tech\desktop\powerlinetransceiver\ADC\ADC.c"
  61  0047  3F2F        	sz [47].6
  61  0048  2800     R  	jmp _L13
  62  0049              #line 62 "c:\users\tech\desktop\powerlinetransceiver\ADC\ADC.c"
  62  0049  36AF        	clr [47].5
  63  004A              #line 63 "c:\users\tech\desktop\powerlinetransceiver\ADC\ADC.c"
  63  004A  072E        	mov a,[46]
  63  004B  0080     E  	mov ra,a
  63  004C  1F00     E  	clr rb
  64  004D              #line 64 "c:\users\tech\desktop\powerlinetransceiver\ADC\ADC.c"
  64  004D  3A2F        	snz [47].4
  64  004E  2800     R  	jmp _L14
  66  004F              #line 66 "c:\users\tech\desktop\powerlinetransceiver\ADC\ADC.c"
  66  004F  0700     E  	mov a,ra
  66  0050  0080     E  	mov re,a
  66  0051  1F00     E  	clr rd
  66  0052  0700     E  	mov a,rd
  66  0053  0080     E  	mov rb,a
  66  0054  0700     E  	mov a,re
  66  0055  0080     E  	mov rc,a
  66  0056  0700     E  	mov a,rc
  66  0057  0080     E  	mov re,a
  66  0058  072D        	mov a,[45]
  66  0059  0500     E  	or a,rb
"File: ADC.c         Assembler  Version HGASM0202      Page 6

  66  005A  0080     E  	mov rd,a
  66  005B  0700     E  	mov a,rd
  66  005C  0080     E  	mov ra,a
  66  005D  0700     E  	mov a,re
  66  005E  0080     E  	mov rb,a
  66  005F              _L14:
  66  005F  0003        	ret
  66  0060              _S_READ_ADC endp
  66  0060              #line 66 "c:\users\tech\desktop\powerlinetransceiver\ADC\ADC.c"
  66  0060              #pragma debug scope 1 1
  66  0060              #pragma debug variable 8 1 ___sadol "__sadol" 1
  66  0060              #pragma debug variable 8 1 ___sadoh "__sadoh" 1
  66  0060              #pragma debug struct_end
  66  0060              #pragma debug struct_end
  66  0060              #pragma debug union_end
  66  0060              #pragma debug union_end
  66  0060              #pragma debug variable 43 1 ___sadc0 "__sadc0" 1
  66  0060              #pragma debug struct_end
  66  0060              #pragma debug struct_end
  66  0060              #pragma debug union_end
  66  0060              #pragma debug union_end
  66  0060              #pragma debug variable 45 1 ___sadc1 "__sadc1" 1
  66  0060              #pragma debug struct_end
  66  0060              #pragma debug struct_end
  66  0060              #pragma debug union_end
  66  0060              #pragma debug union_end
  66  0060              #pragma debug variable 47 1 ___intc1 "__intc1" 1
  66  0060              
  66  0060              ; 
  66  0060              ; Generated by holtek-gcc v3.19, Sat Jul 27 17:19:46 2024
  66  0060              ; Rebuild 718
  66  0060              ; end of file


        0 Errors, 0