"File: Interrupt.c   Assembler  Version HGASM0202      Page 1


   1  0000              ; Generated by holtek-gcc v3.19, Mon Aug 26 16:58:31 2024
   2  0000              ; 
   3  0000              ; Configuration:
   4  0000              ;       with long instruction
   5  0000              ;       Single ROM, Multi-RAM
   6  0000              ;       bits_per_rom_unit:16
   7  0000              ;       with mp1
   8  0000              ;       with tbhp, address(0x9)
   9  0000              ;          Use tabrd-const
  10  0000              ;       
  11  0000              ; SFR address of long-instruction arch:
  12  0000              ;    mp0 = -1,1,0
  13  0000              ;    mp1 = 4,3,2
  14  0000              ;    mp2 = 14,13,12
  15  0000              ;    tbp = 9,7,8
  16  0000              ;    acc = 5
  17  0000              ;    pcl = 6
  18  0000              ;    status = 10
  19  0000              ;    bp = 11
  20  0000              ;    intc = 72
  21  0000              ;       
  22  0000              ;       
  23  0000              ; use 'tabrdc' instead of 'tabrd'
  24  0000              ;       
  25  0000              
  26  0000              #pragma translator "holtek-gcc 4.6.4" "3.19" "build 20130711"
  27  0000              ; Rebuild 718
  28  0000              
  29  0000              ir equ [2]
  30  0000              mp equ [3]
  31  0000              sbp equ [4]
  32  0000              acc equ [5]
  33  0000              bp equ [11]
  34  0000              tblp equ [7]
  35  0000              tbhp equ [9]
  36  0000              status equ [10]
  37  0000              c equ [10].0
  38  0000              ac equ [10].1
  39  0000              z equ [10].2
  40  0000              ov equ [10].3
  41  0000              cz equ [10].6
  42  0000              sc equ [10].7
  43  0000              intc equ [72]
  44  0000              
  45  0000              extern ra:byte
  46  0000              extern rb:byte
  47  0000              extern rc:byte
  48  0000              extern rd:byte
  49  0000              extern re:byte
  50  0000              extern rf:byte
  51  0000              extern rg:byte
  52  0000              extern rh:byte
  53  0000              extern _Crom2Prom:near
  54  0000              extern _Crom2PromNext:near
  55  0000              
  56  0000              RAMBANK 0 @BITDATASEC, @BITDATASEC1
  57  0000              @HCCINIT	.section 'data'
  58  0000              @HCCINIT0	.section 'data'
  59  0000              @BITDATASEC	 .section 'data'
"File: Interrupt.ASM  Assembler  Version HGASM0202      Page 2

  60  0000              @BITDATASEC1	 .section 'data'
  61  0000              
  62  0000              #pragma debug scope 1 1
  63  0000              	extern __DELAY3:near
  64  0000              	extern __DELAYX3:near
  65  0000              	extern __DELAYX6:near
  66  0000              	extern __DELAYY5:near
  67  0000              	extern __DELAYY3:near
  68  0000              	extern _builtin_holtek_delay_2:byte
  69  0000              ___intc0 equ [72]
  70  0000              ___intc1 equ [73]
  71  0000              public _IntrruptInit
  72  0000              #pragma debug scope 2 1

   4  0000              #line 4 "c:\users\tech\desktop\powerlinetransceiver\Interrupt\Interrupt.c"
   4  0000              _IntrruptInit .section 'code'
   4  0000              _IntrruptInit proc
   5  0000              #line 5 "c:\users\tech\desktop\powerlinetransceiver\Interrupt\Interrupt.c"
   5  0000  3048        	set [72].0
   7  0001              #line 7 "c:\users\tech\desktop\powerlinetransceiver\Interrupt\Interrupt.c"
   7  0001  30C8        	set [72].1
  11  0002              #line 11 "c:\users\tech\desktop\powerlinetransceiver\Interrupt\Interrupt.c"
  11  0002  3148        	set [72].2
  15  0003              #line 15 "c:\users\tech\desktop\powerlinetransceiver\Interrupt\Interrupt.c"
  15  0003  31C8        	set [72].3
  20  0004              #line 20 "c:\users\tech\desktop\powerlinetransceiver\Interrupt\Interrupt.c"
  20  0004  3049        	set [73].0
  20  0005  0003        	ret
  20  0006              _IntrruptInit endp
  20  0006              #line 20 "c:\users\tech\desktop\powerlinetransceiver\Interrupt\Interrupt.c"
  20  0006              #pragma debug scope 1 1
  20  0006              public _EnableInterrupt
  20  0006              #pragma debug scope 3 1
  73  0006              #line 73 "c:\users\tech\desktop\powerlinetransceiver\Interrupt\Interrupt.c"
  73  0000              _EnableInterrupt .section 'code'
  73  0000              _EnableInterrupt proc
  73  0000  00              local _EnableInterrupt_2 db 1 dup(?)	; 0,1
  73  0000  0080     E  	mov ra,a
  73  0001  0080     R  	mov _EnableInterrupt_2[0],a
  73  0002              #pragma debug variable 7 3 _EnableInterrupt_2+0 "interruptAddress"
  74  0002              #line 74 "c:\users\tech\desktop\powerlinetransceiver\Interrupt\Interrupt.c"
  74  0002  0700     E  	mov a,ra
  74  0003  0A08        	sub a,8
  74  0004  3D0A        	sz z
  74  0005  2800     R  	jmp _L4
  74  0006  0A04        	sub a,(12)-(8)
  74  0007  3D0A        	sz z
  74  0008  2800     R  	jmp _L5
  74  0009              #line 74 "c:\users\tech\desktop\powerlinetransceiver\Interrupt\Interrupt.c"
  74  0009  0700     E  	mov a,ra
  74  000A  0A10        	sub a,16
  74  000B  390A        	snz z
  74  000C  2800     R  	jmp _L2
  90  000D              #line 90 "c:\users\tech\desktop\powerlinetransceiver\Interrupt\Interrupt.c"
  90  000D  3049        	set [73].0
  91  000E              #line 91 "c:\users\tech\desktop\powerlinetransceiver\Interrupt\Interrupt.c"
  91  000E  2800     R  	jmp _L2
  91  000F              _L4:
  78  000F              #line 78 "c:\users\tech\desktop\powerlinetransceiver\Interrupt\Interrupt.c"
  78  000F  3148        	set [72].2
"File: Interrupt.c   Assembler  Version HGASM0202      Page 3

  79  0010              #line 79 "c:\users\tech\desktop\powerlinetransceiver\Interrupt\Interrupt.c"
  79  0010  2800     R  	jmp _L2
  79  0011              _L5:
  84  0011              #line 84 "c:\users\tech\desktop\powerlinetransceiver\Interrupt\Interrupt.c"
  84  0011  31C8        	set [72].3
  84  0012              _L2:
  84  0012  0003        	ret
  84  0013              _EnableInterrupt endp
  84  0013              #line 84 "c:\users\tech\desktop\powerlinetransceiver\Interrupt\Interrupt.c"
  84  0013              #pragma debug scope 1 1
  84  0013              public _DisableInterrupt
  84  0013              #pragma debug scope 4 1
 170  0013              #line 170 "c:\users\tech\desktop\powerlinetransceiver\Interrupt\Interrupt.c"
 170  0000              _DisableInterrupt .section 'code'
 170  0000              _DisableInterrupt proc
 170  0000  00              local _DisableInterrupt_2 db 1 dup(?)	; 0,1
 170  0000  0080     E  	mov ra,a
 170  0001  0080     R  	mov _DisableInterrupt_2[0],a
 170  0002              #pragma debug variable 7 4 _DisableInterrupt_2+0 "interruptAddress"
 171  0002              #line 171 "c:\users\tech\desktop\powerlinetransceiver\Interrupt\Interrupt.c"
 171  0002  0700     E  	mov a,ra
 171  0003  0A08        	sub a,8
 171  0004  3D0A        	sz z
 171  0005  2800     R  	jmp _L10
 171  0006  0A04        	sub a,(12)-(8)
 171  0007  3D0A        	sz z
 171  0008  2800     R  	jmp _L11
 171  0009              #line 171 "c:\users\tech\desktop\powerlinetransceiver\Interrupt\Interrupt.c"
 171  0009  0700     E  	mov a,ra
 171  000A  0A10        	sub a,16
 171  000B  390A        	snz z
 171  000C  2800     R  	jmp _L8
 187  000D              #line 187 "c:\users\tech\desktop\powerlinetransceiver\Interrupt\Interrupt.c"
 187  000D  3449        	clr [73].0
 188  000E              #line 188 "c:\users\tech\desktop\powerlinetransceiver\Interrupt\Interrupt.c"
 188  000E  2800     R  	jmp _L8
 188  000F              _L10:
 175  000F              #line 175 "c:\users\tech\desktop\powerlinetransceiver\Interrupt\Interrupt.c"
 175  000F  3548        	clr [72].2
 176  0010              #line 176 "c:\users\tech\desktop\powerlinetransceiver\Interrupt\Interrupt.c"
 176  0010  2800     R  	jmp _L8
 176  0011              _L11:
 181  0011              #line 181 "c:\users\tech\desktop\powerlinetransceiver\Interrupt\Interrupt.c"
 181  0011  35C8        	clr [72].3
 181  0012              _L8:
 181  0012  0003        	ret
 181  0013              _DisableInterrupt endp
 181  0013              #line 181 "c:\users\tech\desktop\powerlinetransceiver\Interrupt\Interrupt.c"
 181  0013              #pragma debug scope 1 1
 181  0013              public _ExternalPin0ISR
 181  0013              #pragma debug scope 5 1
 271  0013              #line 271 "c:\users\tech\desktop\powerlinetransceiver\Interrupt\Interrupt.c"
 271  0000              @ExternalPin0ISR_code .section at 8 'code'
 271  0000              _ExternalPin0ISR:
 271  0000              ifdef INTERRUPT_DELAY
 271  0000              	nop
 271  0000              endif
 271  0000  0004        	reti
 271  0001              #line 271 "c:\users\tech\desktop\powerlinetransceiver\Interrupt\Interrupt.c"
 271  0001              #pragma debug scope 1 1
"File: Interrupt.c   Assembler  Version HGASM0202      Page 4

 271  0001              public _ExternalPin1ISR
 271  0001              #pragma debug scope 6 1
 284  0001              #line 284 "c:\users\tech\desktop\powerlinetransceiver\Interrupt\Interrupt.c"
 284  0000              @ExternalPin1ISR_code .section at 12 'code'
 284  0000              _ExternalPin1ISR:
 284  0000              ifdef INTERRUPT_DELAY
 284  0000              	nop
 284  0000              endif
 284  0000  0004        	reti
 284  0001              #line 284 "c:\users\tech\desktop\powerlinetransceiver\Interrupt\Interrupt.c"
 284  0001              #pragma debug scope 1 1
 284  0001              ___pa equ [20]
 284  0001              public _UniversalSerialInterfaceISR
 284  0001              #pragma debug scope 7 1
 299  0001              #line 299 "c:\users\tech\desktop\powerlinetransceiver\Interrupt\Interrupt.c"
 299  0000              @UniversalSerialInterfaceISR_code .section at 16 'code'
 299  0000              ifdef INTERRUPT_DELAY
 299  0000              	nop
 299  0000              endif
 299  0000  0080     E  	mov r1,a
 299  0001  070A        	mov a,status
 299  0002              ifndef INTERRUPT_DELAY
 299  0002  0080     E  	mov r2,a
 299  0003              endif
 299  0003  2800     R  	jmp _UniversalSerialInterfaceISR
 299  0004              #pragma debug scope 1 1
 299  0004              @dummy16 endp
 299  0004              #pragma debug scope 8 1
 299  0000              _UniversalSerialInterfaceISR .section 'code'
 299  0000              _UniversalSerialInterfaceISR proc
 299  0000              ifdef INTERRUPT_DELAY
 299  0000              	mov r2,a
 299  0000              endif
 300  0000              #line 300 "c:\users\tech\desktop\powerlinetransceiver\Interrupt\Interrupt.c"
 300  0000  3194        	set [20].3
 301  0001              #line 301 "c:\users\tech\desktop\powerlinetransceiver\Interrupt\Interrupt.c"
 301  0001              ;# 301 "c:\users\tech\desktop\powerlinetransceiver\Interrupt\Interrupt.c" 1
 301  0001  0000        	nop
 302  0002              #line 302 "c:\users\tech\desktop\powerlinetransceiver\Interrupt\Interrupt.c"
 302  0002              ;# 302 "c:\users\tech\desktop\powerlinetransceiver\Interrupt\Interrupt.c" 1
 302  0002  0000        	nop
 303  0003              #line 303 "c:\users\tech\desktop\powerlinetransceiver\Interrupt\Interrupt.c"
 303  0003              ;# 303 "c:\users\tech\desktop\powerlinetransceiver\Interrupt\Interrupt.c" 1
 303  0003  0000        	nop
 304  0004              #line 304 "c:\users\tech\desktop\powerlinetransceiver\Interrupt\Interrupt.c"
 304  0004              ;# 304 "c:\users\tech\desktop\powerlinetransceiver\Interrupt\Interrupt.c" 1
 304  0004  0000        	nop
 305  0005              #line 305 "c:\users\tech\desktop\powerlinetransceiver\Interrupt\Interrupt.c"
 305  0005              ;# 305 "c:\users\tech\desktop\powerlinetransceiver\Interrupt\Interrupt.c" 1
 305  0005  0000        	nop
 306  0006              #line 306 "c:\users\tech\desktop\powerlinetransceiver\Interrupt\Interrupt.c"
 306  0006              ;# 306 "c:\users\tech\desktop\powerlinetransceiver\Interrupt\Interrupt.c" 1
 306  0006  0000        	nop
 307  0007              #line 307 "c:\users\tech\desktop\powerlinetransceiver\Interrupt\Interrupt.c"
 307  0007              ;# 307 "c:\users\tech\desktop\powerlinetransceiver\Interrupt\Interrupt.c" 1
 307  0007  0000        	nop
 308  0008              #line 308 "c:\users\tech\desktop\powerlinetransceiver\Interrupt\Interrupt.c"
 308  0008              ;# 308 "c:\users\tech\desktop\powerlinetransceiver\Interrupt\Interrupt.c" 1
 308  0008  0000        	nop
 309  0009              #line 309 "c:\users\tech\desktop\powerlinetransceiver\Interrupt\Interrupt.c"
"File: Interrupt.c   Assembler  Version HGASM0202      Page 5

 309  0009  3594        	clr [20].3
 309  000A  0700     E  	mov a,r2
 309  000B  008A        	mov status,a
 309  000C  0700     E  	mov a,r1
 309  000D  0004        	reti
 309  000E              _UniversalSerialInterfaceISR endp
 309  000E              
 309  000E              #line 309 "c:\users\tech\desktop\powerlinetransceiver\Interrupt\Interrupt.c"
 309  000E              #pragma debug scope 1 1
 309  000E              #pragma debug struct_end
 309  000E              #pragma debug struct_end
 309  000E              #pragma debug union_end
 309  000E              #pragma debug union_end
 309  000E              #pragma debug variable 43 1 ___pa "__pa" 1
 309  000E              #pragma debug struct_end
 309  000E              #pragma debug struct_end
 309  000E              #pragma debug union_end
 309  000E              #pragma debug union_end
 309  000E              #pragma debug variable 45 1 ___intc0 "__intc0" 1
 309  000E              #pragma debug struct_end
 309  000E              #pragma debug struct_end
 309  000E              #pragma debug union_end
 309  000E              #pragma debug union_end
 309  000E              #pragma debug variable 47 1 ___intc1 "__intc1" 1
 309  000E              extern r1:byte
 309  000E              extern r2:byte
 309  000E              
 309  000E              ; 
 309  000E              ; Generated by holtek-gcc v3.19, Mon Aug 26 16:58:31 2024
 309  000E              ; Rebuild 718
 309  000E              ; end of file


        0 Errors, 0