"File: Interrupt.c   Assembler  Version HGASM0202      Page 1


   1  0000              ; Generated by holtek-gcc v3.19, Tue Jul 30 14:08:03 2024
   2  0000              ; 
   3  0000              ; Configuration:
   4  0000              ;       with long instruction
   5  0000              ;       Single ROM, Multi-RAM
   6  0000              ;       bits_per_rom_unit:16
   7  0000              ;       with mp1
   8  0000              ;       with tbhp, address(0x9)
   9  0000              ;          Use tabrd-const
  10  0000              ;       
  11  0000              ; SFR address of long-instruction arch:
  12  0000              ;    mp0 = -1,1,0
  13  0000              ;    mp1 = 4,3,2
  14  0000              ;    mp2 = 14,13,12
  15  0000              ;    tbp = 9,7,8
  16  0000              ;    acc = 5
  17  0000              ;    pcl = 6
  18  0000              ;    status = 10
  19  0000              ;    bp = 11
  20  0000              ;    intc = 72
  21  0000              ;       
  22  0000              ;       
  23  0000              ; use 'tabrdc' instead of 'tabrd'
  24  0000              ;       
  25  0000              
  26  0000              #pragma translator "holtek-gcc 4.6.4" "3.19" "build 20130711"
  27  0000              ; Rebuild 718
  28  0000              
  29  0000              ir equ [2]
  30  0000              mp equ [3]
  31  0000              sbp equ [4]
  32  0000              acc equ [5]
  33  0000              bp equ [11]
  34  0000              tblp equ [7]
  35  0000              tbhp equ [9]
  36  0000              status equ [10]
  37  0000              c equ [10].0
  38  0000              ac equ [10].1
  39  0000              z equ [10].2
  40  0000              ov equ [10].3
  41  0000              cz equ [10].6
  42  0000              sc equ [10].7
  43  0000              intc equ [72]
  44  0000              
  45  0000              extern ra:byte
  46  0000              extern rb:byte
  47  0000              extern rc:byte
  48  0000              extern rd:byte
  49  0000              extern re:byte
  50  0000              extern rf:byte
  51  0000              extern rg:byte
  52  0000              extern rh:byte
  53  0000              extern _Crom2Prom:near
  54  0000              extern _Crom2PromNext:near
  55  0000              
  56  0000              RAMBANK 0 @BITDATASEC, @BITDATASEC1
  57  0000              @HCCINIT	.section 'data'
  58  0000              @HCCINIT0	.section 'data'
  59  0000              @BITDATASEC	 .section 'data'
"File: Interrupt.ASM  Assembler  Version HGASM0202      Page 2

  60  0000              @BITDATASEC1	 .section 'data'
  61  0000              
  62  0000              #pragma debug scope 1 1
  63  0000              	extern __DELAY3:near
  64  0000              	extern __DELAYX3:near
  65  0000              	extern __DELAYX6:near
  66  0000              	extern __DELAYY5:near
  67  0000              	extern __DELAYY3:near
  68  0000              	extern _builtin_holtek_delay_2:byte
  69  0000              ___intc0 equ [72]
  70  0000              ___intc2 equ [74]
  71  0000              ___intc3 equ [75]
  72  0000              public _IntrruptInit
  73  0000              #pragma debug scope 2 1

   4  0000              #line 4 "c:\users\tech\desktop\powerlinetransceiver\Interrupt\Interrupt.c"
   4  0000              _IntrruptInit .section 'code'
   4  0000              _IntrruptInit proc
   5  0000              #line 5 "c:\users\tech\desktop\powerlinetransceiver\Interrupt\Interrupt.c"
   5  0000  3048        	set [72].0
  31  0001              #line 31 "c:\users\tech\desktop\powerlinetransceiver\Interrupt\Interrupt.c"
  31  0001  304A        	set [74].0
  35  0002              #line 35 "c:\users\tech\desktop\powerlinetransceiver\Interrupt\Interrupt.c"
  35  0002  30CA        	set [74].1
  39  0003              #line 39 "c:\users\tech\desktop\powerlinetransceiver\Interrupt\Interrupt.c"
  39  0003  314A        	set [74].2
  43  0004              #line 43 "c:\users\tech\desktop\powerlinetransceiver\Interrupt\Interrupt.c"
  43  0004  31CA        	set [74].3
  55  0005              #line 55 "c:\users\tech\desktop\powerlinetransceiver\Interrupt\Interrupt.c"
  55  0005  30C8        	set [72].1
  59  0006              #line 59 "c:\users\tech\desktop\powerlinetransceiver\Interrupt\Interrupt.c"
  59  0006  314B        	set [75].2
  59  0007  0003        	ret
  59  0008              _IntrruptInit endp
  59  0008              #line 59 "c:\users\tech\desktop\powerlinetransceiver\Interrupt\Interrupt.c"
  59  0008              #pragma debug scope 1 1
  59  0008              public _EnableInterrupt
  59  0008              #pragma debug scope 3 1
  68  0008              #line 68 "c:\users\tech\desktop\powerlinetransceiver\Interrupt\Interrupt.c"
  68  0000              _EnableInterrupt .section 'code'
  68  0000              _EnableInterrupt proc
  68  0000  00              local _EnableInterrupt_2 db 1 dup(?)	; 0,1
  68  0000  0080     E  	mov ra,a
  68  0001  0080     R  	mov _EnableInterrupt_2[0],a
  68  0002              #pragma debug variable 7 3 _EnableInterrupt_2+0 "interruptAddress"
  69  0002              #line 69 "c:\users\tech\desktop\powerlinetransceiver\Interrupt\Interrupt.c"
  69  0002  0700     E  	mov a,ra
  69  0003  0A04        	sub a,4
  69  0004  3D0A        	sz z
  69  0005  2800     R  	jmp _L4
  69  0006  0A1C        	sub a,(32)-(4)
  69  0007  3D0A        	sz z
  69  0008  2800     R  	jmp _L5
  69  0009              #line 69 "c:\users\tech\desktop\powerlinetransceiver\Interrupt\Interrupt.c"
  69  0009  0700     E  	mov a,ra
  69  000A  0A24        	sub a,36
  69  000B  3D0A        	sz z
  69  000C  2800     R  	jmp _L6
  69  000D  0A04        	sub a,(40)-(36)
  69  000E  3D0A        	sz z
"File: Interrupt.c   Assembler  Version HGASM0202      Page 3

  69  000F  2800     R  	jmp _L7
  69  0010  0700     E  	mov a,ra
  69  0011  0A2C        	sub a,44
  69  0012  3D0A        	sz z
  69  0013  2800     R  	jmp _L8
  69  0014  0700     E  	mov a,ra
  69  0015  0A38        	sub a,56
  69  0016  390A        	snz z
  69  0017  2800     R  	jmp _L2
 152  0018              #line 152 "c:\users\tech\desktop\powerlinetransceiver\Interrupt\Interrupt.c"
 152  0018  314B        	set [75].2
 153  0019              #line 153 "c:\users\tech\desktop\powerlinetransceiver\Interrupt\Interrupt.c"
 153  0019  2800     R  	jmp _L2
 153  001A              _L5:
 109  001A              #line 109 "c:\users\tech\desktop\powerlinetransceiver\Interrupt\Interrupt.c"
 109  001A  304A        	set [74].0
 110  001B              #line 110 "c:\users\tech\desktop\powerlinetransceiver\Interrupt\Interrupt.c"
 110  001B  2800     R  	jmp _L2
 110  001C              _L6:
 115  001C              #line 115 "c:\users\tech\desktop\powerlinetransceiver\Interrupt\Interrupt.c"
 115  001C  30CA        	set [74].1
 116  001D              #line 116 "c:\users\tech\desktop\powerlinetransceiver\Interrupt\Interrupt.c"
 116  001D  2800     R  	jmp _L2
 116  001E              _L7:
 121  001E              #line 121 "c:\users\tech\desktop\powerlinetransceiver\Interrupt\Interrupt.c"
 121  001E  314A        	set [74].2
 122  001F              #line 122 "c:\users\tech\desktop\powerlinetransceiver\Interrupt\Interrupt.c"
 122  001F  2800     R  	jmp _L2
 122  0020              _L8:
 127  0020              #line 127 "c:\users\tech\desktop\powerlinetransceiver\Interrupt\Interrupt.c"
 127  0020  31CA        	set [74].3
 128  0021              #line 128 "c:\users\tech\desktop\powerlinetransceiver\Interrupt\Interrupt.c"
 128  0021  2800     R  	jmp _L2
 128  0022              _L4:
 145  0022              #line 145 "c:\users\tech\desktop\powerlinetransceiver\Interrupt\Interrupt.c"
 145  0022  30C8        	set [72].1
 145  0023              _L2:
 145  0023  0003        	ret
 145  0024              _EnableInterrupt endp
 145  0024              #line 145 "c:\users\tech\desktop\powerlinetransceiver\Interrupt\Interrupt.c"
 145  0024              #pragma debug scope 1 1
 145  0024              public _DisableInterrupt
 145  0024              #pragma debug scope 4 1
 165  0024              #line 165 "c:\users\tech\desktop\powerlinetransceiver\Interrupt\Interrupt.c"
 165  0000              _DisableInterrupt .section 'code'
 165  0000              _DisableInterrupt proc
 165  0000  00              local _DisableInterrupt_2 db 1 dup(?)	; 0,1
 165  0000  0080     E  	mov ra,a
 165  0001  0080     R  	mov _DisableInterrupt_2[0],a
 165  0002              #pragma debug variable 7 4 _DisableInterrupt_2+0 "interruptAddress"
 166  0002              #line 166 "c:\users\tech\desktop\powerlinetransceiver\Interrupt\Interrupt.c"
 166  0002  0700     E  	mov a,ra
 166  0003  0A04        	sub a,4
 166  0004  3D0A        	sz z
 166  0005  2800     R  	jmp _L13
 166  0006  0A1C        	sub a,(32)-(4)
 166  0007  3D0A        	sz z
 166  0008  2800     R  	jmp _L14
 166  0009              #line 166 "c:\users\tech\desktop\powerlinetransceiver\Interrupt\Interrupt.c"
 166  0009  0700     E  	mov a,ra
"File: Interrupt.c   Assembler  Version HGASM0202      Page 4

 166  000A  0A24        	sub a,36
 166  000B  3D0A        	sz z
 166  000C  2800     R  	jmp _L15
 166  000D  0A04        	sub a,(40)-(36)
 166  000E  3D0A        	sz z
 166  000F  2800     R  	jmp _L16
 166  0010  0700     E  	mov a,ra
 166  0011  0A2C        	sub a,44
 166  0012  3D0A        	sz z
 166  0013  2800     R  	jmp _L17
 166  0014  0700     E  	mov a,ra
 166  0015  0A38        	sub a,56
 166  0016  390A        	snz z
 166  0017  2800     R  	jmp _L11
 248  0018              #line 248 "c:\users\tech\desktop\powerlinetransceiver\Interrupt\Interrupt.c"
 248  0018  354B        	clr [75].2
 249  0019              #line 249 "c:\users\tech\desktop\powerlinetransceiver\Interrupt\Interrupt.c"
 249  0019  2800     R  	jmp _L11
 249  001A              _L14:
 206  001A              #line 206 "c:\users\tech\desktop\powerlinetransceiver\Interrupt\Interrupt.c"
 206  001A  344A        	clr [74].0
 207  001B              #line 207 "c:\users\tech\desktop\powerlinetransceiver\Interrupt\Interrupt.c"
 207  001B  2800     R  	jmp _L11
 207  001C              _L15:
 212  001C              #line 212 "c:\users\tech\desktop\powerlinetransceiver\Interrupt\Interrupt.c"
 212  001C  34CA        	clr [74].1
 213  001D              #line 213 "c:\users\tech\desktop\powerlinetransceiver\Interrupt\Interrupt.c"
 213  001D  2800     R  	jmp _L11
 213  001E              _L16:
 218  001E              #line 218 "c:\users\tech\desktop\powerlinetransceiver\Interrupt\Interrupt.c"
 218  001E  354A        	clr [74].2
 219  001F              #line 219 "c:\users\tech\desktop\powerlinetransceiver\Interrupt\Interrupt.c"
 219  001F  2800     R  	jmp _L11
 219  0020              _L17:
 224  0020              #line 224 "c:\users\tech\desktop\powerlinetransceiver\Interrupt\Interrupt.c"
 224  0020  35CA        	clr [74].3
 225  0021              #line 225 "c:\users\tech\desktop\powerlinetransceiver\Interrupt\Interrupt.c"
 225  0021  2800     R  	jmp _L11
 225  0022              _L13:
 242  0022              #line 242 "c:\users\tech\desktop\powerlinetransceiver\Interrupt\Interrupt.c"
 242  0022  34C8        	clr [72].1
 242  0023              _L11:
 242  0023  0003        	ret
 242  0024              _DisableInterrupt endp
 242  0024              #line 242 "c:\users\tech\desktop\powerlinetransceiver\Interrupt\Interrupt.c"
 242  0024              #pragma debug scope 1 1
 242  0024              public _PTMCompairPISR
 242  0024              #pragma debug scope 5 1
 334  0024              #line 334 "c:\users\tech\desktop\powerlinetransceiver\Interrupt\Interrupt.c"
 334  0000              @PTMCompairPISR_code .section at 32 'code'
 334  0000              _PTMCompairPISR:
 334  0000              ifdef INTERRUPT_DELAY
 334  0000              	nop
 334  0000              endif
 334  0000  0004        	reti
 334  0001              #line 334 "c:\users\tech\desktop\powerlinetransceiver\Interrupt\Interrupt.c"
 334  0001              #pragma debug scope 1 1
 334  0001              public _PTMCompairAISR
 334  0001              #pragma debug scope 6 1
 352  0001              #line 352 "c:\users\tech\desktop\powerlinetransceiver\Interrupt\Interrupt.c"
"File: Interrupt.c   Assembler  Version HGASM0202      Page 5

 352  0000              @PTMCompairAISR_code .section at 36 'code'
 352  0000              _PTMCompairAISR:
 352  0000              ifdef INTERRUPT_DELAY
 352  0000              	nop
 352  0000              endif
 352  0000  0004        	reti
 352  0001              #line 352 "c:\users\tech\desktop\powerlinetransceiver\Interrupt\Interrupt.c"
 352  0001              #pragma debug scope 1 1
 352  0001              public _STMCompairPISR
 352  0001              #pragma debug scope 7 1
 367  0001              #line 367 "c:\users\tech\desktop\powerlinetransceiver\Interrupt\Interrupt.c"
 367  0000              @STMCompairPISR_code .section at 40 'code'
 367  0000              _STMCompairPISR:
 367  0000              ifdef INTERRUPT_DELAY
 367  0000              	nop
 367  0000              endif
 367  0000  0004        	reti
 367  0001              #line 367 "c:\users\tech\desktop\powerlinetransceiver\Interrupt\Interrupt.c"
 367  0001              #pragma debug scope 1 1
 367  0001              public _STMCompairAISR
 367  0001              #pragma debug scope 8 1
 382  0001              #line 382 "c:\users\tech\desktop\powerlinetransceiver\Interrupt\Interrupt.c"
 382  0000              @STMCompairAISR_code .section at 44 'code'
 382  0000              _STMCompairAISR:
 382  0000              ifdef INTERRUPT_DELAY
 382  0000              	nop
 382  0000              endif
 382  0000  0004        	reti
 382  0001              #line 382 "c:\users\tech\desktop\powerlinetransceiver\Interrupt\Interrupt.c"
 382  0001              #pragma debug scope 1 1
 382  0001              ___pb equ [24]
 382  0001              public _PLT1CompairISR
 382  0001              #pragma debug scope 9 1
 425  0001              #line 425 "c:\users\tech\desktop\powerlinetransceiver\Interrupt\Interrupt.c"
 425  0000              @PLT1CompairISR_code .section at 56 'code'
 425  0000              ifdef INTERRUPT_DELAY
 425  0000              	nop
 425  0000              endif
 425  0000  0080     E  	mov r1,a
 425  0001  070A        	mov a,status
 425  0002              ifndef INTERRUPT_DELAY
 425  0002  0080     E  	mov r2,a
 425  0003              endif
 425  0003  2800     R  	jmp _PLT1CompairISR
 425  0004              #pragma debug scope 1 1
 425  0004              @dummy56 endp
 425  0004              #pragma debug scope 10 1
 425  0000              _PLT1CompairISR .section 'code'
 425  0000              _PLT1CompairISR proc
 425  0000              ifdef INTERRUPT_DELAY
 425  0000              	mov r2,a
 425  0000              endif
 426  0000              #line 426 "c:\users\tech\desktop\powerlinetransceiver\Interrupt\Interrupt.c"
 426  0000  3498        	clr [24].1
 426  0001  0700     E  	mov a,r2
 426  0002  008A        	mov status,a
 426  0003  0700     E  	mov a,r1
 426  0004  0004        	reti
 426  0005              _PLT1CompairISR endp
 426  0005              
"File: Interrupt.c   Assembler  Version HGASM0202      Page 6

 426  0005              #line 426 "c:\users\tech\desktop\powerlinetransceiver\Interrupt\Interrupt.c"
 426  0005              #pragma debug scope 1 1
 426  0005              public _PLT0CompairISR
 426  0005              #pragma debug scope 11 1
 439  0005              #line 439 "c:\users\tech\desktop\powerlinetransceiver\Interrupt\Interrupt.c"
 439  0000              @PLT0CompairISR_code .section at 4 'code'
 439  0000              ifdef INTERRUPT_DELAY
 439  0000              	nop
 439  0000              endif
 439  0000  0080     E  	mov r1,a
 439  0001  070A        	mov a,status
 439  0002              ifndef INTERRUPT_DELAY
 439  0002  0080     E  	mov r2,a
 439  0003              endif
 439  0003  2800     R  	jmp _PLT0CompairISR
 439  0004              #pragma debug scope 1 1
 439  0004              @dummy4 endp
 439  0004              #pragma debug scope 12 1
 439  0000              _PLT0CompairISR .section 'code'
 439  0000              _PLT0CompairISR proc
 439  0000              ifdef INTERRUPT_DELAY
 439  0000              	mov r2,a
 439  0000              endif
 440  0000              #line 440 "c:\users\tech\desktop\powerlinetransceiver\Interrupt\Interrupt.c"
 440  0000  3098        	set [24].1
 440  0001  0700     E  	mov a,r2
 440  0002  008A        	mov status,a
 440  0003  0700     E  	mov a,r1
 440  0004  0004        	reti
 440  0005              _PLT0CompairISR endp
 440  0005              
 440  0005              #line 440 "c:\users\tech\desktop\powerlinetransceiver\Interrupt\Interrupt.c"
 440  0005              #pragma debug scope 1 1
 440  0005              #pragma debug struct_end
 440  0005              #pragma debug struct_end
 440  0005              #pragma debug union_end
 440  0005              #pragma debug union_end
 440  0005              #pragma debug variable 43 1 ___pb "__pb" 1
 440  0005              #pragma debug struct_end
 440  0005              #pragma debug struct_end
 440  0005              #pragma debug union_end
 440  0005              #pragma debug union_end
 440  0005              #pragma debug variable 45 1 ___intc0 "__intc0" 1
 440  0005              #pragma debug struct_end
 440  0005              #pragma debug struct_end
 440  0005              #pragma debug union_end
 440  0005              #pragma debug union_end
 440  0005              #pragma debug variable 47 1 ___intc2 "__intc2" 1
 440  0005              #pragma debug struct_end
 440  0005              #pragma debug struct_end
 440  0005              #pragma debug union_end
 440  0005              #pragma debug union_end
 440  0005              #pragma debug variable 49 1 ___intc3 "__intc3" 1
 440  0005              extern r1:byte
 440  0005              extern r2:byte
 440  0005              
 440  0005              ; 
 440  0005              ; Generated by holtek-gcc v3.19, Tue Jul 30 14:08:03 2024
 440  0005              ; Rebuild 718
 440  0005              ; end of file
"File: Interrupt.c   Assembler  Version HGASM0202      Page 7



        0 Errors, 0