"File: Main.c        Assembler  Version HGASM0202      Page 1


   1  0000              ; Generated by holtek-gcc v3.19, Sat Aug 03 18:07:40 2024
   2  0000              ; 
   3  0000              ; Configuration:
   4  0000              ;       with long instruction
   5  0000              ;       Single ROM, Multi-RAM
   6  0000              ;       bits_per_rom_unit:16
   7  0000              ;       with mp1
   8  0000              ;       with tbhp, address(0x9)
   9  0000              ;          Use tabrd-const
  10  0000              ;       
  11  0000              ; SFR address of long-instruction arch:
  12  0000              ;    mp0 = -1,1,0
  13  0000              ;    mp1 = 4,3,2
  14  0000              ;    mp2 = 14,13,12
  15  0000              ;    tbp = 9,7,8
  16  0000              ;    acc = 5
  17  0000              ;    pcl = 6
  18  0000              ;    status = 10
  19  0000              ;    bp = 11
  20  0000              ;    intc = 72
  21  0000              ;       
  22  0000              ;       
  23  0000              ; use 'tabrdc' instead of 'tabrd'
  24  0000              ;       
  25  0000              
  26  0000              #pragma translator "holtek-gcc 4.6.4" "3.19" "build 20130711"
  27  0000              ; Rebuild 718
  28  0000              
  29  0000              ir equ [2]
  30  0000              mp equ [3]
  31  0000              sbp equ [4]
  32  0000              acc equ [5]
  33  0000              bp equ [11]
  34  0000              tblp equ [7]
  35  0000              tbhp equ [9]
  36  0000              status equ [10]
  37  0000              c equ [10].0
  38  0000              ac equ [10].1
  39  0000              z equ [10].2
  40  0000              ov equ [10].3
  41  0000              cz equ [10].6
  42  0000              sc equ [10].7
  43  0000              intc equ [72]
  44  0000              
  45  0000              extern ra:byte
  46  0000              extern rb:byte
  47  0000              extern rc:byte
  48  0000              extern rd:byte
  49  0000              extern re:byte
  50  0000              extern rf:byte
  51  0000              extern rg:byte
  52  0000              extern rh:byte
  53  0000              extern _Crom2Prom:near
  54  0000              extern _Crom2PromNext:near
  55  0000              
  56  0000              RAMBANK 0 @BITDATASEC, @BITDATASEC1
  57  0000              @HCCINIT	.section 'data'
  58  0000              @HCCINIT0	.section 'data'
  59  0000              @BITDATASEC	 .section 'data'
"File: Main.ASM      Assembler  Version HGASM0202      Page 2

  60  0000              @BITDATASEC1	 .section 'data'
  61  0000              
  62  0000              #pragma debug scope 1 1
  63  0000              	extern __DELAY3:near
  64  0000              	extern __DELAYX3:near
  65  0000              	extern __DELAYX6:near
  66  0000              	extern __DELAYY5:near
  67  0000              	extern __DELAYY3:near
  68  0000              	extern _builtin_holtek_delay_2:byte
  69  0000              ___integ equ [71]
  70  0000              ___intc0 equ [72]
  71  0000              public _main
  72  0000              #pragma debug scope 2 1

  27  0000              #line 27 "c:\users\tech\desktop\powerlinetransceiver\Main\Main.c"
  27  0000              IFDEF WITH_DEFAULT_STARTUP
  27  0000              extern _main_initial0:near
  27  0000              extern _main_startup:near
  27  0000              ENDIF
  27  0000              
  27  0000              ROMBANK 0 @start
  27  0000              @start .section com_l 'code'
  27  0000              _main_startup1:
  27  0000              @start .section com_e 'code'
  27  0000  2800     R  	jmp _main
  27  0001              
  27  0000              _main .section 'code'
  27  0000              _main proc
  29  0000              #line 29 "c:\users\tech\desktop\powerlinetransceiver\Main\Main.c"
  29  0000  2000     E  	call _S_RCC_Init
  36  0001              #line 36 "c:\users\tech\desktop\powerlinetransceiver\Main\Main.c"
  36  0001  2000     E  	call _S_GPIO_Init
  38  0002              #line 38 "c:\users\tech\desktop\powerlinetransceiver\Main\Main.c"
  38  0002  2000     E  	call _PLT0InputOffsetCalibration
  38  0003  0700     E  	mov a,ra
  38  0004  0080     R  	mov _offset0[0],a
  38  0005  0700     E  	mov a,rb
  38  0006  0080     R  	mov _offset0[1],a
  39  0007              #line 39 "c:\users\tech\desktop\powerlinetransceiver\Main\Main.c"
  39  0007  2000     E  	call _PLT1InputOffsetCalibration
  39  0008  0700     E  	mov a,ra
  39  0009  0080     R  	mov _offset1[0],a
  39  000A  0700     E  	mov a,rb
  39  000B  0080     R  	mov _offset1[1],a
  40  000C              #line 40 "c:\users\tech\desktop\powerlinetransceiver\Main\Main.c"
  40  000C  2000     E  	call _PLT0AmplifierInputOffsetCalibration
  40  000D  0700     E  	mov a,ra
  40  000E  0080     R  	mov _offset0[0],a
  40  000F  0700     E  	mov a,rb
  40  0010  0080     R  	mov _offset0[1],a
  42  0011              #line 42 "c:\users\tech\desktop\powerlinetransceiver\Main\Main.c"
  42  0011  31C7        	set [71].3
  43  0012              #line 43 "c:\users\tech\desktop\powerlinetransceiver\Main\Main.c"
  43  0012  3547        	clr [71].2
  56  0013              #line 56 "c:\users\tech\desktop\powerlinetransceiver\Main\Main.c"
  56  0013  3048        	set [72].0
  64  0014              #line 64 "c:\users\tech\desktop\powerlinetransceiver\Main\Main.c"
  64  0014  0F80        	mov a,-128
  64  0015  0080     E  	mov _UART_Init_2[0],a
  64  0016  0F25        	mov a,37
"File: Main.c        Assembler  Version HGASM0202      Page 3

  64  0017  0080     E  	mov _UART_Init_2[1],a
  64  0018  2000     E  	call _UART_Init
  64  0019              _L7:
  70  0019              #line 70 "c:\users\tech\desktop\powerlinetransceiver\Main\Main.c"
  70  0019  2000     E  	call _UART_Receive
  70  001A  0700     E  	mov a,ra
  70  001B  0080     R  	mov _Data[0],a
  70  001C  0700     E  	mov a,rb
  70  001D  0080     R  	mov _Data[1],a
  71  001E              #line 71 "c:\users\tech\desktop\powerlinetransceiver\Main\Main.c"
  71  001E  0F55        	mov a,85
  71  001F  2000     E  	call _UART_Transmit
  73  0020              #line 73 "c:\users\tech\desktop\powerlinetransceiver\Main\Main.c"
  73  0020  3C00     R  	sz _Data[1].7
  73  0021  2800     R  	jmp _L2
  75  0022              #line 75 "c:\users\tech\desktop\powerlinetransceiver\Main\Main.c"
  75  0022  0F44        	mov a,68
  75  0023  2000     E  	call _UART_Transmit
  76  0024              #line 76 "c:\users\tech\desktop\powerlinetransceiver\Main\Main.c"
  76  0024  0F3D        	mov a,61
  76  0025  2000     E  	call _UART_Transmit
  77  0026              #line 77 "c:\users\tech\desktop\powerlinetransceiver\Main\Main.c"
  77  0026  0700     R  	mov a,_Data[0]
  77  0027  2800     R  	jmp _L8
  77  0028              _L2:
  83  0028              #line 83 "c:\users\tech\desktop\powerlinetransceiver\Main\Main.c"
  83  0028  0F45        	mov a,69
  83  0029  2000     E  	call _UART_Transmit
  84  002A              #line 84 "c:\users\tech\desktop\powerlinetransceiver\Main\Main.c"
  84  002A  0F52        	mov a,82
  84  002B  2000     E  	call _UART_Transmit
  85  002C              #line 85 "c:\users\tech\desktop\powerlinetransceiver\Main\Main.c"
  85  002C  0F52        	mov a,82
  85  002D  2000     E  	call _UART_Transmit
  86  002E              #line 86 "c:\users\tech\desktop\powerlinetransceiver\Main\Main.c"
  86  002E  0F4F        	mov a,79
  86  002F  2000     E  	call _UART_Transmit
  87  0030              #line 87 "c:\users\tech\desktop\powerlinetransceiver\Main\Main.c"
  87  0030  0F52        	mov a,82
  87  0031  2000     E  	call _UART_Transmit
  88  0032              #line 88 "c:\users\tech\desktop\powerlinetransceiver\Main\Main.c"
  88  0032  0700     R  	mov a,_Data[0]
  88  0033  0080     E  	mov rb,a
  88  0034  0700     R  	mov a,_Data[1]
  88  0035  0080     E  	mov rc,a
  88  0036  0700     E  	mov a,rb
  88  0037  0600     E  	and a,rc
  88  0038  0B01        	add a,1
  88  0039  380A        	snz c
  88  003A  2800     R  	jmp _L4
  88  003B  0F31        	mov a,49
  88  003C  2800     R  	jmp _L8
  88  003D              _L4:
  89  003D              #line 89 "c:\users\tech\desktop\powerlinetransceiver\Main\Main.c"
  89  003D  0700     E  	mov a,rb
  89  003E  0AFE        	sub a,254
  89  003F  0700     E  	mov a,rc
  89  0040  08FF        	sbc a,255
  89  0041  3B0A        	snz cz
  89  0042  2800     R  	jmp _L5
"File: Main.c        Assembler  Version HGASM0202      Page 4

  89  0043  0F32        	mov a,50
  89  0044  2800     R  	jmp _L8
  89  0045              _L5:
  90  0045              #line 90 "c:\users\tech\desktop\powerlinetransceiver\Main\Main.c"
  90  0045  0700     E  	mov a,rb
  90  0046  0AFD        	sub a,253
  90  0047  0700     E  	mov a,rc
  90  0048  08FF        	sbc a,255
  90  0049  3B0A        	snz cz
  90  004A  2800     R  	jmp _L6
  90  004B  0F33        	mov a,51
  90  004C  2800     R  	jmp _L8
  90  004D              _L6:
  91  004D              #line 91 "c:\users\tech\desktop\powerlinetransceiver\Main\Main.c"
  91  004D  0700     E  	mov a,rb
  91  004E  0AFC        	sub a,252
  91  004F  0700     E  	mov a,rc
  91  0050  08FF        	sbc a,255
  91  0051  3B0A        	snz cz
  91  0052  2800     R  	jmp _L3
  91  0053  0F34        	mov a,52
  91  0054              _L8:
  91  0054  2000     E  	call _UART_Transmit
  91  0055              _L3:
 113  0055              #line 113 "c:\users\tech\desktop\powerlinetransceiver\Main\Main.c"
 113  0055              ;# 113 "c:\users\tech\desktop\powerlinetransceiver\Main\Main.c" 1
 113  0055  0001        	clr wdt
 168  0056              #line 168 "c:\users\tech\desktop\powerlinetransceiver\Main\Main.c"
 168  0056  2800     R  	jmp _L7
 168  0057  2800     R  	jmp $
 168  0058              _main endp
 168  0058              
 168  0058              @dummy endp
 168  0058              
 168  0058              #line 168 "c:\users\tech\desktop\powerlinetransceiver\Main\Main.c"
 168  0058              #pragma debug scope 1 1
 168  0058              public _receiveSerialData
 168  0058              #pragma debug scope 3 1
 172  0058              #line 172 "c:\users\tech\desktop\powerlinetransceiver\Main\Main.c"
 172  0000              _receiveSerialData .section 'code'
 172  0000              _receiveSerialData proc
 172  0000  0002[           local _receiveSerialData_2 db 2 dup(?)	; 0,2
            00
            ]
 172  0002              #pragma debug variable 8 3 _receiveSerialData_2+0 "data"
 172  0000  1F00     R  	clr _receiveSerialData_2[1]
 173  0001              #line 173 "c:\users\tech\desktop\powerlinetransceiver\Main\Main.c"
 173  0001  1F00     R  	clr _receiveSerialData_2[0]
 173  0002              _L14:
 173  0002              #pragma debug scope 4 3
 173  0002              ;begin block, line: 173.-1
 177  0002              #line 177 "c:\users\tech\desktop\powerlinetransceiver\Main\Main.c"
 177  0002  0700     R  	mov a,_receiveSerialData_2[0]
 177  0003  0380     R  	addm a,_receiveSerialData_2[0]
 179  0004              #line 179 "c:\users\tech\desktop\powerlinetransceiver\Main\Main.c"
 179  0004  2000     E  	call _PLT0Recive
 179  0005  0700     E  	mov a,ra
 179  0006  0C01        	xor a,1
 179  0007  0500     E  	or a,rb
 179  0008  390A        	snz z
"File: Main.c        Assembler  Version HGASM0202      Page 5

 179  0009  2800     R  	jmp _L11
 180  000A              #line 180 "c:\users\tech\desktop\powerlinetransceiver\Main\Main.c"
 180  000A  3000     R  	set _receiveSerialData_2[0].0
 180  000B  2800     R  	jmp _L12
 180  000C              _L11:
 181  000C              #line 181 "c:\users\tech\desktop\powerlinetransceiver\Main\Main.c"
 181  000C  2000     E  	call _PLT1Recive
 181  000D              _L12:
 181  000D  1480     R  	inc _receiveSerialData_2[1]
 181  000E              #pragma debug scope 3 1
 176  000E              #line 176 "c:\users\tech\desktop\powerlinetransceiver\Main\Main.c"
 176  000E  0700     R  	mov a,_receiveSerialData_2[1]
 176  000F  0A08        	sub a,8
 176  0010  390A        	snz z
 176  0011  2800     R  	jmp _L14
 187  0012              #line 187 "c:\users\tech\desktop\powerlinetransceiver\Main\Main.c"
 187  0012  0700     R  	mov a,_receiveSerialData_2[0]
 187  0013  0003        	ret
 187  0014              _receiveSerialData endp
 187  0014              #line 187 "c:\users\tech\desktop\powerlinetransceiver\Main\Main.c"
 187  0014              #pragma debug scope 1 1
 187  0014              public _softuart_transmit
 187  0014              #pragma debug scope 5 1
 190  0014              #line 190 "c:\users\tech\desktop\powerlinetransceiver\Main\Main.c"
 190  0000              _softuart_transmit .section 'code'
 190  0000              _softuart_transmit proc
 190  0000  00              local _softuart_transmit_2 db 1 dup(?)	; 0,1
 190  0000  0080     R  	mov _softuart_transmit_2[0],a
 190  0001              #pragma debug variable 7 5 _softuart_transmit_2+0 "data"
 190  0001              _L16:
 191  0001              #line 191 "c:\users\tech\desktop\powerlinetransceiver\Main\Main.c"
 191  0001  1E00     R  	snz _tx_busy[0]
 191  0002  2800     R  	jmp _L18
 193  0003              #line 193 "c:\users\tech\desktop\powerlinetransceiver\Main\Main.c"
 193  0003  0700     R  	mov a,_softuart_transmit_2[0]
 193  0004  0080     R  	mov _tx_data[0],a
 193  0005  2800     R  	jmp _L16
 193  0006              _L18:
 194  0006              #line 194 "c:\users\tech\desktop\powerlinetransceiver\Main\Main.c"
 194  0006  0F01        	mov a,1
 194  0007  0080     R  	mov _tx_busy[0],a
 195  0008              #line 195 "c:\users\tech\desktop\powerlinetransceiver\Main\Main.c"
 195  0008  1F00     R  	clr _bit_index[0]
 195  0009  0003        	ret
 195  000A              _softuart_transmit endp
 195  000A              #line 195 "c:\users\tech\desktop\powerlinetransceiver\Main\Main.c"
 195  000A              #pragma debug scope 1 1
 195  000A              public _RXBuffer
 195  0000              @HCCINIT	.section 'data'
  24  0000              #line 24 "c:\users\tech\desktop\powerlinetransceiver\Main\Main.c"
  24  0000              @HCCINIT_RXBuffer .section 'data'
  24  0000              _RXBuffer label byte
  24  0000              #pragma debug variable 10 1 _RXBuffer "RXBuffer"
  24  0000              	db 0
  24  0000              @ROMDATA_BASE .section inpage 'code'
  24  0000              	db 0
  24  0001              @HCCINIT_RXBuffer .section 'data'
  24  0001              	db 0
  24  0001              @ROMDATA_BASE .section inpage 'code'
  24  0001              	db 0
"File: Main.c        Assembler  Version HGASM0202      Page 6

  24  0002              @HCCINIT_RXBuffer .section 'data'
  24  0002              public _offset1
  23  0002              #line 23 "c:\users\tech\desktop\powerlinetransceiver\Main\Main.c"
  23  0000              @HCCINIT_offset1 .section 'data'
  23  0000              _offset1 label byte
  23  0000              #pragma debug variable 12 1 _offset1 "offset1"
  23  0000              	db 0
  23  0001              @ROMDATA_BASE .section inpage 'code'
  23  0001              	db 0
  23  0001              @HCCINIT_offset1 .section 'data'
  23  0001              	db 0
  23  0002              @ROMDATA_BASE .section inpage 'code'
  23  0002              	db 0
  23  0002              @HCCINIT_offset1 .section 'data'
  23  0002              public _offset0
  22  0002              #line 22 "c:\users\tech\desktop\powerlinetransceiver\Main\Main.c"
  22  0000              @HCCINIT_offset0 .section 'data'
  22  0000              _offset0 label byte
  22  0000              #pragma debug variable 12 1 _offset0 "offset0"
  22  0000              	db 0
  22  0002              @ROMDATA_BASE .section inpage 'code'
  22  0002              	db 0
  22  0001              @HCCINIT_offset0 .section 'data'
  22  0001              	db 0
  22  0003              @ROMDATA_BASE .section inpage 'code'
  22  0003              	db 0
  22  0002              @HCCINIT_offset0 .section 'data'
  22  0002              public _RXbit
  18  0002              #line 18 "c:\users\tech\desktop\powerlinetransceiver\Main\Main.c"
  18  0000              @HCCINIT_RXbit .section 'data'
  18  0000              _RXbit label byte
  18  0000              #pragma debug variable 7 1 _RXbit "RXbit"
  18  0000              	db 0
  18  0003              @ROMDATA_BASE .section inpage 'code'
  18  0003              	db 0
  18  0001              @HCCINIT_RXbit .section 'data'
  17  0001              #line 17 "c:\users\tech\desktop\powerlinetransceiver\Main\Main.c"
  17  0001              public _Data
  17  0000              @HCCINIT0_Data .section 'data'
  17  0000  0002[       _Data	db 2 dup(0)
            00
            ]
  17  0002              #pragma debug variable 11 1 _Data "Data"
  17  0002              
  17  0000              @HCCINIT .section 'data'
  17  0000              public _Data1
  16  0000              #line 16 "c:\users\tech\desktop\powerlinetransceiver\Main\Main.c"
  16  0000              @HCCINIT_Data1 .section 'data'
  16  0000              _Data1 label byte
  16  0000              #pragma debug variable 8 1 _Data1 "Data1"
  16  0000              	db -83
  16  0004              @ROMDATA_BASE .section inpage 'code'
  16  0004              	db -83
  16  0001              @HCCINIT_Data1 .section 'data'
  16  0001              public _frame1
  14  0001              #line 14 "c:\users\tech\desktop\powerlinetransceiver\Main\Main.c"
  14  0000              @HCCINIT_frame1 .section 'data'
  14  0000              _frame1 label byte
  14  0000              #pragma debug pointer 42 10 1
  14  0000              #pragma debug pointer 42 10 1
"File: Main.c        Assembler  Version HGASM0202      Page 7

  14  0000              #pragma debug variable 42 1 _frame1 "frame1"
  14  0000              	db 0
  14  0004              @ROMDATA_BASE .section inpage 'code'
  14  0004              	db 0
  14  0001              @HCCINIT_frame1 .section 'data'
  14  0001              	db 0
  14  0005              @ROMDATA_BASE .section inpage 'code'
  14  0005              	db 0
  14  0002              @HCCINIT_frame1 .section 'data'
  14  0002              public _tx_busy
  12  0002              #line 12 "c:\users\tech\desktop\powerlinetransceiver\Main\Main.c"
  12  0000              @HCCINIT_tx_busy .section 'data'
  12  0000              _tx_busy label byte
  12  0000              #pragma debug variable 7 1 _tx_busy "tx_busy"
  12  0000              	db 0
  12  0005              @ROMDATA_BASE .section inpage 'code'
  12  0005              	db 0
  12  0001              @HCCINIT_tx_busy .section 'data'
  12  0001              public _frameResive
  11  0001              #line 11 "c:\users\tech\desktop\powerlinetransceiver\Main\Main.c"
  11  0000              @HCCINIT_frameResive .section 'data'
  11  0000              _frameResive label byte
  11  0000              #pragma debug variable 10 1 _frameResive "frameResive"
  11  0000              	db 0
  11  0006              @ROMDATA_BASE .section inpage 'code'
  11  0006              	db 0
  11  0001              @HCCINIT_frameResive .section 'data'
  11  0001              	db 0
  11  0006              @ROMDATA_BASE .section inpage 'code'
  11  0006              	db 0
  11  0002              @HCCINIT_frameResive .section 'data'
  11  0002              public _frame
  10  0002              #line 10 "c:\users\tech\desktop\powerlinetransceiver\Main\Main.c"
  10  0000              @HCCINIT_frame .section 'data'
  10  0000              _frame label byte
  10  0000              #pragma debug variable 10 1 _frame "frame"
  10  0000              	db 0
  10  0007              @ROMDATA_BASE .section inpage 'code'
  10  0007              	db 0
  10  0001              @HCCINIT_frame .section 'data'
  10  0001              	db 0
  10  0007              @ROMDATA_BASE .section inpage 'code'
  10  0007              	db 0
  10  0002              @HCCINIT_frame .section 'data'
  10  0002              public _bit_index
   9  0002              #line 9 "c:\users\tech\desktop\powerlinetransceiver\Main\Main.c"
   9  0000              @HCCINIT_bit_index .section 'data'
   9  0000              _bit_index label byte
   9  0000              #pragma debug variable 7 1 _bit_index "bit_index"
   9  0000              	db 0
   9  0008              @ROMDATA_BASE .section inpage 'code'
   9  0008              	db 0
   9  0001              @HCCINIT_bit_index .section 'data'
   9  0001              public _tx_data
   7  0001              #line 7 "c:\users\tech\desktop\powerlinetransceiver\Main\Main.c"
   7  0000              @HCCINIT_tx_data .section 'data'
   7  0000              _tx_data label byte
   7  0000              #pragma debug variable 7 1 _tx_data "tx_data"
   7  0000              	db -83
   7  0008              @ROMDATA_BASE .section inpage 'code'
"File: Main.c        Assembler  Version HGASM0202      Page 8

   7  0008              	db -83
   7  0001              @HCCINIT_tx_data .section 'data'
   7  0001              public _counterR
   6  0001              #line 6 "c:\users\tech\desktop\powerlinetransceiver\Main\Main.c"
   6  0000              @HCCINIT_counterR .section 'data'
   6  0000              _counterR label byte
   6  0000              #pragma debug variable 12 1 _counterR "counterR"
   6  0000              	db 0
   6  0009              @ROMDATA_BASE .section inpage 'code'
   6  0009              	db 0
   6  0001              @HCCINIT_counterR .section 'data'
   6  0001              	db 0
   6  0009              @ROMDATA_BASE .section inpage 'code'
   6  0009              	db 0
   6  0002              @HCCINIT_counterR .section 'data'
   6  0002              public _counter
   5  0002              #line 5 "c:\users\tech\desktop\powerlinetransceiver\Main\Main.c"
   5  0000              @HCCINIT_counter .section 'data'
   5  0000              _counter label byte
   5  0000              #pragma debug variable 12 1 _counter "counter"
   5  0000              	db 0
   5  000A              @ROMDATA_BASE .section inpage 'code'
   5  000A              	db 0
   5  0001              @HCCINIT_counter .section 'data'
   5  0001              	db 0
   5  000A              @ROMDATA_BASE .section inpage 'code'
   5  000A              	db 0
   5  0002              @HCCINIT_counter .section 'data'
   5  0002              #pragma debug struct_end
   5  0002              #pragma debug struct_end
   5  0002              #pragma debug union_end
   5  0002              #pragma debug union_end
   5  0002              #pragma debug variable 44 1 ___integ "__integ" 1
   5  0002              #pragma debug struct_end
   5  0002              #pragma debug struct_end
   5  0002              #pragma debug union_end
   5  0002              #pragma debug union_end
   5  0002              #pragma debug variable 46 1 ___intc0 "__intc0" 1
  27  0002              #line 27 "c:\users\tech\desktop\powerlinetransceiver\Main\Main.c"
  27  0000              @code .section at 0 'code'
  27  0000  2800     R  	jmp _main_startup1
  27  0001              
  27  0001              extern _S_RCC_Init:near
  27  0001              extern _S_GPIO_Init:near
  27  0001              extern _PLT0InputOffsetCalibration:near
  27  0001              extern _PLT1InputOffsetCalibration:near
  27  0001              extern _PLT0AmplifierInputOffsetCalibration:near
  27  0001              extern _UART_Init_2:byte
  27  0001              extern _UART_Init:near
  27  0001              extern _UART_Receive:near
  27  0001              extern _UART_Transmit:near
  27  0001              extern _PLT0Recive:near
  27  0001              extern _PLT1Recive:near
  27  0001              
  27  0001              ; 
  27  0001              ; Generated by holtek-gcc v3.19, Sat Aug 03 18:07:40 2024
  27  0001              ; Rebuild 718
  27  0001              ; end of file


"File: Main.c        Assembler  Version HGASM0202      Page 9

        0 Errors, 0