"File: Main.c        Assembler  Version HGASM0202      Page 1


   1  0000              ; Generated by holtek-gcc v3.19, Mon Nov 04 18:32:23 2024
   2  0000              ; 
   3  0000              ; Configuration:
   4  0000              ;       with long instruction
   5  0000              ;       Single ROM, Multi-RAM
   6  0000              ;       bits_per_rom_unit:16
   7  0000              ;       with mp1
   8  0000              ;       with tbhp, address(0x9)
   9  0000              ;          Use tabrd-const
  10  0000              ;       
  11  0000              ; SFR address of long-instruction arch:
  12  0000              ;    mp0 = -1,1,0
  13  0000              ;    mp1 = 4,3,2
  14  0000              ;    mp2 = 14,13,12
  15  0000              ;    tbp = 9,7,8
  16  0000              ;    acc = 5
  17  0000              ;    pcl = 6
  18  0000              ;    status = 10
  19  0000              ;    bp = 11
  20  0000              ;    intc = 72
  21  0000              ;       
  22  0000              ;       
  23  0000              ; use 'tabrdc' instead of 'tabrd'
  24  0000              ;       
  25  0000              
  26  0000              #pragma translator "holtek-gcc 4.6.4" "3.19" "build 20130711"
  27  0000              ; Rebuild 718
  28  0000              
  29  0000              ir equ [2]
  30  0000              mp equ [3]
  31  0000              sbp equ [4]
  32  0000              acc equ [5]
  33  0000              bp equ [11]
  34  0000              tblp equ [7]
  35  0000              tbhp equ [9]
  36  0000              status equ [10]
  37  0000              c equ [10].0
  38  0000              ac equ [10].1
  39  0000              z equ [10].2
  40  0000              ov equ [10].3
  41  0000              cz equ [10].6
  42  0000              sc equ [10].7
  43  0000              intc equ [72]
  44  0000              
  45  0000              extern ra:byte
  46  0000              extern rb:byte
  47  0000              extern rc:byte
  48  0000              extern rd:byte
  49  0000              extern re:byte
  50  0000              extern rf:byte
  51  0000              extern rg:byte
  52  0000              extern rh:byte
  53  0000              extern _Crom2Prom:near
  54  0000              extern _Crom2PromNext:near
  55  0000              
  56  0000              RAMBANK 0 @BITDATASEC, @BITDATASEC1
  57  0000              @HCCINIT	.section 'data'
  58  0000              @HCCINIT0	.section 'data'
  59  0000              @BITDATASEC	 .section 'data'
"File: Main.ASM      Assembler  Version HGASM0202      Page 2

  60  0000              @BITDATASEC1	 .section 'data'
  61  0000              
  62  0000              #pragma debug scope 1 1
  63  0000              	extern __DELAY3:near
  64  0000              	extern __DELAYX3:near
  65  0000              	extern __DELAYX6:near
  66  0000              	extern __DELAYY5:near
  67  0000              	extern __DELAYY3:near
  68  0000              	extern _builtin_holtek_delay_2:byte
  69  0000              ___pa equ [20]
  70  0000              public _main
  71  0000              #pragma debug scope 2 1

  18  0000              #line 18 "c:\users\tech\desktop\powerlinetransceiver\Main\Main.c"
  18  0000              IFDEF WITH_DEFAULT_STARTUP
  18  0000              extern _main_initial0:near
  18  0000              extern _main_startup:near
  18  0000              ENDIF
  18  0000              
  18  0000              ROMBANK 0 @start
  18  0000              @start .section com_l 'code'
  18  0000              _main_startup1:
  18  0000              @start .section com_e 'code'
  18  0000  2800     R  	jmp _main
  18  0001              
  18  0000              _main .section 'code'
  18  0000              _main proc
  18  0000  0004[           local _main_2 db 4 dup(?)
            00
            ]
  18  0004              #pragma debug variable 8 2 _main_2+1 "pushButtonState"
  18  0004              #pragma debug variable 12 2 _main_2+2 "PushButtonCounter"
  18  0004              #pragma debug variable 8 2 _main_2+0 "AddresssValid"
  23  0004              #line 23 "c:\users\tech\desktop\powerlinetransceiver\Main\Main.c"
  23  0000  2000     E  	call _S_RCC_Init
  24  0001              #line 24 "c:\users\tech\desktop\powerlinetransceiver\Main\Main.c"
  24  0001  2000     E  	call _ADCInit
  25  0002              #line 25 "c:\users\tech\desktop\powerlinetransceiver\Main\Main.c"
  25  0002  2000     E  	call _S_GPIO_Init
  26  0003              #line 26 "c:\users\tech\desktop\powerlinetransceiver\Main\Main.c"
  26  0003  2000     E  	call _IntrruptInit
  27  0004              #line 27 "c:\users\tech\desktop\powerlinetransceiver\Main\Main.c"
  27  0004  0F80        	mov a,-128
  27  0005  0080     E  	mov _UART_Init_2[0],a
  27  0006  0F25        	mov a,37
  27  0007  0080     E  	mov _UART_Init_2[1],a
  27  0008  2000     E  	call _UART_Init
  28  0009              #line 28 "c:\users\tech\desktop\powerlinetransceiver\Main\Main.c"
  28  0009  2000     E  	call _PLT0Init
  29  000A              #line 29 "c:\users\tech\desktop\powerlinetransceiver\Main\Main.c"
  29  000A  2000     E  	call _PLT1Init
  30  000B              #line 30 "c:\users\tech\desktop\powerlinetransceiver\Main\Main.c"
  30  000B  2000     E  	call _PLTAInit
  31  000C              #line 31 "c:\users\tech\desktop\powerlinetransceiver\Main\Main.c"
  31  000C  2000     E  	call _InitSmokeDetection
  41  000D              #line 41 "c:\users\tech\desktop\powerlinetransceiver\Main\Main.c"
  41  000D  1F00     R  	clr _main_2[0]
  40  000E              #line 40 "c:\users\tech\desktop\powerlinetransceiver\Main\Main.c"
  40  000E  1F00     R  	clr _main_2[2]
  40  000F  1F00     R  	clr _main_2[3]
"File: Main.c        Assembler  Version HGASM0202      Page 3

  39  0010              #line 39 "c:\users\tech\desktop\powerlinetransceiver\Main\Main.c"
  39  0010  1F00     R  	clr _main_2[1]
  39  0011              _L2:
  39  0011              #pragma debug scope 3 2
  39  0011              ;begin block, line: 39.-1
  56  0011              #line 56 "c:\users\tech\desktop\powerlinetransceiver\Main\Main.c"
  56  0011  3C14        	sz [20].0
  56  0012  2800     R  	jmp _L3
  59  0013              #line 59 "c:\users\tech\desktop\powerlinetransceiver\Main\Main.c"
  59  0013  1480     R  	inc _main_2[2]
  59  0014  3D0A        	sz z
  59  0015  1480     R  	inc _main_2[3]
  58  0016              #line 58 "c:\users\tech\desktop\powerlinetransceiver\Main\Main.c"
  58  0016  0F01        	mov a,1
  58  0017  0080     R  	mov _main_2[1],a
  58  0018  2800     R  	jmp _L4
  58  0019              _L3:
  63  0019              #line 63 "c:\users\tech\desktop\powerlinetransceiver\Main\Main.c"
  63  0019  1700     R  	sdza _main_2[1]
  63  001A  2800     R  	jmp _L9
  63  001B  0F0A        	mov a,10
  63  001C  0200     R  	sub a,_main_2[2]
  63  001D  0F00        	mov a,0
  63  001E  1200     R  	sbc a,_main_2[3]
  63  001F  3C0A        	sz c
  63  0020  2800     R  	jmp _L4
  68  0021              #line 68 "c:\users\tech\desktop\powerlinetransceiver\Main\Main.c"
  68  0021  1F00     E  	clr ra
  68  0022  3A14        	snz [20].4
  68  0023  3000     E  	set ra.4
  68  0024  3614        	clr [20].4
  68  0025  0700     E  	mov a,ra
  68  0026  0594        	orm a,[20]
  69  0027              #line 69 "c:\users\tech\desktop\powerlinetransceiver\Main\Main.c"
  69  0027  0F41        	mov a,65
  69  0028  2000     E  	call _UART_Transmit
  70  0029              #line 70 "c:\users\tech\desktop\powerlinetransceiver\Main\Main.c"
  70  0029  0F44        	mov a,68
  70  002A  2000     E  	call _UART_Transmit
  71  002B              #line 71 "c:\users\tech\desktop\powerlinetransceiver\Main\Main.c"
  71  002B  0F52        	mov a,82
  71  002C  2000     E  	call _UART_Transmit
  72  002D              #line 72 "c:\users\tech\desktop\powerlinetransceiver\Main\Main.c"
  72  002D  0F52        	mov a,82
  72  002E  2000     E  	call _UART_Transmit
  73  002F              #line 73 "c:\users\tech\desktop\powerlinetransceiver\Main\Main.c"
  73  002F  0F45        	mov a,69
  73  0030  2000     E  	call _UART_Transmit
  74  0031              #line 74 "c:\users\tech\desktop\powerlinetransceiver\Main\Main.c"
  74  0031  0F53        	mov a,83
  74  0032  2000     E  	call _UART_Transmit
  75  0033              #line 75 "c:\users\tech\desktop\powerlinetransceiver\Main\Main.c"
  75  0033  0F53        	mov a,83
  75  0034  2000     E  	call _UART_Transmit
  76  0035              #line 76 "c:\users\tech\desktop\powerlinetransceiver\Main\Main.c"
  76  0035  0F3D        	mov a,61
  76  0036  2000     E  	call _UART_Transmit
  77  0037              #line 77 "c:\users\tech\desktop\powerlinetransceiver\Main\Main.c"
  77  0037  0F05        	mov a,5
  77  0038  2000     E  	call _UART_Transmit
"File: Main.c        Assembler  Version HGASM0202      Page 4

  78  0039              #line 78 "c:\users\tech\desktop\powerlinetransceiver\Main\Main.c"
  78  0039  0F20        	mov a,32
  78  003A  2000     E  	call _UART_Transmit
  79  003B              #line 79 "c:\users\tech\desktop\powerlinetransceiver\Main\Main.c"
  79  003B  0F53        	mov a,83
  79  003C  2000     E  	call _UART_Transmit
  80  003D              #line 80 "c:\users\tech\desktop\powerlinetransceiver\Main\Main.c"
  80  003D  0F54        	mov a,84
  80  003E  2000     E  	call _UART_Transmit
  81  003F              #line 81 "c:\users\tech\desktop\powerlinetransceiver\Main\Main.c"
  81  003F  0F41        	mov a,65
  81  0040  2000     E  	call _UART_Transmit
  82  0041              #line 82 "c:\users\tech\desktop\powerlinetransceiver\Main\Main.c"
  82  0041  0F54        	mov a,84
  82  0042  2000     E  	call _UART_Transmit
  83  0043              #line 83 "c:\users\tech\desktop\powerlinetransceiver\Main\Main.c"
  83  0043  0F45        	mov a,69
  83  0044  2000     E  	call _UART_Transmit
  84  0045              #line 84 "c:\users\tech\desktop\powerlinetransceiver\Main\Main.c"
  84  0045  0F3D        	mov a,61
  84  0046  2000     E  	call _UART_Transmit
  85  0047              #line 85 "c:\users\tech\desktop\powerlinetransceiver\Main\Main.c"
  85  0047  0F30        	mov a,48
  85  0048  2000     E  	call _UART_Transmit
  86  0049              #line 86 "c:\users\tech\desktop\powerlinetransceiver\Main\Main.c"
  86  0049  0F0A        	mov a,10
  86  004A  2000     E  	call _UART_Transmit
  65  004B              #line 65 "c:\users\tech\desktop\powerlinetransceiver\Main\Main.c"
  65  004B  1F00     R  	clr _main_2[2]
  65  004C  1F00     R  	clr _main_2[3]
  65  004D              _L9:
  65  004D  1F00     R  	clr _main_2[1]
  65  004E              _L4:
  90  004E              #line 90 "c:\users\tech\desktop\powerlinetransceiver\Main\Main.c"
  90  004E              ;# 90 "c:\users\tech\desktop\powerlinetransceiver\Main\Main.c" 1
  90  004E  0001        	clr wdt
  91  004F              #line 91 "c:\users\tech\desktop\powerlinetransceiver\Main\Main.c"
  91  004F  2000     E  	call _UART_ReceiveNonBlocking
  91  0050  0080     E  	mov rb,a
  91  0051  1F00     E  	clr rc
  91  0052  3C00     E  	sz rb.7
  91  0053  1F80     E  	set rc
  92  0054              #line 92 "c:\users\tech\desktop\powerlinetransceiver\Main\Main.c"
  92  0054              ;# 92 "c:\users\tech\desktop\powerlinetransceiver\Main\Main.c" 1
  92  0054  0001        	clr wdt
  93  0055              #line 93 "c:\users\tech\desktop\powerlinetransceiver\Main\Main.c"
  93  0055  0700     E  	mov a,rb
  93  0056  0500     E  	or a,rc
  93  0057  3D0A        	sz z
  93  0058  2800     R  	jmp _L2
  95  0059              #line 95 "c:\users\tech\desktop\powerlinetransceiver\Main\Main.c"
  95  0059  0700     E  	mov a,rb
  95  005A  0C05        	xor a,5
  95  005B  0500     E  	or a,rc
  95  005C  390A        	snz z
  95  005D  2800     R  	jmp _L19
  95  005E              _L10:
  95  005E  0F01        	mov a,1
  95  005F  0080     R  	mov _main_2[0],a
  95  0060  2800     R  	jmp _L2
"File: Main.c        Assembler  Version HGASM0202      Page 5

  95  0061              _L19:
  95  0061  0700     E  	mov a,rb
  95  0062  0C5A        	xor a,90
  95  0063  0500     E  	or a,rc
  95  0064  3D0A        	sz z
  95  0065  2800     R  	jmp _L10
 100  0066              #line 100 "c:\users\tech\desktop\powerlinetransceiver\Main\Main.c"
 100  0066  1E00     R  	snz _main_2[0]
 100  0067  2800     R  	jmp _L7
 100  0068  0700     E  	mov a,rb
 100  0069  0C4F        	xor a,79
 100  006A  0500     E  	or a,rc
 100  006B  390A        	snz z
 100  006C  2800     R  	jmp _L6
 101  006D              #line 101 "c:\users\tech\desktop\powerlinetransceiver\Main\Main.c"
 101  006D  0F41        	mov a,65
 101  006E  2000     E  	call _UART_Transmit
 102  006F              #line 102 "c:\users\tech\desktop\powerlinetransceiver\Main\Main.c"
 102  006F  0F44        	mov a,68
 102  0070  2000     E  	call _UART_Transmit
 103  0071              #line 103 "c:\users\tech\desktop\powerlinetransceiver\Main\Main.c"
 103  0071  0F52        	mov a,82
 103  0072  2000     E  	call _UART_Transmit
 104  0073              #line 104 "c:\users\tech\desktop\powerlinetransceiver\Main\Main.c"
 104  0073  0F52        	mov a,82
 104  0074  2000     E  	call _UART_Transmit
 105  0075              #line 105 "c:\users\tech\desktop\powerlinetransceiver\Main\Main.c"
 105  0075  0F45        	mov a,69
 105  0076  2000     E  	call _UART_Transmit
 106  0077              #line 106 "c:\users\tech\desktop\powerlinetransceiver\Main\Main.c"
 106  0077  0F53        	mov a,83
 106  0078  2000     E  	call _UART_Transmit
 107  0079              #line 107 "c:\users\tech\desktop\powerlinetransceiver\Main\Main.c"
 107  0079  0F53        	mov a,83
 107  007A  2000     E  	call _UART_Transmit
 108  007B              #line 108 "c:\users\tech\desktop\powerlinetransceiver\Main\Main.c"
 108  007B  0F3D        	mov a,61
 108  007C  2000     E  	call _UART_Transmit
 109  007D              #line 109 "c:\users\tech\desktop\powerlinetransceiver\Main\Main.c"
 109  007D  0F05        	mov a,5
 109  007E  2000     E  	call _UART_Transmit
 110  007F              #line 110 "c:\users\tech\desktop\powerlinetransceiver\Main\Main.c"
 110  007F  0F20        	mov a,32
 110  0080  2000     E  	call _UART_Transmit
 111  0081              #line 111 "c:\users\tech\desktop\powerlinetransceiver\Main\Main.c"
 111  0081  0F53        	mov a,83
 111  0082  2000     E  	call _UART_Transmit
 112  0083              #line 112 "c:\users\tech\desktop\powerlinetransceiver\Main\Main.c"
 112  0083  0F54        	mov a,84
 112  0084  2000     E  	call _UART_Transmit
 113  0085              #line 113 "c:\users\tech\desktop\powerlinetransceiver\Main\Main.c"
 113  0085  0F41        	mov a,65
 113  0086  2000     E  	call _UART_Transmit
 114  0087              #line 114 "c:\users\tech\desktop\powerlinetransceiver\Main\Main.c"
 114  0087  0F54        	mov a,84
 114  0088  2000     E  	call _UART_Transmit
 115  0089              #line 115 "c:\users\tech\desktop\powerlinetransceiver\Main\Main.c"
 115  0089  0F45        	mov a,69
 115  008A  2000     E  	call _UART_Transmit
 116  008B              #line 116 "c:\users\tech\desktop\powerlinetransceiver\Main\Main.c"
"File: Main.c        Assembler  Version HGASM0202      Page 6

 116  008B  0F3D        	mov a,61
 116  008C  2000     E  	call _UART_Transmit
 117  008D              #line 117 "c:\users\tech\desktop\powerlinetransceiver\Main\Main.c"
 117  008D  0F31        	mov a,49
 117  008E  2000     E  	call _UART_Transmit
 118  008F              #line 118 "c:\users\tech\desktop\powerlinetransceiver\Main\Main.c"
 118  008F  0F0A        	mov a,10
 118  0090  2000     E  	call _UART_Transmit
 120  0091              #line 120 "c:\users\tech\desktop\powerlinetransceiver\Main\Main.c"
 120  0091  3214        	set [20].4
 120  0092  2800     R  	jmp _L7
 120  0093              _L6:
 123  0093              #line 123 "c:\users\tech\desktop\powerlinetransceiver\Main\Main.c"
 123  0093  0700     E  	mov a,rb
 123  0094  0C43        	xor a,67
 123  0095  0500     E  	or a,rc
 123  0096  390A        	snz z
 123  0097  2800     R  	jmp _L2
 125  0098              #line 125 "c:\users\tech\desktop\powerlinetransceiver\Main\Main.c"
 125  0098  0F41        	mov a,65
 125  0099  2000     E  	call _UART_Transmit
 126  009A              #line 126 "c:\users\tech\desktop\powerlinetransceiver\Main\Main.c"
 126  009A  0F44        	mov a,68
 126  009B  2000     E  	call _UART_Transmit
 127  009C              #line 127 "c:\users\tech\desktop\powerlinetransceiver\Main\Main.c"
 127  009C  0F52        	mov a,82
 127  009D  2000     E  	call _UART_Transmit
 128  009E              #line 128 "c:\users\tech\desktop\powerlinetransceiver\Main\Main.c"
 128  009E  0F52        	mov a,82
 128  009F  2000     E  	call _UART_Transmit
 129  00A0              #line 129 "c:\users\tech\desktop\powerlinetransceiver\Main\Main.c"
 129  00A0  0F45        	mov a,69
 129  00A1  2000     E  	call _UART_Transmit
 130  00A2              #line 130 "c:\users\tech\desktop\powerlinetransceiver\Main\Main.c"
 130  00A2  0F53        	mov a,83
 130  00A3  2000     E  	call _UART_Transmit
 131  00A4              #line 131 "c:\users\tech\desktop\powerlinetransceiver\Main\Main.c"
 131  00A4  0F53        	mov a,83
 131  00A5  2000     E  	call _UART_Transmit
 132  00A6              #line 132 "c:\users\tech\desktop\powerlinetransceiver\Main\Main.c"
 132  00A6  0F3D        	mov a,61
 132  00A7  2000     E  	call _UART_Transmit
 133  00A8              #line 133 "c:\users\tech\desktop\powerlinetransceiver\Main\Main.c"
 133  00A8  0F05        	mov a,5
 133  00A9  2000     E  	call _UART_Transmit
 134  00AA              #line 134 "c:\users\tech\desktop\powerlinetransceiver\Main\Main.c"
 134  00AA  0F20        	mov a,32
 134  00AB  2000     E  	call _UART_Transmit
 135  00AC              #line 135 "c:\users\tech\desktop\powerlinetransceiver\Main\Main.c"
 135  00AC  0F53        	mov a,83
 135  00AD  2000     E  	call _UART_Transmit
 136  00AE              #line 136 "c:\users\tech\desktop\powerlinetransceiver\Main\Main.c"
 136  00AE  0F54        	mov a,84
 136  00AF  2000     E  	call _UART_Transmit
 137  00B0              #line 137 "c:\users\tech\desktop\powerlinetransceiver\Main\Main.c"
 137  00B0  0F41        	mov a,65
 137  00B1  2000     E  	call _UART_Transmit
 138  00B2              #line 138 "c:\users\tech\desktop\powerlinetransceiver\Main\Main.c"
 138  00B2  0F54        	mov a,84
 138  00B3  2000     E  	call _UART_Transmit
"File: Main.c        Assembler  Version HGASM0202      Page 7

 139  00B4              #line 139 "c:\users\tech\desktop\powerlinetransceiver\Main\Main.c"
 139  00B4  0F45        	mov a,69
 139  00B5  2000     E  	call _UART_Transmit
 140  00B6              #line 140 "c:\users\tech\desktop\powerlinetransceiver\Main\Main.c"
 140  00B6  0F3D        	mov a,61
 140  00B7  2000     E  	call _UART_Transmit
 141  00B8              #line 141 "c:\users\tech\desktop\powerlinetransceiver\Main\Main.c"
 141  00B8  0F30        	mov a,48
 141  00B9  2000     E  	call _UART_Transmit
 142  00BA              #line 142 "c:\users\tech\desktop\powerlinetransceiver\Main\Main.c"
 142  00BA  0F0A        	mov a,10
 142  00BB  2000     E  	call _UART_Transmit
 144  00BC              #line 144 "c:\users\tech\desktop\powerlinetransceiver\Main\Main.c"
 144  00BC  3614        	clr [20].4
 144  00BD              _L7:
 144  00BD              #pragma debug scope 2 1
  18  00BD              #line 18 "c:\users\tech\desktop\powerlinetransceiver\Main\Main.c"
  18  00BD  1F00     R  	clr _main_2[0]
  18  00BE  2800     R  	jmp _L2
  18  00BF  2800     R  	jmp $
  18  00C0              _main endp
  18  00C0              
  18  00C0              @dummy endp
  18  00C0              
  18  00C0              #line 18 "c:\users\tech\desktop\powerlinetransceiver\Main\Main.c"
  18  00C0              #pragma debug scope 1 1
  18  00C0              public _UART_ReceiveString
  18  00C0              #pragma debug scope 4 1
 225  00C0              #line 225 "c:\users\tech\desktop\powerlinetransceiver\Main\Main.c"
 225  0000              _UART_ReceiveString .section 'code'
 225  0000              _UART_ReceiveString proc
 225  0000  0002[           local _UART_ReceiveString_2 db 2 dup(?)	; 0,2
            00
            ]
 229  0002              #line 229 "c:\users\tech\desktop\powerlinetransceiver\Main\Main.c"
 229  0000  0700     R  	mov a,___index_2081[0]
 229  0001  0080     R  	mov _UART_ReceiveString_2[0],a
 229  0002  1F00     R  	clr _UART_ReceiveString_2[1]
 229  0003  3F85        	sz acc.7
 229  0004  1F80     R  	set _UART_ReceiveString_2[1]
 229  0005  2000     E  	call _UART_ReceiveNonBlocking
 229  0006  0080     E  	mov ra,a
 229  0007  0F00     R  	mov a,low offset ___resiveBuffer_2080
 229  0008  0300     R  	add a,_UART_ReceiveString_2[0]
 229  0009  0083        	mov mp,a
 229  000A  0F00     R  	mov a,high offset ___resiveBuffer_2080
 229  000B  1300     R  	adc a,_UART_ReceiveString_2[1]
 229  000C  0084        	mov sbp,a
 229  000D  0700     E  	mov a,ra
 229  000E  0082        	mov ir,a
 230  000F              #line 230 "c:\users\tech\desktop\powerlinetransceiver\Main\Main.c"
 230  000F  1E00     R  	snz ___resiveBuffer_2080[0]
 230  0010  2800     R  	jmp _L21
 231  0011              #line 231 "c:\users\tech\desktop\powerlinetransceiver\Main\Main.c"
 231  0011  1480     R  	inc ___index_2081[0]
 232  0012              #line 232 "c:\users\tech\desktop\powerlinetransceiver\Main\Main.c"
 232  0012  0F01        	mov a,1
 232  0013  0080     R  	mov ___DataValid_2082[0],a
 232  0014  2800     R  	jmp _L23
 232  0015              _L21:
"File: Main.c        Assembler  Version HGASM0202      Page 8

 234  0015              #line 234 "c:\users\tech\desktop\powerlinetransceiver\Main\Main.c"
 234  0015  1E00     R  	snz ___DataValid_2082[0]
 234  0016  2800     R  	jmp _L23
 236  0017              #line 236 "c:\users\tech\desktop\powerlinetransceiver\Main\Main.c"
 236  0017  0F00     R  	mov a,low offset ___resiveBuffer_2080
 236  0018  0080     E  	mov ra,a
 236  0019  0F00     R  	mov a,high offset ___resiveBuffer_2080
 236  001A  0080     E  	mov rb,a
 236  001B  2800     R  	jmp _L20
 236  001C              _L23:
 236  001C              _L20:
 236  001C  0003        	ret
 236  001D              _UART_ReceiveString endp
 236  001D              #line 236 "c:\users\tech\desktop\powerlinetransceiver\Main\Main.c"
 236  001D              #pragma debug scope 1 1
 236  0000              @HCCINIT	.section 'data'
 228  0000              #line 228 "c:\users\tech\desktop\powerlinetransceiver\Main\Main.c"
 228  0000              @HCCINIT___DataValid_2082 .section 'data'
 228  0000              ___DataValid_2082 label byte
 228  0000              #pragma debug variable 7 4 ___DataValid_2082 "DataValid"
 228  0000              	db 0
 228  0000              @ROMDATA_BASE .section inpage 'code'
 228  0000              	db 0
 228  0001              @HCCINIT___DataValid_2082 .section 'data'
 226  0001              #line 226 "c:\users\tech\desktop\powerlinetransceiver\Main\Main.c"
 226  0000              @HCCINIT___resiveBuffer_2080 .section 'data'
 226  0000              ___resiveBuffer_2080 label byte
 226  0000              #pragma debug array 42 8 10 1
 226  0000              #pragma debug array 42 8 10 1
 226  0000              #pragma debug variable 42 4 ___resiveBuffer_2080 "resiveBuffer"
 226  0000              	db 0
 226  0001              @ROMDATA_BASE .section inpage 'code'
 226  0001              	db 0
 226  0001              @HCCINIT___resiveBuffer_2080 .section 'data'
 226  0001              	db 0
 226  0001              @ROMDATA_BASE .section inpage 'code'
 226  0001              	db 0
 226  0002              @HCCINIT___resiveBuffer_2080 .section 'data'
 226  0002              	db 0
 226  0002              @ROMDATA_BASE .section inpage 'code'
 226  0002              	db 0
 226  0003              @HCCINIT___resiveBuffer_2080 .section 'data'
 226  0003              	db 0
 226  0002              @ROMDATA_BASE .section inpage 'code'
 226  0002              	db 0
 226  0004              @HCCINIT___resiveBuffer_2080 .section 'data'
 226  0004              	db 0
 226  0003              @ROMDATA_BASE .section inpage 'code'
 226  0003              	db 0
 226  0005              @HCCINIT___resiveBuffer_2080 .section 'data'
 226  0005              	db 0
 226  0003              @ROMDATA_BASE .section inpage 'code'
 226  0003              	db 0
 226  0006              @HCCINIT___resiveBuffer_2080 .section 'data'
 226  0006              	db 0
 226  0004              @ROMDATA_BASE .section inpage 'code'
 226  0004              	db 0
 226  0007              @HCCINIT___resiveBuffer_2080 .section 'data'
 226  0007              	db 0
 226  0004              @ROMDATA_BASE .section inpage 'code'
"File: Main.c        Assembler  Version HGASM0202      Page 9

 226  0004              	db 0
 226  0008              @HCCINIT___resiveBuffer_2080 .section 'data'
 226  0008              	db 0
 226  0005              @ROMDATA_BASE .section inpage 'code'
 226  0005              	db 0
 226  0009              @HCCINIT___resiveBuffer_2080 .section 'data'
 226  0009              	db 0
 226  0005              @ROMDATA_BASE .section inpage 'code'
 226  0005              	db 0
 226  000A              @HCCINIT___resiveBuffer_2080 .section 'data'
 227  000A              #line 227 "c:\users\tech\desktop\powerlinetransceiver\Main\Main.c"
 227  0000              @HCCINIT___index_2081 .section 'data'
 227  0000              ___index_2081 label byte
 227  0000              #pragma debug variable 7 4 ___index_2081 "index"
 227  0000              	db 0
 227  0006              @ROMDATA_BASE .section inpage 'code'
 227  0006              	db 0
 227  0001              @HCCINIT___index_2081 .section 'data'
 227  0001              public _buffer_index
  13  0001              #line 13 "c:\users\tech\desktop\powerlinetransceiver\Main\Main.c"
  13  0000              @HCCINIT_buffer_index .section 'data'
  13  0000              _buffer_index label byte
  13  0000              #pragma debug variable 11 1 _buffer_index "buffer_index"
  13  0000              	db 0
  13  0006              @ROMDATA_BASE .section inpage 'code'
  13  0006              	db 0
  13  0001              @HCCINIT_buffer_index .section 'data'
  13  0001              	db 0
  13  0007              @ROMDATA_BASE .section inpage 'code'
  13  0007              	db 0
  13  0002              @HCCINIT_buffer_index .section 'data'
  12  0002              #line 12 "c:\users\tech\desktop\powerlinetransceiver\Main\Main.c"
  12  0002              public _buffer
  12  0000              @HCCINIT0_buffer .section 'data'
  12  0000  0067[       _buffer	db 103 dup(0)
            00
            ]
  12  0067              #pragma debug array 43 7 103 1
  12  0067              #pragma debug array 43 7 103 1
  12  0067              #pragma debug variable 43 1 _buffer "buffer"
  12  0067              
  12  0000              @HCCINIT .section 'data'
   9  0000              #line 9 "c:\users\tech\desktop\powerlinetransceiver\Main\Main.c"
   9  0000              public _temp
   9  0000              @HCCINIT0_temp .section 'data'
   9  0000  0002[       _temp	db 2 dup(0)
            00
            ]
   9  0002              #pragma debug variable 12 1 _temp "temp"
   9  0002              
   9  0000              @HCCINIT .section 'data'
   8  0000              #line 8 "c:\users\tech\desktop\powerlinetransceiver\Main\Main.c"
   8  0000              public _tx_busy
   8  0000              @HCCINIT0_tx_busy .section 'data'
   8  0000              _tx_busy	db 0
   8  0001              #pragma debug variable 7 1 _tx_busy "tx_busy"
   8  0001              
   8  0000              @HCCINIT .section 'data'
   7  0000              #line 7 "c:\users\tech\desktop\powerlinetransceiver\Main\Main.c"
   7  0000              public _frame
"File: Main.c        Assembler  Version HGASM0202      Page 10

   7  0000              @HCCINIT0_frame .section 'data'
   7  0000  0002[       _frame	db 2 dup(0)
            00
            ]
   7  0002              #pragma debug pointer 44 10 1
   7  0002              #pragma debug pointer 44 10 1
   7  0002              #pragma debug variable 44 1 _frame "frame"
   7  0002              
   7  0000              @HCCINIT .section 'data'
   7  0000              #pragma debug struct_end
   7  0000              #pragma debug struct_end
   7  0000              #pragma debug union_end
   7  0000              #pragma debug union_end
   7  0000              #pragma debug variable 46 1 ___pa "__pa" 1
  18  0000              #line 18 "c:\users\tech\desktop\powerlinetransceiver\Main\Main.c"
  18  0000              @code .section at 0 'code'
  18  0000  2800     R  	jmp _main_startup1
  18  0001              
  18  0001              extern _S_RCC_Init:near
  18  0001              extern _ADCInit:near
  18  0001              extern _S_GPIO_Init:near
  18  0001              extern _IntrruptInit:near
  18  0001              extern _UART_Init_2:byte
  18  0001              extern _UART_Init:near
  18  0001              extern _PLT0Init:near
  18  0001              extern _PLT1Init:near
  18  0001              extern _PLTAInit:near
  18  0001              extern _InitSmokeDetection:near
  18  0001              extern _UART_Transmit:near
  18  0001              extern _UART_ReceiveNonBlocking:near
  18  0001              
  18  0001              ; 
  18  0001              ; Generated by holtek-gcc v3.19, Mon Nov 04 18:32:23 2024
  18  0001              ; Rebuild 718
  18  0001              ; end of file


        0 Errors, 0