"File: Main.c        Assembler  Version HGASM0202      Page 1


   1  0000              ; Generated by holtek-gcc v3.19, Sat Nov 23 12:34:34 2024
   2  0000              ; 
   3  0000              ; Configuration:
   4  0000              ;       with long instruction
   5  0000              ;       Single ROM, Multi-RAM
   6  0000              ;       bits_per_rom_unit:16
   7  0000              ;       with mp1
   8  0000              ;       with tbhp, address(0x9)
   9  0000              ;          Use tabrd-const
  10  0000              ;       
  11  0000              ; SFR address of long-instruction arch:
  12  0000              ;    mp0 = -1,1,0
  13  0000              ;    mp1 = 4,3,2
  14  0000              ;    mp2 = 14,13,12
  15  0000              ;    tbp = 9,7,8
  16  0000              ;    acc = 5
  17  0000              ;    pcl = 6
  18  0000              ;    status = 10
  19  0000              ;    bp = 11
  20  0000              ;    intc = 72
  21  0000              ;       
  22  0000              ;       
  23  0000              ; use 'tabrdc' instead of 'tabrd'
  24  0000              ;       
  25  0000              
  26  0000              #pragma translator "holtek-gcc 4.6.4" "3.19" "build 20130711"
  27  0000              ; Rebuild 718
  28  0000              
  29  0000              ir equ [2]
  30  0000              mp equ [3]
  31  0000              sbp equ [4]
  32  0000              acc equ [5]
  33  0000              bp equ [11]
  34  0000              tblp equ [7]
  35  0000              tbhp equ [9]
  36  0000              status equ [10]
  37  0000              c equ [10].0
  38  0000              ac equ [10].1
  39  0000              z equ [10].2
  40  0000              ov equ [10].3
  41  0000              cz equ [10].6
  42  0000              sc equ [10].7
  43  0000              intc equ [72]
  44  0000              
  45  0000              extern ra:byte
  46  0000              extern rb:byte
  47  0000              extern rc:byte
  48  0000              extern rd:byte
  49  0000              extern re:byte
  50  0000              extern rf:byte
  51  0000              extern rg:byte
  52  0000              extern rh:byte
  53  0000              extern _Crom2Prom:near
  54  0000              extern _Crom2PromNext:near
  55  0000              
  56  0000              RAMBANK 0 @BITDATASEC, @BITDATASEC1
  57  0000              @HCCINIT	.section 'data'
  58  0000              @HCCINIT0	.section 'data'
  59  0000              @BITDATASEC	 .section 'data'
"File: Main.ASM      Assembler  Version HGASM0202      Page 2

  60  0000              @BITDATASEC1	 .section 'data'
  61  0000              
  62  0000              #pragma debug scope 1 1
  63  0000              	extern __DELAY3:near
  64  0000              	extern __DELAYX3:near
  65  0000              	extern __DELAYX6:near
  66  0000              	extern __DELAYY5:near
  67  0000              	extern __DELAYY3:near
  68  0000              	extern _builtin_holtek_delay_2:byte
  69  0000              ___pa equ [20]
  70  0000              public _main
  71  0000              #pragma debug scope 2 1

  42  0000              #line 42 "c:\users\tech\desktop\powerlinetransceiver\Main\Main.c"
  42  0000              IFDEF WITH_DEFAULT_STARTUP
  42  0000              extern _main_initial0:near
  42  0000              extern _main_startup:near
  42  0000              ENDIF
  42  0000              
  42  0000              ROMBANK 0 @start
  42  0000              @start .section com_l 'code'
  42  0000              _main_startup1:
  42  0000              @start .section com_e 'code'
  42  0000  2800     R  	jmp _main
  42  0001              
  42  0000              _main .section 'code'
  42  0000              _main proc
  42  0000  0002[           local _main_2 db 2 dup(?)
            00
            ]
  42  0002              #pragma debug variable 12 2 _main_2+0 "Data"
  45  0002              #line 45 "c:\users\tech\desktop\powerlinetransceiver\Main\Main.c"
  45  0000  2000     E  	call _S_RCC_Init
  47  0001              #line 47 "c:\users\tech\desktop\powerlinetransceiver\Main\Main.c"
  47  0001  2000     E  	call _S_GPIO_Init
  48  0002              #line 48 "c:\users\tech\desktop\powerlinetransceiver\Main\Main.c"
  48  0002  2000     E  	call _IntrruptInit
  49  0003              #line 49 "c:\users\tech\desktop\powerlinetransceiver\Main\Main.c"
  49  0003  0F80        	mov a,-128
  49  0004  0080     E  	mov _UART_Init_2[0],a
  49  0005  0F25        	mov a,37
  49  0006  0080     E  	mov _UART_Init_2[1],a
  49  0007  2000     E  	call _UART_Init
  50  0008              #line 50 "c:\users\tech\desktop\powerlinetransceiver\Main\Main.c"
  50  0008  2000     E  	call _PLT0Init
  51  0009              #line 51 "c:\users\tech\desktop\powerlinetransceiver\Main\Main.c"
  51  0009  2000     E  	call _PLT1Init
  54  000A              #line 54 "c:\users\tech\desktop\powerlinetransceiver\Main\Main.c"
  54  000A  3614        	clr [20].4
  54  000B              _L11:
  54  000B              #pragma debug scope 3 2
  54  000B              ;begin block, line: 54.-1
  58  000B              #line 58 "c:\users\tech\desktop\powerlinetransceiver\Main\Main.c"
  58  000B  0714        	mov a,[20]
  58  000C  0080     E  	mov ra,a
  93  000D              #line 93 "c:\users\tech\desktop\powerlinetransceiver\Main\Main.c"
  93  000D              ;# 93 "c:\users\tech\desktop\powerlinetransceiver\Main\Main.c" 1
  93  000D  0001        	clr wdt
  94  000E              #line 94 "c:\users\tech\desktop\powerlinetransceiver\Main\Main.c"
  94  000E  2000     E  	call _UART_ReceiveNonBlocking
"File: Main.c        Assembler  Version HGASM0202      Page 3

  94  000F  0080     E  	mov ra,a
  94  0010  0700     E  	mov a,ra
  94  0011  0080     R  	mov _main_2[0],a
  94  0012  1F00     R  	clr _main_2[1]
  94  0013  3F85        	sz acc.7
  94  0014  1F80     R  	set _main_2[1]
  95  0015              #line 95 "c:\users\tech\desktop\powerlinetransceiver\Main\Main.c"
  95  0015              ;# 95 "c:\users\tech\desktop\powerlinetransceiver\Main\Main.c" 1
  95  0015  0001        	clr wdt
  97  0016              #line 97 "c:\users\tech\desktop\powerlinetransceiver\Main\Main.c"
  97  0016  0700     R  	mov a,_main_2[0]
  97  0017  0500     R  	or a,_main_2[1]
  97  0018  3D0A        	sz z
  97  0019  2800     R  	jmp _L3
  99  001A              #line 99 "c:\users\tech\desktop\powerlinetransceiver\Main\Main.c"
  99  001A  0700     E  	mov a,ra
  99  001B  2000     E  	call _UART_Transmit
 100  001C              #line 100 "c:\users\tech\desktop\powerlinetransceiver\Main\Main.c"
 100  001C  0700     R  	mov a,_main_2[0]
 100  001D  0C67        	xor a,103
 100  001E  0500     R  	or a,_main_2[1]
 100  001F  3D0A        	sz z
 100  0020  2800     R  	jmp _L4
 100  0021  0700     R  	mov a,_main_2[0]
 100  0022  0C5A        	xor a,90
 100  0023  0500     R  	or a,_main_2[1]
 100  0024  390A        	snz z
 100  0025  2800     R  	jmp _L5
 100  0026              _L4:
 102  0026              #line 102 "c:\users\tech\desktop\powerlinetransceiver\Main\Main.c"
 102  0026  0F01        	mov a,1
 102  0027  0080     R  	mov _AddresssValid[0],a
 102  0028              _L5:
 105  0028              #line 105 "c:\users\tech\desktop\powerlinetransceiver\Main\Main.c"
 105  0028  1E00     R  	snz _AddresssValid[0]
 105  0029  2800     R  	jmp _L3
 105  002A  0700     R  	mov a,_main_2[0]
 105  002B  0C4F        	xor a,79
 105  002C  0500     R  	or a,_main_2[1]
 105  002D  390A        	snz z
 105  002E  2800     R  	jmp _L6
 107  002F              #line 107 "c:\users\tech\desktop\powerlinetransceiver\Main\Main.c"
 107  002F              ;# 107 "c:\users\tech\desktop\powerlinetransceiver\Main\Main.c" 1
 107  002F              	IF 10000>263690
 107  002F              ;# 107 "c:\users\tech\desktop\powerlinetransceiver\Main\Main.c" 1
 107  002F              	ERRMESSAGE 'the value 10000of the argument exceeds the maxinum 263690'
 107  002F              	ENDIF
 107  002F              ;# 107 "c:\users\tech\desktop\powerlinetransceiver\Main\Main.c" 1
 107  002F              	IF 10000<0
 107  002F              ;# 107 "c:\users\tech\desktop\powerlinetransceiver\Main\Main.c" 1
 107  002F              	ERRMESSAGE 'the value 10000 of the argument exceeds the mininum 0'
 107  002F              	ENDIF
 107  002F              ;# 107 "c:\users\tech\desktop\powerlinetransceiver\Main\Main.c" 1
 107  002F              	IF 10000==0
 107  002F              ;# 107 "c:\users\tech\desktop\powerlinetransceiver\Main\Main.c" 1
 107  002F              	JMP $
 107  002F              	ENDIF
 107  002F              ;# 107 "c:\users\tech\desktop\powerlinetransceiver\Main\Main.c" 1
 107  002F              	IF 10000==1
 107  002F              ;# 107 "c:\users\tech\desktop\powerlinetransceiver\Main\Main.c" 1
"File: Main.c        Assembler  Version HGASM0202      Page 4

 107  002F              	NOP
 107  002F              	ENDIF
 107  002F              ;# 107 "c:\users\tech\desktop\powerlinetransceiver\Main\Main.c" 1
 107  002F              	IF 10000==2
 107  002F              ;# 107 "c:\users\tech\desktop\powerlinetransceiver\Main\Main.c" 1
 107  002F              	NOP
 107  002F              ;# 107 "c:\users\tech\desktop\powerlinetransceiver\Main\Main.c" 1
 107  002F              	NOP
 107  002F              	ENDIF
 107  002F              ;# 107 "c:\users\tech\desktop\powerlinetransceiver\Main\Main.c" 1
 107  002F              	IF 10000==3
 107  002F              ;# 107 "c:\users\tech\desktop\powerlinetransceiver\Main\Main.c" 1
 107  002F              	NOP
 107  002F              ;# 107 "c:\users\tech\desktop\powerlinetransceiver\Main\Main.c" 1
 107  002F              	NOP
 107  002F              ;# 107 "c:\users\tech\desktop\powerlinetransceiver\Main\Main.c" 1
 107  002F              	NOP
 107  002F              	ENDIF
 107  002F              ;# 107 "c:\users\tech\desktop\powerlinetransceiver\Main\Main.c" 1
 107  002F              	IF (10000<8) AND (10000>3)
 107  002F              ;# 107 "c:\users\tech\desktop\powerlinetransceiver\Main\Main.c" 1
 107  002F              	CALL __DELAY3 + 7 -10000
 107  002F              	ENDIF
 107  002F              ;# 107 "c:\users\tech\desktop\powerlinetransceiver\Main\Main.c" 1
 107  002F              	IF (10000< 0404h) AND (10000>7)
 107  002F              ;# 107 "c:\users\tech\desktop\powerlinetransceiver\Main\Main.c" 1
 107  002F              	MOV A,10000/4-1
 107  002F              ;# 107 "c:\users\tech\desktop\powerlinetransceiver\Main\Main.c" 1
 107  002F              	CALL __DELAYX3 + 3 -(10000 MOD 4)
 107  002F              	ENDIF
 107  002F              ;# 107 "c:\users\tech\desktop\powerlinetransceiver\Main\Main.c" 1
 107  002F              	IF (10000< 0x40B) AND (10000> 0403h)
 107  002F              ;# 107 "c:\users\tech\desktop\powerlinetransceiver\Main\Main.c" 1
 107  002F              	MOV A,0 
 107  002F              ;# 107 "c:\users\tech\desktop\powerlinetransceiver\Main\Main.c" 1
 107  002F              	CALL __DELAYX6 + 0x40a -10000
 107  002F              	ENDIF
 107  002F              ;# 107 "c:\users\tech\desktop\powerlinetransceiver\Main\Main.c" 1
 107  002F              	IF (10000 >= 0x40b) AND ((((10000-9)%0402h)/4+1)>256)
 107  002F              ;# 107 "c:\users\tech\desktop\powerlinetransceiver\Main\Main.c" 1
 107  002F              	MOV A,(10000-9)/0402h
 107  002F              ;# 107 "c:\users\tech\desktop\powerlinetransceiver\Main\Main.c" 1
 107  002F              	MOV _builtin_holtek_delay_2,A
 107  002F              ;# 107 "c:\users\tech\desktop\powerlinetransceiver\Main\Main.c" 1
 107  002F              	MOV A,0
 107  002F              ;# 107 "c:\users\tech\desktop\powerlinetransceiver\Main\Main.c" 1
 107  002F              	CALL __DELAYY5 +5- (((10000-9)%0402h)%6)
 107  002F              	ENDIF
 107  002F              ;# 107 "c:\users\tech\desktop\powerlinetransceiver\Main\Main.c" 1
 107  002F              	IF (10000 >= 0x40b) AND ((((10000-9)%0402h)/4+1)<=256)
 107  002F              ;# 107 "c:\users\tech\desktop\powerlinetransceiver\Main\Main.c" 1
 107  002F  0F09        	MOV A,(10000-9)/0402h
 107  0030              ;# 107 "c:\users\tech\desktop\powerlinetransceiver\Main\Main.c" 1
 107  0030  0080     E  	MOV _builtin_holtek_delay_2,A
 107  0031              ;# 107 "c:\users\tech\desktop\powerlinetransceiver\Main\Main.c" 1
 107  0031  0FBE        	MOV A,((10000-9)%0402h)/4+1
 107  0032              ;# 107 "c:\users\tech\desktop\powerlinetransceiver\Main\Main.c" 1
 107  0032  2000     E  	CALL __DELAYY3 +3-(((10000-9)%0402h)%4)
 107  0033              	ENDIF
 108  0033              #line 108 "c:\users\tech\desktop\powerlinetransceiver\Main\Main.c"
"File: Main.c        Assembler  Version HGASM0202      Page 5

 108  0033  2000     E  	call _PLTAInit
 116  0034              #line 116 "c:\users\tech\desktop\powerlinetransceiver\Main\Main.c"
 116  0034  1F00     E  	clr _builtin_holtek_udivmodhi4_2[6]
 116  0035  0700     R  	mov a,_situation[2]  
 116  0036  0080     E  	mov _builtin_holtek_udivmodhi4_2[0],a  
 116  0037  0700     R  	mov a,_situation[3]  
 116  0038  0080     E  	mov _builtin_holtek_udivmodhi4_2[1],a
 116  0039  0FE8        	mov a,232  
 116  003A  0080     E  	mov _builtin_holtek_udivmodhi4_2[2],a  
 116  003B  0F03        	mov a,3  
 116  003C  0080     E  	mov _builtin_holtek_udivmodhi4_2[3],a
 116  003D  2000     E  	call _builtin_holtek_udivmodhi4
 116  003E  0700     E  	mov a,_builtin_holtek_udivmodhi4_2[0]  
 116  003F  0080     E  	mov rb,a  
 116  0040  0700     E  	mov a,_builtin_holtek_udivmodhi4_2[1]  
 116  0041  0080     E  	mov rc,a
 116  0042  1F00     E  	clr _builtin_holtek_udivmodhi4_2[6]
 116  0043  0700     E  	mov a,rb  
 116  0044  0080     E  	mov _builtin_holtek_udivmodhi4_2[0],a  
 116  0045  0700     E  	mov a,rc  
 116  0046  0080     E  	mov _builtin_holtek_udivmodhi4_2[1],a
 116  0047  0F0A        	mov a,10  
 116  0048  0080     E  	mov _builtin_holtek_udivmodhi4_2[2],a  
 116  0049  1F00     E  	clr _builtin_holtek_udivmodhi4_2[3]
 116  004A  2000     E  	call _builtin_holtek_udivmodhi4
 116  004B  0700     E  	mov a,_builtin_holtek_udivmodhi4_2[4]  
 116  004C  0080     E  	mov rb,a  
 116  004D  0700     E  	mov a,_builtin_holtek_udivmodhi4_2[5]  
 116  004E  0080     E  	mov rc,a
 116  004F  0F30        	mov a,48
 116  0050  0380     E  	addm a,rb
 116  0051  0700     E  	mov a,rb
 116  0052  2000     E  	call _UART_Transmit
 117  0053              #line 117 "c:\users\tech\desktop\powerlinetransceiver\Main\Main.c"
 117  0053  1F00     E  	clr _builtin_holtek_udivmodhi4_2[6]
 117  0054  0700     R  	mov a,_situation[2]  
 117  0055  0080     E  	mov _builtin_holtek_udivmodhi4_2[0],a  
 117  0056  0700     R  	mov a,_situation[3]  
 117  0057  0080     E  	mov _builtin_holtek_udivmodhi4_2[1],a
 117  0058  0F64        	mov a,100  
 117  0059  0080     E  	mov _builtin_holtek_udivmodhi4_2[2],a  
 117  005A  1F00     E  	clr _builtin_holtek_udivmodhi4_2[3]
 117  005B  2000     E  	call _builtin_holtek_udivmodhi4
 117  005C  0700     E  	mov a,_builtin_holtek_udivmodhi4_2[0]  
 117  005D  0080     E  	mov rb,a  
 117  005E  0700     E  	mov a,_builtin_holtek_udivmodhi4_2[1]  
 117  005F  0080     E  	mov rc,a
 117  0060  1F00     E  	clr _builtin_holtek_udivmodhi4_2[6]
 117  0061  0700     E  	mov a,rb  
 117  0062  0080     E  	mov _builtin_holtek_udivmodhi4_2[0],a  
 117  0063  0700     E  	mov a,rc  
 117  0064  0080     E  	mov _builtin_holtek_udivmodhi4_2[1],a
 117  0065  0F0A        	mov a,10  
 117  0066  0080     E  	mov _builtin_holtek_udivmodhi4_2[2],a  
 117  0067  1F00     E  	clr _builtin_holtek_udivmodhi4_2[3]
 117  0068  2000     E  	call _builtin_holtek_udivmodhi4
 117  0069  0700     E  	mov a,_builtin_holtek_udivmodhi4_2[4]  
 117  006A  0080     E  	mov rb,a  
 117  006B  0700     E  	mov a,_builtin_holtek_udivmodhi4_2[5]  
 117  006C  0080     E  	mov rc,a
"File: Main.c        Assembler  Version HGASM0202      Page 6

 117  006D  0F30        	mov a,48
 117  006E  0380     E  	addm a,rb
 117  006F  0700     E  	mov a,rb
 117  0070  2000     E  	call _UART_Transmit
 118  0071              #line 118 "c:\users\tech\desktop\powerlinetransceiver\Main\Main.c"
 118  0071  1F00     E  	clr _builtin_holtek_udivmodhi4_2[6]
 118  0072  0700     R  	mov a,_situation[2]  
 118  0073  0080     E  	mov _builtin_holtek_udivmodhi4_2[0],a  
 118  0074  0700     R  	mov a,_situation[3]  
 118  0075  0080     E  	mov _builtin_holtek_udivmodhi4_2[1],a
 118  0076  0F0A        	mov a,10  
 118  0077  0080     E  	mov _builtin_holtek_udivmodhi4_2[2],a  
 118  0078  1F00     E  	clr _builtin_holtek_udivmodhi4_2[3]
 118  0079  2000     E  	call _builtin_holtek_udivmodhi4
 118  007A  0700     E  	mov a,_builtin_holtek_udivmodhi4_2[0]  
 118  007B  0080     E  	mov rb,a  
 118  007C  0700     E  	mov a,_builtin_holtek_udivmodhi4_2[1]  
 118  007D  0080     E  	mov rc,a
 118  007E  1F00     E  	clr _builtin_holtek_udivmodhi4_2[6]
 118  007F  0700     E  	mov a,rb  
 118  0080  0080     E  	mov _builtin_holtek_udivmodhi4_2[0],a  
 118  0081  0700     E  	mov a,rc  
 118  0082  0080     E  	mov _builtin_holtek_udivmodhi4_2[1],a
 118  0083  0F0A        	mov a,10  
 118  0084  0080     E  	mov _builtin_holtek_udivmodhi4_2[2],a  
 118  0085  1F00     E  	clr _builtin_holtek_udivmodhi4_2[3]
 118  0086  2000     E  	call _builtin_holtek_udivmodhi4
 118  0087  0700     E  	mov a,_builtin_holtek_udivmodhi4_2[4]  
 118  0088  0080     E  	mov rb,a  
 118  0089  0700     E  	mov a,_builtin_holtek_udivmodhi4_2[5]  
 118  008A  0080     E  	mov rc,a
 118  008B  0F30        	mov a,48
 118  008C  0380     E  	addm a,rb
 118  008D  0700     E  	mov a,rb
 118  008E  2000     E  	call _UART_Transmit
 119  008F              #line 119 "c:\users\tech\desktop\powerlinetransceiver\Main\Main.c"
 119  008F  1F00     E  	clr _builtin_holtek_udivmodhi4_2[6]
 119  0090  0700     R  	mov a,_situation[2]  
 119  0091  0080     E  	mov _builtin_holtek_udivmodhi4_2[0],a  
 119  0092  0700     R  	mov a,_situation[3]  
 119  0093  0080     E  	mov _builtin_holtek_udivmodhi4_2[1],a
 119  0094  0F0A        	mov a,10  
 119  0095  0080     E  	mov _builtin_holtek_udivmodhi4_2[2],a  
 119  0096  1F00     E  	clr _builtin_holtek_udivmodhi4_2[3]
 119  0097  2000     E  	call _builtin_holtek_udivmodhi4
 119  0098  0700     E  	mov a,_builtin_holtek_udivmodhi4_2[4]  
 119  0099  0080     E  	mov rb,a  
 119  009A  0700     E  	mov a,_builtin_holtek_udivmodhi4_2[5]  
 119  009B  0080     E  	mov rc,a
 119  009C  0F30        	mov a,48
 119  009D  0380     E  	addm a,rb
 119  009E  0700     E  	mov a,rb
 119  009F  2000     E  	call _UART_Transmit
 121  00A0              #line 121 "c:\users\tech\desktop\powerlinetransceiver\Main\Main.c"
 121  00A0  0F54        	mov a,84
 121  00A1  2000     E  	call _UART_Transmit
 122  00A2              #line 122 "c:\users\tech\desktop\powerlinetransceiver\Main\Main.c"
 122  00A2  0F3D        	mov a,61
 122  00A3  2000     E  	call _UART_Transmit
 123  00A4              #line 123 "c:\users\tech\desktop\powerlinetransceiver\Main\Main.c"
"File: Main.c        Assembler  Version HGASM0202      Page 7

 123  00A4  1F00     E  	clr _builtin_holtek_udivmodhi4_2[6]
 123  00A5  0700     R  	mov a,_situation[0]  
 123  00A6  0080     E  	mov _builtin_holtek_udivmodhi4_2[0],a  
 123  00A7  0700     R  	mov a,_situation[1]  
 123  00A8  0080     E  	mov _builtin_holtek_udivmodhi4_2[1],a
 123  00A9  0FE8        	mov a,232  
 123  00AA  0080     E  	mov _builtin_holtek_udivmodhi4_2[2],a  
 123  00AB  0F03        	mov a,3  
 123  00AC  0080     E  	mov _builtin_holtek_udivmodhi4_2[3],a
 123  00AD  2000     E  	call _builtin_holtek_udivmodhi4
 123  00AE  0700     E  	mov a,_builtin_holtek_udivmodhi4_2[0]  
 123  00AF  0080     E  	mov rb,a  
 123  00B0  0700     E  	mov a,_builtin_holtek_udivmodhi4_2[1]  
 123  00B1  0080     E  	mov rc,a
 123  00B2  1F00     E  	clr _builtin_holtek_udivmodhi4_2[6]
 123  00B3  0700     E  	mov a,rb  
 123  00B4  0080     E  	mov _builtin_holtek_udivmodhi4_2[0],a  
 123  00B5  0700     E  	mov a,rc  
 123  00B6  0080     E  	mov _builtin_holtek_udivmodhi4_2[1],a
 123  00B7  0F0A        	mov a,10  
 123  00B8  0080     E  	mov _builtin_holtek_udivmodhi4_2[2],a  
 123  00B9  1F00     E  	clr _builtin_holtek_udivmodhi4_2[3]
 123  00BA  2000     E  	call _builtin_holtek_udivmodhi4
 123  00BB  0700     E  	mov a,_builtin_holtek_udivmodhi4_2[4]  
 123  00BC  0080     E  	mov rb,a  
 123  00BD  0700     E  	mov a,_builtin_holtek_udivmodhi4_2[5]  
 123  00BE  0080     E  	mov rc,a
 123  00BF  0F30        	mov a,48
 123  00C0  0380     E  	addm a,rb
 123  00C1  0700     E  	mov a,rb
 123  00C2  2000     E  	call _UART_Transmit
 124  00C3              #line 124 "c:\users\tech\desktop\powerlinetransceiver\Main\Main.c"
 124  00C3  1F00     E  	clr _builtin_holtek_udivmodhi4_2[6]
 124  00C4  0700     R  	mov a,_situation[0]  
 124  00C5  0080     E  	mov _builtin_holtek_udivmodhi4_2[0],a  
 124  00C6  0700     R  	mov a,_situation[1]  
 124  00C7  0080     E  	mov _builtin_holtek_udivmodhi4_2[1],a
 124  00C8  0F64        	mov a,100  
 124  00C9  0080     E  	mov _builtin_holtek_udivmodhi4_2[2],a  
 124  00CA  1F00     E  	clr _builtin_holtek_udivmodhi4_2[3]
 124  00CB  2000     E  	call _builtin_holtek_udivmodhi4
 124  00CC  0700     E  	mov a,_builtin_holtek_udivmodhi4_2[0]  
 124  00CD  0080     E  	mov rb,a  
 124  00CE  0700     E  	mov a,_builtin_holtek_udivmodhi4_2[1]  
 124  00CF  0080     E  	mov rc,a
 124  00D0  1F00     E  	clr _builtin_holtek_udivmodhi4_2[6]
 124  00D1  0700     E  	mov a,rb  
 124  00D2  0080     E  	mov _builtin_holtek_udivmodhi4_2[0],a  
 124  00D3  0700     E  	mov a,rc  
 124  00D4  0080     E  	mov _builtin_holtek_udivmodhi4_2[1],a
 124  00D5  0F0A        	mov a,10  
 124  00D6  0080     E  	mov _builtin_holtek_udivmodhi4_2[2],a  
 124  00D7  1F00     E  	clr _builtin_holtek_udivmodhi4_2[3]
 124  00D8  2000     E  	call _builtin_holtek_udivmodhi4
 124  00D9  0700     E  	mov a,_builtin_holtek_udivmodhi4_2[4]  
 124  00DA  0080     E  	mov rb,a  
 124  00DB  0700     E  	mov a,_builtin_holtek_udivmodhi4_2[5]  
 124  00DC  0080     E  	mov rc,a
 124  00DD  0F30        	mov a,48
 124  00DE  0380     E  	addm a,rb
"File: Main.c        Assembler  Version HGASM0202      Page 8

 124  00DF  0700     E  	mov a,rb
 124  00E0  2000     E  	call _UART_Transmit
 125  00E1              #line 125 "c:\users\tech\desktop\powerlinetransceiver\Main\Main.c"
 125  00E1  1F00     E  	clr _builtin_holtek_udivmodhi4_2[6]
 125  00E2  0700     R  	mov a,_situation[0]  
 125  00E3  0080     E  	mov _builtin_holtek_udivmodhi4_2[0],a  
 125  00E4  0700     R  	mov a,_situation[1]  
 125  00E5  0080     E  	mov _builtin_holtek_udivmodhi4_2[1],a
 125  00E6  0F0A        	mov a,10  
 125  00E7  0080     E  	mov _builtin_holtek_udivmodhi4_2[2],a  
 125  00E8  1F00     E  	clr _builtin_holtek_udivmodhi4_2[3]
 125  00E9  2000     E  	call _builtin_holtek_udivmodhi4
 125  00EA  0700     E  	mov a,_builtin_holtek_udivmodhi4_2[0]  
 125  00EB  0080     E  	mov rb,a  
 125  00EC  0700     E  	mov a,_builtin_holtek_udivmodhi4_2[1]  
 125  00ED  0080     E  	mov rc,a
 125  00EE  1F00     E  	clr _builtin_holtek_udivmodhi4_2[6]
 125  00EF  0700     E  	mov a,rb  
 125  00F0  0080     E  	mov _builtin_holtek_udivmodhi4_2[0],a  
 125  00F1  0700     E  	mov a,rc  
 125  00F2  0080     E  	mov _builtin_holtek_udivmodhi4_2[1],a
 125  00F3  0F0A        	mov a,10  
 125  00F4  0080     E  	mov _builtin_holtek_udivmodhi4_2[2],a  
 125  00F5  1F00     E  	clr _builtin_holtek_udivmodhi4_2[3]
 125  00F6  2000     E  	call _builtin_holtek_udivmodhi4
 125  00F7  0700     E  	mov a,_builtin_holtek_udivmodhi4_2[4]  
 125  00F8  0080     E  	mov rb,a  
 125  00F9  0700     E  	mov a,_builtin_holtek_udivmodhi4_2[5]  
 125  00FA  0080     E  	mov rc,a
 125  00FB  0F30        	mov a,48
 125  00FC  0380     E  	addm a,rb
 125  00FD  0700     E  	mov a,rb
 125  00FE  2000     E  	call _UART_Transmit
 126  00FF              #line 126 "c:\users\tech\desktop\powerlinetransceiver\Main\Main.c"
 126  00FF  1F00     E  	clr _builtin_holtek_udivmodhi4_2[6]
 126  0100  0700     R  	mov a,_situation[0]  
 126  0101  0080     E  	mov _builtin_holtek_udivmodhi4_2[0],a  
 126  0102  0700     R  	mov a,_situation[1]  
 126  0103  0080     E  	mov _builtin_holtek_udivmodhi4_2[1],a
 126  0104  0F0A        	mov a,10  
 126  0105  0080     E  	mov _builtin_holtek_udivmodhi4_2[2],a  
 126  0106  1F00     E  	clr _builtin_holtek_udivmodhi4_2[3]
 126  0107  2000     E  	call _builtin_holtek_udivmodhi4
 126  0108  0700     E  	mov a,_builtin_holtek_udivmodhi4_2[4]  
 126  0109  0080     E  	mov rb,a  
 126  010A  0700     E  	mov a,_builtin_holtek_udivmodhi4_2[5]  
 126  010B  0080     E  	mov rc,a
 126  010C  0F30        	mov a,48
 126  010D  0380     E  	addm a,rb
 126  010E  0700     E  	mov a,rb
 126  010F  2000     E  	call _UART_Transmit
 127  0110              #line 127 "c:\users\tech\desktop\powerlinetransceiver\Main\Main.c"
 127  0110  0F0A        	mov a,10
 127  0111  2000     E  	call _UART_Transmit
 128  0112              #line 128 "c:\users\tech\desktop\powerlinetransceiver\Main\Main.c"
 128  0112  1F00     R  	clr _AddresssValid[0]
 128  0113              _L6:
 131  0113              #line 131 "c:\users\tech\desktop\powerlinetransceiver\Main\Main.c"
 131  0113  1E00     R  	snz _AddresssValid[0]
 131  0114  2800     R  	jmp _L3
"File: Main.c        Assembler  Version HGASM0202      Page 9

 131  0115  0700     R  	mov a,_main_2[0]
 131  0116  0C43        	xor a,67
 131  0117  0500     R  	or a,_main_2[1]
 131  0118  390A        	snz z
 131  0119  2800     R  	jmp _L3
 133  011A              #line 133 "c:\users\tech\desktop\powerlinetransceiver\Main\Main.c"
 133  011A              ;# 133 "c:\users\tech\desktop\powerlinetransceiver\Main\Main.c" 1
 133  011A              	IF 10000>263690
 133  011A              ;# 133 "c:\users\tech\desktop\powerlinetransceiver\Main\Main.c" 1
 133  011A              	ERRMESSAGE 'the value 10000of the argument exceeds the maxinum 263690'
 133  011A              	ENDIF
 133  011A              ;# 133 "c:\users\tech\desktop\powerlinetransceiver\Main\Main.c" 1
 133  011A              	IF 10000<0
 133  011A              ;# 133 "c:\users\tech\desktop\powerlinetransceiver\Main\Main.c" 1
 133  011A              	ERRMESSAGE 'the value 10000 of the argument exceeds the mininum 0'
 133  011A              	ENDIF
 133  011A              ;# 133 "c:\users\tech\desktop\powerlinetransceiver\Main\Main.c" 1
 133  011A              	IF 10000==0
 133  011A              ;# 133 "c:\users\tech\desktop\powerlinetransceiver\Main\Main.c" 1
 133  011A              	JMP $
 133  011A              	ENDIF
 133  011A              ;# 133 "c:\users\tech\desktop\powerlinetransceiver\Main\Main.c" 1
 133  011A              	IF 10000==1
 133  011A              ;# 133 "c:\users\tech\desktop\powerlinetransceiver\Main\Main.c" 1
 133  011A              	NOP
 133  011A              	ENDIF
 133  011A              ;# 133 "c:\users\tech\desktop\powerlinetransceiver\Main\Main.c" 1
 133  011A              	IF 10000==2
 133  011A              ;# 133 "c:\users\tech\desktop\powerlinetransceiver\Main\Main.c" 1
 133  011A              	NOP
 133  011A              ;# 133 "c:\users\tech\desktop\powerlinetransceiver\Main\Main.c" 1
 133  011A              	NOP
 133  011A              	ENDIF
 133  011A              ;# 133 "c:\users\tech\desktop\powerlinetransceiver\Main\Main.c" 1
 133  011A              	IF 10000==3
 133  011A              ;# 133 "c:\users\tech\desktop\powerlinetransceiver\Main\Main.c" 1
 133  011A              	NOP
 133  011A              ;# 133 "c:\users\tech\desktop\powerlinetransceiver\Main\Main.c" 1
 133  011A              	NOP
 133  011A              ;# 133 "c:\users\tech\desktop\powerlinetransceiver\Main\Main.c" 1
 133  011A              	NOP
 133  011A              	ENDIF
 133  011A              ;# 133 "c:\users\tech\desktop\powerlinetransceiver\Main\Main.c" 1
 133  011A              	IF (10000<8) AND (10000>3)
 133  011A              ;# 133 "c:\users\tech\desktop\powerlinetransceiver\Main\Main.c" 1
 133  011A              	CALL __DELAY3 + 7 -10000
 133  011A              	ENDIF
 133  011A              ;# 133 "c:\users\tech\desktop\powerlinetransceiver\Main\Main.c" 1
 133  011A              	IF (10000< 0404h) AND (10000>7)
 133  011A              ;# 133 "c:\users\tech\desktop\powerlinetransceiver\Main\Main.c" 1
 133  011A              	MOV A,10000/4-1
 133  011A              ;# 133 "c:\users\tech\desktop\powerlinetransceiver\Main\Main.c" 1
 133  011A              	CALL __DELAYX3 + 3 -(10000 MOD 4)
 133  011A              	ENDIF
 133  011A              ;# 133 "c:\users\tech\desktop\powerlinetransceiver\Main\Main.c" 1
 133  011A              	IF (10000< 0x40B) AND (10000> 0403h)
 133  011A              ;# 133 "c:\users\tech\desktop\powerlinetransceiver\Main\Main.c" 1
 133  011A              	MOV A,0 
 133  011A              ;# 133 "c:\users\tech\desktop\powerlinetransceiver\Main\Main.c" 1
 133  011A              	CALL __DELAYX6 + 0x40a -10000
"File: Main.c        Assembler  Version HGASM0202      Page 10

 133  011A              	ENDIF
 133  011A              ;# 133 "c:\users\tech\desktop\powerlinetransceiver\Main\Main.c" 1
 133  011A              	IF (10000 >= 0x40b) AND ((((10000-9)%0402h)/4+1)>256)
 133  011A              ;# 133 "c:\users\tech\desktop\powerlinetransceiver\Main\Main.c" 1
 133  011A              	MOV A,(10000-9)/0402h
 133  011A              ;# 133 "c:\users\tech\desktop\powerlinetransceiver\Main\Main.c" 1
 133  011A              	MOV _builtin_holtek_delay_2,A
 133  011A              ;# 133 "c:\users\tech\desktop\powerlinetransceiver\Main\Main.c" 1
 133  011A              	MOV A,0
 133  011A              ;# 133 "c:\users\tech\desktop\powerlinetransceiver\Main\Main.c" 1
 133  011A              	CALL __DELAYY5 +5- (((10000-9)%0402h)%6)
 133  011A              	ENDIF
 133  011A              ;# 133 "c:\users\tech\desktop\powerlinetransceiver\Main\Main.c" 1
 133  011A              	IF (10000 >= 0x40b) AND ((((10000-9)%0402h)/4+1)<=256)
 133  011A              ;# 133 "c:\users\tech\desktop\powerlinetransceiver\Main\Main.c" 1
 133  011A  0F09        	MOV A,(10000-9)/0402h
 133  011B              ;# 133 "c:\users\tech\desktop\powerlinetransceiver\Main\Main.c" 1
 133  011B  0080     E  	MOV _builtin_holtek_delay_2,A
 133  011C              ;# 133 "c:\users\tech\desktop\powerlinetransceiver\Main\Main.c" 1
 133  011C  0FBE        	MOV A,((10000-9)%0402h)/4+1
 133  011D              ;# 133 "c:\users\tech\desktop\powerlinetransceiver\Main\Main.c" 1
 133  011D  2000     E  	CALL __DELAYY3 +3-(((10000-9)%0402h)%4)
 133  011E              	ENDIF
 134  011E              #line 134 "c:\users\tech\desktop\powerlinetransceiver\Main\Main.c"
 134  011E  2000     E  	call _PLTAInit
 157  011F              #line 157 "c:\users\tech\desktop\powerlinetransceiver\Main\Main.c"
 157  011F  1F00     R  	clr _AddresssValid[0]
 157  0120              _L3:
 162  0120              #line 162 "c:\users\tech\desktop\powerlinetransceiver\Main\Main.c"
 162  0120  2000     E  	call _PLTAOFF
 163  0121              #line 163 "c:\users\tech\desktop\powerlinetransceiver\Main\Main.c"
 163  0121  0F01        	mov a,1
 163  0122  0300     R  	add a,_Counter[0]
 163  0123  0080     E  	mov rd,a
 163  0124  0F00        	mov a,0
 163  0125  1300     R  	adc a,_Counter[1]
 163  0126  0080     E  	mov re,a
 163  0127  0F00        	mov a,0
 163  0128  1300     R  	adc a,_Counter[2]
 163  0129  0080     E  	mov rf,a
 163  012A  0F00        	mov a,0
 163  012B  1300     R  	adc a,_Counter[3]
 163  012C  0080     E  	mov rg,a
 163  012D  0700     E  	mov a,rd
 163  012E  0080     R  	mov _Counter[0],a
 163  012F  0700     E  	mov a,re
 163  0130  0080     R  	mov _Counter[1],a
 163  0131  0700     E  	mov a,rf
 163  0132  0080     R  	mov _Counter[2],a
 163  0133  0700     E  	mov a,rg
 163  0134  0080     R  	mov _Counter[3],a
 164  0135              #line 164 "c:\users\tech\desktop\powerlinetransceiver\Main\Main.c"
 164  0135  0FC8        	mov a,200
 164  0136  0200     E  	sub a,rd
 164  0137  0F32        	mov a,50
 164  0138  1200     E  	sbc a,re
 164  0139  0F00        	mov a,0
 164  013A  1200     E  	sbc a,rf
 164  013B  0F00        	mov a,0
 164  013C  1200     E  	sbc a,rg
"File: Main.c        Assembler  Version HGASM0202      Page 11

 164  013D  3C0A        	sz c
 164  013E  2800     R  	jmp _L8
 167  013F              #line 167 "c:\users\tech\desktop\powerlinetransceiver\Main\Main.c"
 167  013F  1480     R  	inc _CounterLED[0]
 167  0140  3D0A        	sz z
 167  0141  1480     R  	inc _CounterLED[1]
 168  0142              #line 168 "c:\users\tech\desktop\powerlinetransceiver\Main\Main.c"
 168  0142  1480     R  	inc _CounterStatusCheck[0]
 168  0143  3D0A        	sz z
 168  0144  1480     R  	inc _CounterStatusCheck[1]
 169  0145              #line 169 "c:\users\tech\desktop\powerlinetransceiver\Main\Main.c"
 169  0145  1F00     R  	clr _Counter[0]
 169  0146  1F00     R  	clr _Counter[1]
 169  0147  1F00     R  	clr _Counter[2]
 169  0148  1F00     R  	clr _Counter[3]
 169  0149              _L8:
 171  0149              #line 171 "c:\users\tech\desktop\powerlinetransceiver\Main\Main.c"
 171  0149  0F01        	mov a,1
 171  014A  0200     R  	sub a,_CounterStatusCheck[0]
 171  014B  0F00        	mov a,0
 171  014C  1200     R  	sbc a,_CounterStatusCheck[1]
 171  014D  3C0A        	sz c
 171  014E  2800     R  	jmp _L9
 174  014F              #line 174 "c:\users\tech\desktop\powerlinetransceiver\Main\Main.c"
 174  014F  2000     E  	call _ADCInit
 175  0150              #line 175 "c:\users\tech\desktop\powerlinetransceiver\Main\Main.c"
 175  0150  3114        	set [20].2
 176  0151              #line 176 "c:\users\tech\desktop\powerlinetransceiver\Main\Main.c"
 176  0151  0F01        	mov a,1
 176  0152  2000     E  	call _ReadADC
 176  0153  1F00     E  	clr _temperature_2[2]
 176  0154  0F40        	mov a,64
 176  0155  0080     E  	mov _temperature_2[3],a
 176  0156  0F40        	mov a,64
 176  0157  0080     E  	mov _temperature_2[4],a
 176  0158  0700     E  	mov a,ra
 176  0159  0080     E  	mov _temperature_2[0],a
 176  015A  0700     E  	mov a,rb
 176  015B  0080     E  	mov _temperature_2[1],a
 176  015C  2000     E  	call _temperature
 176  015D  0700     E  	mov a,rc
 176  015E  0080     E  	mov _builtin_holtek_mant1[2],a
 176  015F  0700     E  	mov a,rb
 176  0160  0080     E  	mov _builtin_holtek_mant1[1],a
 176  0161  0700     E  	mov a,ra
 176  0162  0080     E  	mov _builtin_holtek_mant1[0],a
 176  0163  0F42        	mov a,66
 176  0164  0080     E  	mov _builtin_holtek_mant2[2],a
 176  0165  0FC8        	mov a,200
 176  0166  0080     E  	mov _builtin_holtek_mant2[1],a
 176  0167  0F00        	mov a,0
 176  0168  0080     E  	mov _builtin_holtek_mant2[0],a
 176  0169  2000     E  	call _builtin_holtek_ftmul
 176  016A  0700     E  	mov a,_builtin_holtek_mant1[2]
 176  016B  0080     E  	mov re,a
 176  016C  0700     E  	mov a,_builtin_holtek_mant1[1]
 176  016D  0080     E  	mov rd,a
 176  016E  0700     E  	mov a,_builtin_holtek_mant1[0]
 176  016F  0080     E  	mov rc,a
 176  0170  1F00     E  	clr _builtin_holtek_mant12p[0]
"File: Main.c        Assembler  Version HGASM0202      Page 12

 176  0171  0700     E  	mov a,re
 176  0172  0080     E  	mov _builtin_holtek_mant1[2],a
 176  0173  0700     E  	mov a,rd
 176  0174  0080     E  	mov _builtin_holtek_mant1[1],a
 176  0175  0700     E  	mov a,rc
 176  0176  0080     E  	mov _builtin_holtek_mant1[0],a
 176  0177  2000     E  	call _builtin_holtek_ftol
 176  0178  0700     E  	mov a,_builtin_holtek_mant12p[0]
 176  0179  0080     E  	mov rg,a
 176  017A  0700     E  	mov a,_builtin_holtek_mant1[2]
 176  017B  0080     E  	mov rf,a
 176  017C  0700     E  	mov a,_builtin_holtek_mant1[1]
 176  017D  0080     E  	mov re,a
 176  017E  0700     E  	mov a,_builtin_holtek_mant1[0]
 176  017F  0080     E  	mov rd,a
 176  0180  0700     E  	mov a,rd
 176  0181  0080     R  	mov _situation[0],a
 176  0182  0700     E  	mov a,re
 176  0183  0080     R  	mov _situation[1],a
 177  0184              #line 177 "c:\users\tech\desktop\powerlinetransceiver\Main\Main.c"
 177  0184  3514        	clr [20].2
 178  0185              #line 178 "c:\users\tech\desktop\powerlinetransceiver\Main\Main.c"
 178  0185  2000     E  	call _InitSmokeDetection
 179  0186              #line 179 "c:\users\tech\desktop\powerlinetransceiver\Main\Main.c"
 179  0186  0F00     R  	mov a,low (offset _situation+2)
 179  0187  0080     E  	mov _CheckSmokeLevel_2[0],a
 179  0188  0F00     R  	mov a,high (offset _situation+2)
 179  0189  0080     E  	mov _CheckSmokeLevel_2[1],a
 179  018A  2000     E  	call _CheckSmokeLevel
 180  018B              #line 180 "c:\users\tech\desktop\powerlinetransceiver\Main\Main.c"
 180  018B  2000     E  	call _SmokeDitectionOFF
 181  018C              #line 181 "c:\users\tech\desktop\powerlinetransceiver\Main\Main.c"
 181  018C  2000     E  	call _ADC_Inactive
 182  018D              #line 182 "c:\users\tech\desktop\powerlinetransceiver\Main\Main.c"
 182  018D  1F00     R  	clr _CounterStatusCheck[0]
 182  018E  1F00     R  	clr _CounterStatusCheck[1]
 182  018F              _L9:
 186  018F              #line 186 "c:\users\tech\desktop\powerlinetransceiver\Main\Main.c"
 186  018F  0F0B        	mov a,11
 186  0190  0200     R  	sub a,_CounterLED[0]
 186  0191  0F00        	mov a,0
 186  0192  1200     R  	sbc a,_CounterLED[1]
 186  0193  3C0A        	sz c
 186  0194  2800     R  	jmp _L11
 188  0195              #line 188 "c:\users\tech\desktop\powerlinetransceiver\Main\Main.c"
 188  0195  3214        	set [20].4
 189  0196              #line 189 "c:\users\tech\desktop\powerlinetransceiver\Main\Main.c"
 189  0196              ;# 189 "c:\users\tech\desktop\powerlinetransceiver\Main\Main.c" 1
 189  0196              	IF 1000>263690
 189  0196              ;# 189 "c:\users\tech\desktop\powerlinetransceiver\Main\Main.c" 1
 189  0196              	ERRMESSAGE 'the value 1000of the argument exceeds the maxinum 263690'
 189  0196              	ENDIF
 189  0196              ;# 189 "c:\users\tech\desktop\powerlinetransceiver\Main\Main.c" 1
 189  0196              	IF 1000<0
 189  0196              ;# 189 "c:\users\tech\desktop\powerlinetransceiver\Main\Main.c" 1
 189  0196              	ERRMESSAGE 'the value 1000 of the argument exceeds the mininum 0'
 189  0196              	ENDIF
 189  0196              ;# 189 "c:\users\tech\desktop\powerlinetransceiver\Main\Main.c" 1
 189  0196              	IF 1000==0
 189  0196              ;# 189 "c:\users\tech\desktop\powerlinetransceiver\Main\Main.c" 1
"File: Main.c        Assembler  Version HGASM0202      Page 13

 189  0196              	JMP $
 189  0196              	ENDIF
 189  0196              ;# 189 "c:\users\tech\desktop\powerlinetransceiver\Main\Main.c" 1
 189  0196              	IF 1000==1
 189  0196              ;# 189 "c:\users\tech\desktop\powerlinetransceiver\Main\Main.c" 1
 189  0196              	NOP
 189  0196              	ENDIF
 189  0196              ;# 189 "c:\users\tech\desktop\powerlinetransceiver\Main\Main.c" 1
 189  0196              	IF 1000==2
 189  0196              ;# 189 "c:\users\tech\desktop\powerlinetransceiver\Main\Main.c" 1
 189  0196              	NOP
 189  0196              ;# 189 "c:\users\tech\desktop\powerlinetransceiver\Main\Main.c" 1
 189  0196              	NOP
 189  0196              	ENDIF
 189  0196              ;# 189 "c:\users\tech\desktop\powerlinetransceiver\Main\Main.c" 1
 189  0196              	IF 1000==3
 189  0196              ;# 189 "c:\users\tech\desktop\powerlinetransceiver\Main\Main.c" 1
 189  0196              	NOP
 189  0196              ;# 189 "c:\users\tech\desktop\powerlinetransceiver\Main\Main.c" 1
 189  0196              	NOP
 189  0196              ;# 189 "c:\users\tech\desktop\powerlinetransceiver\Main\Main.c" 1
 189  0196              	NOP
 189  0196              	ENDIF
 189  0196              ;# 189 "c:\users\tech\desktop\powerlinetransceiver\Main\Main.c" 1
 189  0196              	IF (1000<8) AND (1000>3)
 189  0196              ;# 189 "c:\users\tech\desktop\powerlinetransceiver\Main\Main.c" 1
 189  0196              	CALL __DELAY3 + 7 -1000
 189  0196              	ENDIF
 189  0196              ;# 189 "c:\users\tech\desktop\powerlinetransceiver\Main\Main.c" 1
 189  0196              	IF (1000< 0404h) AND (1000>7)
 189  0196              ;# 189 "c:\users\tech\desktop\powerlinetransceiver\Main\Main.c" 1
 189  0196  0FF9        	MOV A,1000/4-1
 189  0197              ;# 189 "c:\users\tech\desktop\powerlinetransceiver\Main\Main.c" 1
 189  0197  2000     E  	CALL __DELAYX3 + 3 -(1000 MOD 4)
 189  0198              	ENDIF
 189  0198              ;# 189 "c:\users\tech\desktop\powerlinetransceiver\Main\Main.c" 1
 189  0198              	IF (1000< 0x40B) AND (1000> 0403h)
 189  0198              ;# 189 "c:\users\tech\desktop\powerlinetransceiver\Main\Main.c" 1
 189  0198              	MOV A,0 
 189  0198              ;# 189 "c:\users\tech\desktop\powerlinetransceiver\Main\Main.c" 1
 189  0198              	CALL __DELAYX6 + 0x40a -1000
 189  0198              	ENDIF
 189  0198              ;# 189 "c:\users\tech\desktop\powerlinetransceiver\Main\Main.c" 1
 189  0198              	IF (1000 >= 0x40b) AND ((((1000-9)%0402h)/4+1)>256)
 189  0198              ;# 189 "c:\users\tech\desktop\powerlinetransceiver\Main\Main.c" 1
 189  0198              	MOV A,(1000-9)/0402h
 189  0198              ;# 189 "c:\users\tech\desktop\powerlinetransceiver\Main\Main.c" 1
 189  0198              	MOV _builtin_holtek_delay_2,A
 189  0198              ;# 189 "c:\users\tech\desktop\powerlinetransceiver\Main\Main.c" 1
 189  0198              	MOV A,0
 189  0198              ;# 189 "c:\users\tech\desktop\powerlinetransceiver\Main\Main.c" 1
 189  0198              	CALL __DELAYY5 +5- (((1000-9)%0402h)%6)
 189  0198              	ENDIF
 189  0198              ;# 189 "c:\users\tech\desktop\powerlinetransceiver\Main\Main.c" 1
 189  0198              	IF (1000 >= 0x40b) AND ((((1000-9)%0402h)/4+1)<=256)
 189  0198              ;# 189 "c:\users\tech\desktop\powerlinetransceiver\Main\Main.c" 1
 189  0198              	MOV A,(1000-9)/0402h
 189  0198              ;# 189 "c:\users\tech\desktop\powerlinetransceiver\Main\Main.c" 1
 189  0198              	MOV _builtin_holtek_delay_2,A
 189  0198              ;# 189 "c:\users\tech\desktop\powerlinetransceiver\Main\Main.c" 1
"File: Main.c        Assembler  Version HGASM0202      Page 14

 189  0198              	MOV A,((1000-9)%0402h)/4+1
 189  0198              ;# 189 "c:\users\tech\desktop\powerlinetransceiver\Main\Main.c" 1
 189  0198              	CALL __DELAYY3 +3-(((1000-9)%0402h)%4)
 189  0198              	ENDIF
 190  0198              #line 190 "c:\users\tech\desktop\powerlinetransceiver\Main\Main.c"
 190  0198  3614        	clr [20].4
 191  0199              #line 191 "c:\users\tech\desktop\powerlinetransceiver\Main\Main.c"
 191  0199  1F00     R  	clr _CounterLED[0]
 191  019A  1F00     R  	clr _CounterLED[1]
 191  019B  2800     R  	jmp _L11
 191  019C              #pragma debug scope 2 1
 191  019C  2800     R  	jmp $
 191  019D              _main endp
 191  019D              
 191  019D              @dummy endp
 191  019D              
 191  019D              #line 191 "c:\users\tech\desktop\powerlinetransceiver\Main\Main.c"
 191  019D              #pragma debug scope 1 1
 191  019D              public _UART_ReceiveString
 191  019D              #pragma debug scope 4 1
 202  019D              #line 202 "c:\users\tech\desktop\powerlinetransceiver\Main\Main.c"
 202  0000              _UART_ReceiveString .section 'code'
 202  0000              _UART_ReceiveString proc
 202  0000  0002[           local _UART_ReceiveString_2 db 2 dup(?)	; 0,2
            00
            ]
 206  0002              #line 206 "c:\users\tech\desktop\powerlinetransceiver\Main\Main.c"
 206  0000  0700     R  	mov a,___index_2090[0]
 206  0001  0080     R  	mov _UART_ReceiveString_2[0],a
 206  0002  1F00     R  	clr _UART_ReceiveString_2[1]
 206  0003  3F85        	sz acc.7
 206  0004  1F80     R  	set _UART_ReceiveString_2[1]
 206  0005  2000     E  	call _UART_ReceiveNonBlocking
 206  0006  0080     E  	mov ra,a
 206  0007  0F00     R  	mov a,low offset ___resiveBuffer_2089
 206  0008  0300     R  	add a,_UART_ReceiveString_2[0]
 206  0009  0083        	mov mp,a
 206  000A  0F00     R  	mov a,high offset ___resiveBuffer_2089
 206  000B  1300     R  	adc a,_UART_ReceiveString_2[1]
 206  000C  0084        	mov sbp,a
 206  000D  0700     E  	mov a,ra
 206  000E  0082        	mov ir,a
 207  000F              #line 207 "c:\users\tech\desktop\powerlinetransceiver\Main\Main.c"
 207  000F  1E00     R  	snz ___resiveBuffer_2089[0]
 207  0010  2800     R  	jmp _L18
 208  0011              #line 208 "c:\users\tech\desktop\powerlinetransceiver\Main\Main.c"
 208  0011  1480     R  	inc ___index_2090[0]
 209  0012              #line 209 "c:\users\tech\desktop\powerlinetransceiver\Main\Main.c"
 209  0012  0F01        	mov a,1
 209  0013  0080     R  	mov ___DataValid_2091[0],a
 209  0014  2800     R  	jmp _L20
 209  0015              _L18:
 211  0015              #line 211 "c:\users\tech\desktop\powerlinetransceiver\Main\Main.c"
 211  0015  1E00     R  	snz ___DataValid_2091[0]
 211  0016  2800     R  	jmp _L20
 213  0017              #line 213 "c:\users\tech\desktop\powerlinetransceiver\Main\Main.c"
 213  0017  0F00     R  	mov a,low offset ___resiveBuffer_2089
 213  0018  0080     E  	mov ra,a
 213  0019  0F00     R  	mov a,high offset ___resiveBuffer_2089
 213  001A  0080     E  	mov rb,a
"File: Main.c        Assembler  Version HGASM0202      Page 15

 213  001B  2800     R  	jmp _L17
 213  001C              _L20:
 213  001C              _L17:
 213  001C  0003        	ret
 213  001D              _UART_ReceiveString endp
 213  001D              #line 213 "c:\users\tech\desktop\powerlinetransceiver\Main\Main.c"
 213  001D              #pragma debug scope 1 1
 213  0000              @HCCINIT	.section 'data'
 205  0000              #line 205 "c:\users\tech\desktop\powerlinetransceiver\Main\Main.c"
 205  0000              @HCCINIT___DataValid_2091 .section 'data'
 205  0000              ___DataValid_2091 label byte
 205  0000              #pragma debug variable 7 4 ___DataValid_2091 "DataValid"
 205  0000              	db 0
 205  0000              @ROMDATA_BASE .section inpage 'code'
 205  0000              	db 0
 205  0001              @HCCINIT___DataValid_2091 .section 'data'
 203  0001              #line 203 "c:\users\tech\desktop\powerlinetransceiver\Main\Main.c"
 203  0000              @HCCINIT___resiveBuffer_2089 .section 'data'
 203  0000              ___resiveBuffer_2089 label byte
 203  0000              #pragma debug array 42 8 10 1
 203  0000              #pragma debug array 42 8 10 1
 203  0000              #pragma debug variable 42 4 ___resiveBuffer_2089 "resiveBuffer"
 203  0000              	db 0
 203  0001              @ROMDATA_BASE .section inpage 'code'
 203  0001              	db 0
 203  0001              @HCCINIT___resiveBuffer_2089 .section 'data'
 203  0001              	db 0
 203  0001              @ROMDATA_BASE .section inpage 'code'
 203  0001              	db 0
 203  0002              @HCCINIT___resiveBuffer_2089 .section 'data'
 203  0002              	db 0
 203  0002              @ROMDATA_BASE .section inpage 'code'
 203  0002              	db 0
 203  0003              @HCCINIT___resiveBuffer_2089 .section 'data'
 203  0003              	db 0
 203  0002              @ROMDATA_BASE .section inpage 'code'
 203  0002              	db 0
 203  0004              @HCCINIT___resiveBuffer_2089 .section 'data'
 203  0004              	db 0
 203  0003              @ROMDATA_BASE .section inpage 'code'
 203  0003              	db 0
 203  0005              @HCCINIT___resiveBuffer_2089 .section 'data'
 203  0005              	db 0
 203  0003              @ROMDATA_BASE .section inpage 'code'
 203  0003              	db 0
 203  0006              @HCCINIT___resiveBuffer_2089 .section 'data'
 203  0006              	db 0
 203  0004              @ROMDATA_BASE .section inpage 'code'
 203  0004              	db 0
 203  0007              @HCCINIT___resiveBuffer_2089 .section 'data'
 203  0007              	db 0
 203  0004              @ROMDATA_BASE .section inpage 'code'
 203  0004              	db 0
 203  0008              @HCCINIT___resiveBuffer_2089 .section 'data'
 203  0008              	db 0
 203  0005              @ROMDATA_BASE .section inpage 'code'
 203  0005              	db 0
 203  0009              @HCCINIT___resiveBuffer_2089 .section 'data'
 203  0009              	db 0
 203  0005              @ROMDATA_BASE .section inpage 'code'
"File: Main.c        Assembler  Version HGASM0202      Page 16

 203  0005              	db 0
 203  000A              @HCCINIT___resiveBuffer_2089 .section 'data'
 204  000A              #line 204 "c:\users\tech\desktop\powerlinetransceiver\Main\Main.c"
 204  0000              @HCCINIT___index_2090 .section 'data'
 204  0000              ___index_2090 label byte
 204  0000              #pragma debug variable 7 4 ___index_2090 "index"
 204  0000              	db 0
 204  0006              @ROMDATA_BASE .section inpage 'code'
 204  0006              	db 0
 204  0001              @HCCINIT___index_2090 .section 'data'
  38  0001              #line 38 "c:\users\tech\desktop\powerlinetransceiver\Main\Main.c"
  38  0001              public _situation
  38  0000              @HCCINIT0_situation .section 'data'
  38  0000  0004[       _situation	db 4 dup(0)
            00
            ]
  38  0004              #pragma debug struct_end
  38  0004              #pragma debug struct_end
  38  0004              #pragma debug variable 43 1 _situation "situation"
  38  0004              
  38  0000              @HCCINIT .section 'data'
  38  0000              public _AddresssValid
  29  0000              #line 29 "c:\users\tech\desktop\powerlinetransceiver\Main\Main.c"
  29  0000              @HCCINIT_AddresssValid .section 'data'
  29  0000              _AddresssValid label byte
  29  0000              #pragma debug variable 8 1 _AddresssValid "AddresssValid"
  29  0000              	db 0
  29  0006              @ROMDATA_BASE .section inpage 'code'
  29  0006              	db 0
  29  0001              @HCCINIT_AddresssValid .section 'data'
  29  0001              public _PushButtonCounter
  28  0001              #line 28 "c:\users\tech\desktop\powerlinetransceiver\Main\Main.c"
  28  0000              @HCCINIT_PushButtonCounter .section 'data'
  28  0000              _PushButtonCounter label byte
  28  0000              #pragma debug variable 12 1 _PushButtonCounter "PushButtonCounter"
  28  0000              	db 0
  28  0007              @ROMDATA_BASE .section inpage 'code'
  28  0007              	db 0
  28  0001              @HCCINIT_PushButtonCounter .section 'data'
  28  0001              	db 0
  28  0007              @ROMDATA_BASE .section inpage 'code'
  28  0007              	db 0
  28  0002              @HCCINIT_PushButtonCounter .section 'data'
  28  0002              public _pushButtonState
  27  0002              #line 27 "c:\users\tech\desktop\powerlinetransceiver\Main\Main.c"
  27  0000              @HCCINIT_pushButtonState .section 'data'
  27  0000              _pushButtonState label byte
  27  0000              #pragma debug variable 8 1 _pushButtonState "pushButtonState"
  27  0000              	db 0
  27  0008              @ROMDATA_BASE .section inpage 'code'
  27  0008              	db 0
  27  0001              @HCCINIT_pushButtonState .section 'data'
  27  0001              public _i
  22  0001              #line 22 "c:\users\tech\desktop\powerlinetransceiver\Main\Main.c"
  22  0000              @HCCINIT_i .section 'data'
  22  0000              _i label byte
  22  0000              #pragma debug variable 11 1 _i "i"
  22  0000              	db 0
  22  0008              @ROMDATA_BASE .section inpage 'code'
  22  0008              	db 0
"File: Main.c        Assembler  Version HGASM0202      Page 17

  22  0001              @HCCINIT_i .section 'data'
  22  0001              	db 0
  22  0009              @ROMDATA_BASE .section inpage 'code'
  22  0009              	db 0
  22  0002              @HCCINIT_i .section 'data'
  22  0002              public _Stat
  21  0002              #line 21 "c:\users\tech\desktop\powerlinetransceiver\Main\Main.c"
  21  0000              @HCCINIT_Stat .section 'data'
  21  0000              _Stat label byte
  21  0000              #pragma debug variable 8 1 _Stat "Stat"
  21  0000              	db 0
  21  0009              @ROMDATA_BASE .section inpage 'code'
  21  0009              	db 0
  21  0001              @HCCINIT_Stat .section 'data'
  21  0001              public _CounterStatusCheck
  18  0001              #line 18 "c:\users\tech\desktop\powerlinetransceiver\Main\Main.c"
  18  0000              @HCCINIT_CounterStatusCheck .section 'data'
  18  0000              _CounterStatusCheck label byte
  18  0000              #pragma debug variable 12 1 _CounterStatusCheck "CounterStatusCheck"
  18  0000              	db 0
  18  000A              @ROMDATA_BASE .section inpage 'code'
  18  000A              	db 0
  18  0001              @HCCINIT_CounterStatusCheck .section 'data'
  18  0001              	db 0
  18  000A              @ROMDATA_BASE .section inpage 'code'
  18  000A              	db 0
  18  0002              @HCCINIT_CounterStatusCheck .section 'data'
  18  0002              public _CounterLED
  17  0002              #line 17 "c:\users\tech\desktop\powerlinetransceiver\Main\Main.c"
  17  0000              @HCCINIT_CounterLED .section 'data'
  17  0000              _CounterLED label byte
  17  0000              #pragma debug variable 12 1 _CounterLED "CounterLED"
  17  0000              	db 0
  17  000B              @ROMDATA_BASE .section inpage 'code'
  17  000B              	db 0
  17  0001              @HCCINIT_CounterLED .section 'data'
  17  0001              	db 0
  17  000B              @ROMDATA_BASE .section inpage 'code'
  17  000B              	db 0
  17  0002              @HCCINIT_CounterLED .section 'data'
  17  0002              public _Counter
  16  0002              #line 16 "c:\users\tech\desktop\powerlinetransceiver\Main\Main.c"
  16  0000              @HCCINIT_Counter .section 'data'
  16  0000              _Counter label byte
  16  0000              #pragma debug variable 14 1 _Counter "Counter"
  16  0000              	db 0
  16  000C              @ROMDATA_BASE .section inpage 'code'
  16  000C              	db 0
  16  0001              @HCCINIT_Counter .section 'data'
  16  0001              	db 0
  16  000C              @ROMDATA_BASE .section inpage 'code'
  16  000C              	db 0
  16  0002              @HCCINIT_Counter .section 'data'
  16  0002              	db 0
  16  000D              @ROMDATA_BASE .section inpage 'code'
  16  000D              	db 0
  16  0003              @HCCINIT_Counter .section 'data'
  16  0003              	db 0
  16  000D              @ROMDATA_BASE .section inpage 'code'
  16  000D              	db 0
"File: Main.c        Assembler  Version HGASM0202      Page 18

  16  0004              @HCCINIT_Counter .section 'data'
  16  0004              public _buffer_index
  13  0004              #line 13 "c:\users\tech\desktop\powerlinetransceiver\Main\Main.c"
  13  0000              @HCCINIT_buffer_index .section 'data'
  13  0000              _buffer_index label byte
  13  0000              #pragma debug variable 11 1 _buffer_index "buffer_index"
  13  0000              	db 0
  13  000E              @ROMDATA_BASE .section inpage 'code'
  13  000E              	db 0
  13  0001              @HCCINIT_buffer_index .section 'data'
  13  0001              	db 0
  13  000E              @ROMDATA_BASE .section inpage 'code'
  13  000E              	db 0
  13  0002              @HCCINIT_buffer_index .section 'data'
  12  0002              #line 12 "c:\users\tech\desktop\powerlinetransceiver\Main\Main.c"
  12  0002              public _buffer
  12  0000              @HCCINIT0_buffer .section 'data'
  12  0000  000C[       _buffer	db 12 dup(0)
            00
            ]
  12  000C              #pragma debug array 44 7 12 1
  12  000C              #pragma debug array 44 7 12 1
  12  000C              #pragma debug variable 44 1 _buffer "buffer"
  12  000C              
  12  0000              @HCCINIT .section 'data'
   9  0000              #line 9 "c:\users\tech\desktop\powerlinetransceiver\Main\Main.c"
   9  0000              public _temp
   9  0000              @HCCINIT0_temp .section 'data'
   9  0000  0002[       _temp	db 2 dup(0)
            00
            ]
   9  0002              #pragma debug variable 12 1 _temp "temp"
   9  0002              
   9  0000              @HCCINIT .section 'data'
   8  0000              #line 8 "c:\users\tech\desktop\powerlinetransceiver\Main\Main.c"
   8  0000              public _tx_busy
   8  0000              @HCCINIT0_tx_busy .section 'data'
   8  0000              _tx_busy	db 0
   8  0001              #pragma debug variable 7 1 _tx_busy "tx_busy"
   8  0001              
   8  0000              @HCCINIT .section 'data'
   7  0000              #line 7 "c:\users\tech\desktop\powerlinetransceiver\Main\Main.c"
   7  0000              public _frame
   7  0000              @HCCINIT0_frame .section 'data'
   7  0000  0002[       _frame	db 2 dup(0)
            00
            ]
   7  0002              #pragma debug pointer 45 10 1
   7  0002              #pragma debug pointer 45 10 1
   7  0002              #pragma debug variable 45 1 _frame "frame"
   7  0002              
   7  0000              @HCCINIT .section 'data'
   7  0000              #pragma debug struct_end
   7  0000              #pragma debug struct_end
   7  0000              #pragma debug union_end
   7  0000              #pragma debug union_end
   7  0000              #pragma debug variable 47 1 ___pa "__pa" 1
  42  0000              #line 42 "c:\users\tech\desktop\powerlinetransceiver\Main\Main.c"
  42  0000              @code .section at 0 'code'
  42  0000  2800     R  	jmp _main_startup1
"File: Main.c        Assembler  Version HGASM0202      Page 19

  42  0001              
  42  0001              extern _S_RCC_Init:near
  42  0001              extern _S_GPIO_Init:near
  42  0001              extern _IntrruptInit:near
  42  0001              extern _UART_Init_2:byte
  42  0001              extern _UART_Init:near
  42  0001              extern _PLT0Init:near
  42  0001              extern _PLT1Init:near
  42  0001              extern _UART_ReceiveNonBlocking:near
  42  0001              extern _UART_Transmit:near
  42  0001              extern _PLTAInit:near
  42  0001              extern _builtin_holtek_udivmodhi4_2:byte
  42  0001              extern _builtin_holtek_udivmodhi4:near
  42  0001              extern _PLTAOFF:near
  42  0001              extern _ADCInit:near
  42  0001              extern _ReadADC:near
  42  0001              extern _temperature_2:byte
  42  0001              extern _temperature:near
  42  0001              extern _builtin_holtek_mant1:byte
  42  0001              extern _builtin_holtek_mant2:byte
  42  0001              extern _builtin_holtek_ftmul:near
  42  0001              extern _builtin_holtek_mant12p:byte
  42  0001              extern _builtin_holtek_ftol:near
  42  0001              extern _InitSmokeDetection:near
  42  0001              extern _CheckSmokeLevel_2:byte
  42  0001              extern _CheckSmokeLevel:near
  42  0001              extern _SmokeDitectionOFF:near
  42  0001              extern _ADC_Inactive:near
  42  0001              
  42  0001              ; 
  42  0001              ; Generated by holtek-gcc v3.19, Sat Nov 23 12:34:34 2024
  42  0001              ; Rebuild 718
  42  0001              ; end of file


        0 Errors, 0