"File: Main.c        Assembler  Version HGASM0202      Page 1


   1  0000              ; Generated by holtek-gcc v3.19, Sat Oct 26 14:55:22 2024
   2  0000              ; 
   3  0000              ; Configuration:
   4  0000              ;       with long instruction
   5  0000              ;       Single ROM, Multi-RAM
   6  0000              ;       bits_per_rom_unit:16
   7  0000              ;       with mp1
   8  0000              ;       with tbhp, address(0x9)
   9  0000              ;          Use tabrd-const
  10  0000              ;       
  11  0000              ; SFR address of long-instruction arch:
  12  0000              ;    mp0 = -1,1,0
  13  0000              ;    mp1 = 4,3,2
  14  0000              ;    mp2 = 14,13,12
  15  0000              ;    tbp = 9,7,8
  16  0000              ;    acc = 5
  17  0000              ;    pcl = 6
  18  0000              ;    status = 10
  19  0000              ;    bp = 11
  20  0000              ;    intc = 72
  21  0000              ;       
  22  0000              ;       
  23  0000              ; use 'tabrdc' instead of 'tabrd'
  24  0000              ;       
  25  0000              
  26  0000              #pragma translator "holtek-gcc 4.6.4" "3.19" "build 20130711"
  27  0000              ; Rebuild 718
  28  0000              
  29  0000              ir equ [2]
  30  0000              mp equ [3]
  31  0000              sbp equ [4]
  32  0000              acc equ [5]
  33  0000              bp equ [11]
  34  0000              tblp equ [7]
  35  0000              tbhp equ [9]
  36  0000              status equ [10]
  37  0000              c equ [10].0
  38  0000              ac equ [10].1
  39  0000              z equ [10].2
  40  0000              ov equ [10].3
  41  0000              cz equ [10].6
  42  0000              sc equ [10].7
  43  0000              intc equ [72]
  44  0000              
  45  0000              extern ra:byte
  46  0000              extern rb:byte
  47  0000              extern rc:byte
  48  0000              extern rd:byte
  49  0000              extern re:byte
  50  0000              extern rf:byte
  51  0000              extern rg:byte
  52  0000              extern rh:byte
  53  0000              extern _Crom2Prom:near
  54  0000              extern _Crom2PromNext:near
  55  0000              
  56  0000              RAMBANK 0 @BITDATASEC, @BITDATASEC1
  57  0000              @HCCINIT	.section 'data'
  58  0000              @HCCINIT0	.section 'data'
  59  0000              @BITDATASEC	 .section 'data'
"File: Main.ASM      Assembler  Version HGASM0202      Page 2

  60  0000              @BITDATASEC1	 .section 'data'
  61  0000              
  62  0000              #pragma debug scope 1 1
  63  0000              	extern __DELAY3:near
  64  0000              	extern __DELAYX3:near
  65  0000              	extern __DELAYX6:near
  66  0000              	extern __DELAYY5:near
  67  0000              	extern __DELAYY3:near
  68  0000              	extern _builtin_holtek_delay_2:byte
  69  0000              ___pa equ [20]
  70  0000              public _main
  71  0000              #pragma debug scope 2 1

  12  0000              #line 12 "c:\users\tech\desktop\powerlinetransceiver\Main\Main.c"
  12  0000              IFDEF WITH_DEFAULT_STARTUP
  12  0000              extern _main_initial0:near
  12  0000              extern _main_startup:near
  12  0000              ENDIF
  12  0000              
  12  0000              ROMBANK 0 @start
  12  0000              @start .section com_l 'code'
  12  0000              _main_startup1:
  12  0000              @start .section com_e 'code'
  12  0000  2800     R  	jmp _main
  12  0001              
  12  0000              _main .section 'code'
  12  0000              _main proc
  12  0000  0004[           local _main_2 db 4 dup(?)
            00
            ]
  15  0004              #line 15 "c:\users\tech\desktop\powerlinetransceiver\Main\Main.c"
  15  0000  2000     E  	call _S_RCC_Init
  16  0001              #line 16 "c:\users\tech\desktop\powerlinetransceiver\Main\Main.c"
  16  0001  2000     E  	call _ADCInit
  17  0002              #line 17 "c:\users\tech\desktop\powerlinetransceiver\Main\Main.c"
  17  0002  2000     E  	call _S_GPIO_Init
  18  0003              #line 18 "c:\users\tech\desktop\powerlinetransceiver\Main\Main.c"
  18  0003  2000     E  	call _IntrruptInit
  19  0004              #line 19 "c:\users\tech\desktop\powerlinetransceiver\Main\Main.c"
  19  0004  0F80        	mov a,-128
  19  0005  0080     E  	mov _UART_Init_2[0],a
  19  0006  0F25        	mov a,37
  19  0007  0080     E  	mov _UART_Init_2[1],a
  19  0008  2000     E  	call _UART_Init
  20  0009              #line 20 "c:\users\tech\desktop\powerlinetransceiver\Main\Main.c"
  20  0009  2000     E  	call _PLT0Init
  21  000A              #line 21 "c:\users\tech\desktop\powerlinetransceiver\Main\Main.c"
  21  000A  2000     E  	call _PLT1Init
  22  000B              #line 22 "c:\users\tech\desktop\powerlinetransceiver\Main\Main.c"
  22  000B  2000     E  	call _PLTAInit
  23  000C              #line 23 "c:\users\tech\desktop\powerlinetransceiver\Main\Main.c"
  23  000C  2000     E  	call _InitSmokeDetection
  23  000D              _L2:
  48  000D              #line 48 "c:\users\tech\desktop\powerlinetransceiver\Main\Main.c"
  48  000D  2000     E  	call _OPA_ON
  49  000E              #line 49 "c:\users\tech\desktop\powerlinetransceiver\Main\Main.c"
  49  000E  2000     E  	call _ISINK0_ON
  53  000F              #line 53 "c:\users\tech\desktop\powerlinetransceiver\Main\Main.c"
  53  000F  3394        	set [20].7
  54  0010              #line 54 "c:\users\tech\desktop\powerlinetransceiver\Main\Main.c"
"File: Main.c        Assembler  Version HGASM0202      Page 3

  54  0010  0F01        	mov a,1
  54  0011  2000     E  	call _ReadADC
  54  0012  1F00     E  	clr _temperature_2[2]
  54  0013  0F40        	mov a,64
  54  0014  0080     E  	mov _temperature_2[3],a
  54  0015  0F40        	mov a,64
  54  0016  0080     E  	mov _temperature_2[4],a
  54  0017  0700     E  	mov a,ra
  54  0018  0080     E  	mov _temperature_2[0],a
  54  0019  0700     E  	mov a,rb
  54  001A  0080     E  	mov _temperature_2[1],a
  54  001B  2000     E  	call _temperature
  55  001C              #line 55 "c:\users\tech\desktop\powerlinetransceiver\Main\Main.c"
  55  001C  0700     E  	mov a,rc
  55  001D  0080     E  	mov _builtin_holtek_mant1[2],a
  55  001E  0700     E  	mov a,rb
  55  001F  0080     E  	mov _builtin_holtek_mant1[1],a
  55  0020  0700     E  	mov a,ra
  55  0021  0080     E  	mov _builtin_holtek_mant1[0],a
  55  0022  0F42        	mov a,66
  55  0023  0080     E  	mov _builtin_holtek_mant2[2],a
  55  0024  0FC8        	mov a,200
  55  0025  0080     E  	mov _builtin_holtek_mant2[1],a
  55  0026  0F00        	mov a,0
  55  0027  0080     E  	mov _builtin_holtek_mant2[0],a
  55  0028  2000     E  	call _builtin_holtek_ftmul
  55  0029  0700     E  	mov a,_builtin_holtek_mant1[2]
  55  002A  0080     E  	mov re,a
  55  002B  0700     E  	mov a,_builtin_holtek_mant1[1]
  55  002C  0080     E  	mov rd,a
  55  002D  0700     E  	mov a,_builtin_holtek_mant1[0]
  55  002E  0080     E  	mov rc,a
  55  002F  1F00     E  	clr _builtin_holtek_mant12p[0]
  55  0030  0700     E  	mov a,re
  55  0031  0080     E  	mov _builtin_holtek_mant1[2],a
  55  0032  0700     E  	mov a,rd
  55  0033  0080     E  	mov _builtin_holtek_mant1[1],a
  55  0034  0700     E  	mov a,rc
  55  0035  0080     E  	mov _builtin_holtek_mant1[0],a
  55  0036  2000     E  	call _builtin_holtek_ftol
  55  0037  0700     E  	mov a,_builtin_holtek_mant12p[0]
  55  0038  0080     R  	mov _main_2[3],a
  55  0039  0700     E  	mov a,_builtin_holtek_mant1[2]
  55  003A  0080     R  	mov _main_2[2],a
  55  003B  0700     E  	mov a,_builtin_holtek_mant1[1]
  55  003C  0080     R  	mov _main_2[1],a
  55  003D  0700     E  	mov a,_builtin_holtek_mant1[0]
  55  003E  0080     R  	mov _main_2[0],a
  57  003F              #line 57 "c:\users\tech\desktop\powerlinetransceiver\Main\Main.c"
  57  003F              ;# 57 "c:\users\tech\desktop\powerlinetransceiver\Main\Main.c" 1
  57  003F              	IF 1000>263690
  57  003F              ;# 57 "c:\users\tech\desktop\powerlinetransceiver\Main\Main.c" 1
  57  003F              	ERRMESSAGE 'the value 1000of the argument exceeds the maxinum 263690'
  57  003F              	ENDIF
  57  003F              ;# 57 "c:\users\tech\desktop\powerlinetransceiver\Main\Main.c" 1
  57  003F              	IF 1000<0
  57  003F              ;# 57 "c:\users\tech\desktop\powerlinetransceiver\Main\Main.c" 1
  57  003F              	ERRMESSAGE 'the value 1000 of the argument exceeds the mininum 0'
  57  003F              	ENDIF
  57  003F              ;# 57 "c:\users\tech\desktop\powerlinetransceiver\Main\Main.c" 1
"File: Main.c        Assembler  Version HGASM0202      Page 4

  57  003F              	IF 1000==0
  57  003F              ;# 57 "c:\users\tech\desktop\powerlinetransceiver\Main\Main.c" 1
  57  003F              	JMP $
  57  003F              	ENDIF
  57  003F              ;# 57 "c:\users\tech\desktop\powerlinetransceiver\Main\Main.c" 1
  57  003F              	IF 1000==1
  57  003F              ;# 57 "c:\users\tech\desktop\powerlinetransceiver\Main\Main.c" 1
  57  003F              	NOP
  57  003F              	ENDIF
  57  003F              ;# 57 "c:\users\tech\desktop\powerlinetransceiver\Main\Main.c" 1
  57  003F              	IF 1000==2
  57  003F              ;# 57 "c:\users\tech\desktop\powerlinetransceiver\Main\Main.c" 1
  57  003F              	NOP
  57  003F              ;# 57 "c:\users\tech\desktop\powerlinetransceiver\Main\Main.c" 1
  57  003F              	NOP
  57  003F              	ENDIF
  57  003F              ;# 57 "c:\users\tech\desktop\powerlinetransceiver\Main\Main.c" 1
  57  003F              	IF 1000==3
  57  003F              ;# 57 "c:\users\tech\desktop\powerlinetransceiver\Main\Main.c" 1
  57  003F              	NOP
  57  003F              ;# 57 "c:\users\tech\desktop\powerlinetransceiver\Main\Main.c" 1
  57  003F              	NOP
  57  003F              ;# 57 "c:\users\tech\desktop\powerlinetransceiver\Main\Main.c" 1
  57  003F              	NOP
  57  003F              	ENDIF
  57  003F              ;# 57 "c:\users\tech\desktop\powerlinetransceiver\Main\Main.c" 1
  57  003F              	IF (1000<8) AND (1000>3)
  57  003F              ;# 57 "c:\users\tech\desktop\powerlinetransceiver\Main\Main.c" 1
  57  003F              	CALL __DELAY3 + 7 -1000
  57  003F              	ENDIF
  57  003F              ;# 57 "c:\users\tech\desktop\powerlinetransceiver\Main\Main.c" 1
  57  003F              	IF (1000< 0404h) AND (1000>7)
  57  003F              ;# 57 "c:\users\tech\desktop\powerlinetransceiver\Main\Main.c" 1
  57  003F  0FF9        	MOV A,1000/4-1
  57  0040              ;# 57 "c:\users\tech\desktop\powerlinetransceiver\Main\Main.c" 1
  57  0040  2000     E  	CALL __DELAYX3 + 3 -(1000 MOD 4)
  57  0041              	ENDIF
  57  0041              ;# 57 "c:\users\tech\desktop\powerlinetransceiver\Main\Main.c" 1
  57  0041              	IF (1000< 0x40B) AND (1000> 0403h)
  57  0041              ;# 57 "c:\users\tech\desktop\powerlinetransceiver\Main\Main.c" 1
  57  0041              	MOV A,0 
  57  0041              ;# 57 "c:\users\tech\desktop\powerlinetransceiver\Main\Main.c" 1
  57  0041              	CALL __DELAYX6 + 0x40a -1000
  57  0041              	ENDIF
  57  0041              ;# 57 "c:\users\tech\desktop\powerlinetransceiver\Main\Main.c" 1
  57  0041              	IF (1000 >= 0x40b) AND ((((1000-9)%0402h)/4+1)>256)
  57  0041              ;# 57 "c:\users\tech\desktop\powerlinetransceiver\Main\Main.c" 1
  57  0041              	MOV A,(1000-9)/0402h
  57  0041              ;# 57 "c:\users\tech\desktop\powerlinetransceiver\Main\Main.c" 1
  57  0041              	MOV _builtin_holtek_delay_2,A
  57  0041              ;# 57 "c:\users\tech\desktop\powerlinetransceiver\Main\Main.c" 1
  57  0041              	MOV A,0
  57  0041              ;# 57 "c:\users\tech\desktop\powerlinetransceiver\Main\Main.c" 1
  57  0041              	CALL __DELAYY5 +5- (((1000-9)%0402h)%6)
  57  0041              	ENDIF
  57  0041              ;# 57 "c:\users\tech\desktop\powerlinetransceiver\Main\Main.c" 1
  57  0041              	IF (1000 >= 0x40b) AND ((((1000-9)%0402h)/4+1)<=256)
  57  0041              ;# 57 "c:\users\tech\desktop\powerlinetransceiver\Main\Main.c" 1
  57  0041              	MOV A,(1000-9)/0402h
  57  0041              ;# 57 "c:\users\tech\desktop\powerlinetransceiver\Main\Main.c" 1
"File: Main.c        Assembler  Version HGASM0202      Page 5

  57  0041              	MOV _builtin_holtek_delay_2,A
  57  0041              ;# 57 "c:\users\tech\desktop\powerlinetransceiver\Main\Main.c" 1
  57  0041              	MOV A,((1000-9)%0402h)/4+1
  57  0041              ;# 57 "c:\users\tech\desktop\powerlinetransceiver\Main\Main.c" 1
  57  0041              	CALL __DELAYY3 +3-(((1000-9)%0402h)%4)
  57  0041              	ENDIF
  58  0041              #line 58 "c:\users\tech\desktop\powerlinetransceiver\Main\Main.c"
  58  0041              ;# 58 "c:\users\tech\desktop\powerlinetransceiver\Main\Main.c" 1
  58  0041              	IF 1000>263690
  58  0041              ;# 58 "c:\users\tech\desktop\powerlinetransceiver\Main\Main.c" 1
  58  0041              	ERRMESSAGE 'the value 1000of the argument exceeds the maxinum 263690'
  58  0041              	ENDIF
  58  0041              ;# 58 "c:\users\tech\desktop\powerlinetransceiver\Main\Main.c" 1
  58  0041              	IF 1000<0
  58  0041              ;# 58 "c:\users\tech\desktop\powerlinetransceiver\Main\Main.c" 1
  58  0041              	ERRMESSAGE 'the value 1000 of the argument exceeds the mininum 0'
  58  0041              	ENDIF
  58  0041              ;# 58 "c:\users\tech\desktop\powerlinetransceiver\Main\Main.c" 1
  58  0041              	IF 1000==0
  58  0041              ;# 58 "c:\users\tech\desktop\powerlinetransceiver\Main\Main.c" 1
  58  0041              	JMP $
  58  0041              	ENDIF
  58  0041              ;# 58 "c:\users\tech\desktop\powerlinetransceiver\Main\Main.c" 1
  58  0041              	IF 1000==1
  58  0041              ;# 58 "c:\users\tech\desktop\powerlinetransceiver\Main\Main.c" 1
  58  0041              	NOP
  58  0041              	ENDIF
  58  0041              ;# 58 "c:\users\tech\desktop\powerlinetransceiver\Main\Main.c" 1
  58  0041              	IF 1000==2
  58  0041              ;# 58 "c:\users\tech\desktop\powerlinetransceiver\Main\Main.c" 1
  58  0041              	NOP
  58  0041              ;# 58 "c:\users\tech\desktop\powerlinetransceiver\Main\Main.c" 1
  58  0041              	NOP
  58  0041              	ENDIF
  58  0041              ;# 58 "c:\users\tech\desktop\powerlinetransceiver\Main\Main.c" 1
  58  0041              	IF 1000==3
  58  0041              ;# 58 "c:\users\tech\desktop\powerlinetransceiver\Main\Main.c" 1
  58  0041              	NOP
  58  0041              ;# 58 "c:\users\tech\desktop\powerlinetransceiver\Main\Main.c" 1
  58  0041              	NOP
  58  0041              ;# 58 "c:\users\tech\desktop\powerlinetransceiver\Main\Main.c" 1
  58  0041              	NOP
  58  0041              	ENDIF
  58  0041              ;# 58 "c:\users\tech\desktop\powerlinetransceiver\Main\Main.c" 1
  58  0041              	IF (1000<8) AND (1000>3)
  58  0041              ;# 58 "c:\users\tech\desktop\powerlinetransceiver\Main\Main.c" 1
  58  0041              	CALL __DELAY3 + 7 -1000
  58  0041              	ENDIF
  58  0041              ;# 58 "c:\users\tech\desktop\powerlinetransceiver\Main\Main.c" 1
  58  0041              	IF (1000< 0404h) AND (1000>7)
  58  0041              ;# 58 "c:\users\tech\desktop\powerlinetransceiver\Main\Main.c" 1
  58  0041  0FF9        	MOV A,1000/4-1
  58  0042              ;# 58 "c:\users\tech\desktop\powerlinetransceiver\Main\Main.c" 1
  58  0042  2000     E  	CALL __DELAYX3 + 3 -(1000 MOD 4)
  58  0043              	ENDIF
  58  0043              ;# 58 "c:\users\tech\desktop\powerlinetransceiver\Main\Main.c" 1
  58  0043              	IF (1000< 0x40B) AND (1000> 0403h)
  58  0043              ;# 58 "c:\users\tech\desktop\powerlinetransceiver\Main\Main.c" 1
  58  0043              	MOV A,0 
  58  0043              ;# 58 "c:\users\tech\desktop\powerlinetransceiver\Main\Main.c" 1
"File: Main.c        Assembler  Version HGASM0202      Page 6

  58  0043              	CALL __DELAYX6 + 0x40a -1000
  58  0043              	ENDIF
  58  0043              ;# 58 "c:\users\tech\desktop\powerlinetransceiver\Main\Main.c" 1
  58  0043              	IF (1000 >= 0x40b) AND ((((1000-9)%0402h)/4+1)>256)
  58  0043              ;# 58 "c:\users\tech\desktop\powerlinetransceiver\Main\Main.c" 1
  58  0043              	MOV A,(1000-9)/0402h
  58  0043              ;# 58 "c:\users\tech\desktop\powerlinetransceiver\Main\Main.c" 1
  58  0043              	MOV _builtin_holtek_delay_2,A
  58  0043              ;# 58 "c:\users\tech\desktop\powerlinetransceiver\Main\Main.c" 1
  58  0043              	MOV A,0
  58  0043              ;# 58 "c:\users\tech\desktop\powerlinetransceiver\Main\Main.c" 1
  58  0043              	CALL __DELAYY5 +5- (((1000-9)%0402h)%6)
  58  0043              	ENDIF
  58  0043              ;# 58 "c:\users\tech\desktop\powerlinetransceiver\Main\Main.c" 1
  58  0043              	IF (1000 >= 0x40b) AND ((((1000-9)%0402h)/4+1)<=256)
  58  0043              ;# 58 "c:\users\tech\desktop\powerlinetransceiver\Main\Main.c" 1
  58  0043              	MOV A,(1000-9)/0402h
  58  0043              ;# 58 "c:\users\tech\desktop\powerlinetransceiver\Main\Main.c" 1
  58  0043              	MOV _builtin_holtek_delay_2,A
  58  0043              ;# 58 "c:\users\tech\desktop\powerlinetransceiver\Main\Main.c" 1
  58  0043              	MOV A,((1000-9)%0402h)/4+1
  58  0043              ;# 58 "c:\users\tech\desktop\powerlinetransceiver\Main\Main.c" 1
  58  0043              	CALL __DELAYY3 +3-(((1000-9)%0402h)%4)
  58  0043              	ENDIF
  59  0043              #line 59 "c:\users\tech\desktop\powerlinetransceiver\Main\Main.c"
  59  0043  2000     E  	call _ISINK0_OFF
  60  0044              #line 60 "c:\users\tech\desktop\powerlinetransceiver\Main\Main.c"
  60  0044  2000     E  	call _OPA_OFF
  61  0045              #line 61 "c:\users\tech\desktop\powerlinetransceiver\Main\Main.c"
  61  0045              ;# 61 "c:\users\tech\desktop\powerlinetransceiver\Main\Main.c" 1
  61  0045              	IF 1000>263690
  61  0045              ;# 61 "c:\users\tech\desktop\powerlinetransceiver\Main\Main.c" 1
  61  0045              	ERRMESSAGE 'the value 1000of the argument exceeds the maxinum 263690'
  61  0045              	ENDIF
  61  0045              ;# 61 "c:\users\tech\desktop\powerlinetransceiver\Main\Main.c" 1
  61  0045              	IF 1000<0
  61  0045              ;# 61 "c:\users\tech\desktop\powerlinetransceiver\Main\Main.c" 1
  61  0045              	ERRMESSAGE 'the value 1000 of the argument exceeds the mininum 0'
  61  0045              	ENDIF
  61  0045              ;# 61 "c:\users\tech\desktop\powerlinetransceiver\Main\Main.c" 1
  61  0045              	IF 1000==0
  61  0045              ;# 61 "c:\users\tech\desktop\powerlinetransceiver\Main\Main.c" 1
  61  0045              	JMP $
  61  0045              	ENDIF
  61  0045              ;# 61 "c:\users\tech\desktop\powerlinetransceiver\Main\Main.c" 1
  61  0045              	IF 1000==1
  61  0045              ;# 61 "c:\users\tech\desktop\powerlinetransceiver\Main\Main.c" 1
  61  0045              	NOP
  61  0045              	ENDIF
  61  0045              ;# 61 "c:\users\tech\desktop\powerlinetransceiver\Main\Main.c" 1
  61  0045              	IF 1000==2
  61  0045              ;# 61 "c:\users\tech\desktop\powerlinetransceiver\Main\Main.c" 1
  61  0045              	NOP
  61  0045              ;# 61 "c:\users\tech\desktop\powerlinetransceiver\Main\Main.c" 1
  61  0045              	NOP
  61  0045              	ENDIF
  61  0045              ;# 61 "c:\users\tech\desktop\powerlinetransceiver\Main\Main.c" 1
  61  0045              	IF 1000==3
  61  0045              ;# 61 "c:\users\tech\desktop\powerlinetransceiver\Main\Main.c" 1
  61  0045              	NOP
"File: Main.c        Assembler  Version HGASM0202      Page 7

  61  0045              ;# 61 "c:\users\tech\desktop\powerlinetransceiver\Main\Main.c" 1
  61  0045              	NOP
  61  0045              ;# 61 "c:\users\tech\desktop\powerlinetransceiver\Main\Main.c" 1
  61  0045              	NOP
  61  0045              	ENDIF
  61  0045              ;# 61 "c:\users\tech\desktop\powerlinetransceiver\Main\Main.c" 1
  61  0045              	IF (1000<8) AND (1000>3)
  61  0045              ;# 61 "c:\users\tech\desktop\powerlinetransceiver\Main\Main.c" 1
  61  0045              	CALL __DELAY3 + 7 -1000
  61  0045              	ENDIF
  61  0045              ;# 61 "c:\users\tech\desktop\powerlinetransceiver\Main\Main.c" 1
  61  0045              	IF (1000< 0404h) AND (1000>7)
  61  0045              ;# 61 "c:\users\tech\desktop\powerlinetransceiver\Main\Main.c" 1
  61  0045  0FF9        	MOV A,1000/4-1
  61  0046              ;# 61 "c:\users\tech\desktop\powerlinetransceiver\Main\Main.c" 1
  61  0046  2000     E  	CALL __DELAYX3 + 3 -(1000 MOD 4)
  61  0047              	ENDIF
  61  0047              ;# 61 "c:\users\tech\desktop\powerlinetransceiver\Main\Main.c" 1
  61  0047              	IF (1000< 0x40B) AND (1000> 0403h)
  61  0047              ;# 61 "c:\users\tech\desktop\powerlinetransceiver\Main\Main.c" 1
  61  0047              	MOV A,0 
  61  0047              ;# 61 "c:\users\tech\desktop\powerlinetransceiver\Main\Main.c" 1
  61  0047              	CALL __DELAYX6 + 0x40a -1000
  61  0047              	ENDIF
  61  0047              ;# 61 "c:\users\tech\desktop\powerlinetransceiver\Main\Main.c" 1
  61  0047              	IF (1000 >= 0x40b) AND ((((1000-9)%0402h)/4+1)>256)
  61  0047              ;# 61 "c:\users\tech\desktop\powerlinetransceiver\Main\Main.c" 1
  61  0047              	MOV A,(1000-9)/0402h
  61  0047              ;# 61 "c:\users\tech\desktop\powerlinetransceiver\Main\Main.c" 1
  61  0047              	MOV _builtin_holtek_delay_2,A
  61  0047              ;# 61 "c:\users\tech\desktop\powerlinetransceiver\Main\Main.c" 1
  61  0047              	MOV A,0
  61  0047              ;# 61 "c:\users\tech\desktop\powerlinetransceiver\Main\Main.c" 1
  61  0047              	CALL __DELAYY5 +5- (((1000-9)%0402h)%6)
  61  0047              	ENDIF
  61  0047              ;# 61 "c:\users\tech\desktop\powerlinetransceiver\Main\Main.c" 1
  61  0047              	IF (1000 >= 0x40b) AND ((((1000-9)%0402h)/4+1)<=256)
  61  0047              ;# 61 "c:\users\tech\desktop\powerlinetransceiver\Main\Main.c" 1
  61  0047              	MOV A,(1000-9)/0402h
  61  0047              ;# 61 "c:\users\tech\desktop\powerlinetransceiver\Main\Main.c" 1
  61  0047              	MOV _builtin_holtek_delay_2,A
  61  0047              ;# 61 "c:\users\tech\desktop\powerlinetransceiver\Main\Main.c" 1
  61  0047              	MOV A,((1000-9)%0402h)/4+1
  61  0047              ;# 61 "c:\users\tech\desktop\powerlinetransceiver\Main\Main.c" 1
  61  0047              	CALL __DELAYY3 +3-(((1000-9)%0402h)%4)
  61  0047              	ENDIF
  62  0047              #line 62 "c:\users\tech\desktop\powerlinetransceiver\Main\Main.c"
  62  0047              ;# 62 "c:\users\tech\desktop\powerlinetransceiver\Main\Main.c" 1
  62  0047  0001        	clr wdt
  63  0048              #line 63 "c:\users\tech\desktop\powerlinetransceiver\Main\Main.c"
  63  0048              ;# 63 "c:\users\tech\desktop\powerlinetransceiver\Main\Main.c" 1
  63  0048              	IF 20000>263690
  63  0048              ;# 63 "c:\users\tech\desktop\powerlinetransceiver\Main\Main.c" 1
  63  0048              	ERRMESSAGE 'the value 20000of the argument exceeds the maxinum 263690'
  63  0048              	ENDIF
  63  0048              ;# 63 "c:\users\tech\desktop\powerlinetransceiver\Main\Main.c" 1
  63  0048              	IF 20000<0
  63  0048              ;# 63 "c:\users\tech\desktop\powerlinetransceiver\Main\Main.c" 1
  63  0048              	ERRMESSAGE 'the value 20000 of the argument exceeds the mininum 0'
  63  0048              	ENDIF
"File: Main.c        Assembler  Version HGASM0202      Page 8

  63  0048              ;# 63 "c:\users\tech\desktop\powerlinetransceiver\Main\Main.c" 1
  63  0048              	IF 20000==0
  63  0048              ;# 63 "c:\users\tech\desktop\powerlinetransceiver\Main\Main.c" 1
  63  0048              	JMP $
  63  0048              	ENDIF
  63  0048              ;# 63 "c:\users\tech\desktop\powerlinetransceiver\Main\Main.c" 1
  63  0048              	IF 20000==1
  63  0048              ;# 63 "c:\users\tech\desktop\powerlinetransceiver\Main\Main.c" 1
  63  0048              	NOP
  63  0048              	ENDIF
  63  0048              ;# 63 "c:\users\tech\desktop\powerlinetransceiver\Main\Main.c" 1
  63  0048              	IF 20000==2
  63  0048              ;# 63 "c:\users\tech\desktop\powerlinetransceiver\Main\Main.c" 1
  63  0048              	NOP
  63  0048              ;# 63 "c:\users\tech\desktop\powerlinetransceiver\Main\Main.c" 1
  63  0048              	NOP
  63  0048              	ENDIF
  63  0048              ;# 63 "c:\users\tech\desktop\powerlinetransceiver\Main\Main.c" 1
  63  0048              	IF 20000==3
  63  0048              ;# 63 "c:\users\tech\desktop\powerlinetransceiver\Main\Main.c" 1
  63  0048              	NOP
  63  0048              ;# 63 "c:\users\tech\desktop\powerlinetransceiver\Main\Main.c" 1
  63  0048              	NOP
  63  0048              ;# 63 "c:\users\tech\desktop\powerlinetransceiver\Main\Main.c" 1
  63  0048              	NOP
  63  0048              	ENDIF
  63  0048              ;# 63 "c:\users\tech\desktop\powerlinetransceiver\Main\Main.c" 1
  63  0048              	IF (20000<8) AND (20000>3)
  63  0048              ;# 63 "c:\users\tech\desktop\powerlinetransceiver\Main\Main.c" 1
  63  0048              	CALL __DELAY3 + 7 -20000
  63  0048              	ENDIF
  63  0048              ;# 63 "c:\users\tech\desktop\powerlinetransceiver\Main\Main.c" 1
  63  0048              	IF (20000< 0404h) AND (20000>7)
  63  0048              ;# 63 "c:\users\tech\desktop\powerlinetransceiver\Main\Main.c" 1
  63  0048              	MOV A,20000/4-1
  63  0048              ;# 63 "c:\users\tech\desktop\powerlinetransceiver\Main\Main.c" 1
  63  0048              	CALL __DELAYX3 + 3 -(20000 MOD 4)
  63  0048              	ENDIF
  63  0048              ;# 63 "c:\users\tech\desktop\powerlinetransceiver\Main\Main.c" 1
  63  0048              	IF (20000< 0x40B) AND (20000> 0403h)
  63  0048              ;# 63 "c:\users\tech\desktop\powerlinetransceiver\Main\Main.c" 1
  63  0048              	MOV A,0 
  63  0048              ;# 63 "c:\users\tech\desktop\powerlinetransceiver\Main\Main.c" 1
  63  0048              	CALL __DELAYX6 + 0x40a -20000
  63  0048              	ENDIF
  63  0048              ;# 63 "c:\users\tech\desktop\powerlinetransceiver\Main\Main.c" 1
  63  0048              	IF (20000 >= 0x40b) AND ((((20000-9)%0402h)/4+1)>256)
  63  0048              ;# 63 "c:\users\tech\desktop\powerlinetransceiver\Main\Main.c" 1
  63  0048              	MOV A,(20000-9)/0402h
  63  0048              ;# 63 "c:\users\tech\desktop\powerlinetransceiver\Main\Main.c" 1
  63  0048              	MOV _builtin_holtek_delay_2,A
  63  0048              ;# 63 "c:\users\tech\desktop\powerlinetransceiver\Main\Main.c" 1
  63  0048              	MOV A,0
  63  0048              ;# 63 "c:\users\tech\desktop\powerlinetransceiver\Main\Main.c" 1
  63  0048              	CALL __DELAYY5 +5- (((20000-9)%0402h)%6)
  63  0048              	ENDIF
  63  0048              ;# 63 "c:\users\tech\desktop\powerlinetransceiver\Main\Main.c" 1
  63  0048              	IF (20000 >= 0x40b) AND ((((20000-9)%0402h)/4+1)<=256)
  63  0048              ;# 63 "c:\users\tech\desktop\powerlinetransceiver\Main\Main.c" 1
  63  0048  0F13        	MOV A,(20000-9)/0402h
"File: Main.c        Assembler  Version HGASM0202      Page 9

  63  0049              ;# 63 "c:\users\tech\desktop\powerlinetransceiver\Main\Main.c" 1
  63  0049  0080     E  	MOV _builtin_holtek_delay_2,A
  63  004A              ;# 63 "c:\users\tech\desktop\powerlinetransceiver\Main\Main.c" 1
  63  004A  0F7D        	MOV A,((20000-9)%0402h)/4+1
  63  004B              ;# 63 "c:\users\tech\desktop\powerlinetransceiver\Main\Main.c" 1
  63  004B  2000     E  	CALL __DELAYY3 +3-(((20000-9)%0402h)%4)
  63  004C              	ENDIF
  64  004C              #line 64 "c:\users\tech\desktop\powerlinetransceiver\Main\Main.c"
  64  004C              ;# 64 "c:\users\tech\desktop\powerlinetransceiver\Main\Main.c" 1
  64  004C  0001        	clr wdt
  65  004D              #line 65 "c:\users\tech\desktop\powerlinetransceiver\Main\Main.c"
  65  004D              ;# 65 "c:\users\tech\desktop\powerlinetransceiver\Main\Main.c" 1
  65  004D              	IF 20000>263690
  65  004D              ;# 65 "c:\users\tech\desktop\powerlinetransceiver\Main\Main.c" 1
  65  004D              	ERRMESSAGE 'the value 20000of the argument exceeds the maxinum 263690'
  65  004D              	ENDIF
  65  004D              ;# 65 "c:\users\tech\desktop\powerlinetransceiver\Main\Main.c" 1
  65  004D              	IF 20000<0
  65  004D              ;# 65 "c:\users\tech\desktop\powerlinetransceiver\Main\Main.c" 1
  65  004D              	ERRMESSAGE 'the value 20000 of the argument exceeds the mininum 0'
  65  004D              	ENDIF
  65  004D              ;# 65 "c:\users\tech\desktop\powerlinetransceiver\Main\Main.c" 1
  65  004D              	IF 20000==0
  65  004D              ;# 65 "c:\users\tech\desktop\powerlinetransceiver\Main\Main.c" 1
  65  004D              	JMP $
  65  004D              	ENDIF
  65  004D              ;# 65 "c:\users\tech\desktop\powerlinetransceiver\Main\Main.c" 1
  65  004D              	IF 20000==1
  65  004D              ;# 65 "c:\users\tech\desktop\powerlinetransceiver\Main\Main.c" 1
  65  004D              	NOP
  65  004D              	ENDIF
  65  004D              ;# 65 "c:\users\tech\desktop\powerlinetransceiver\Main\Main.c" 1
  65  004D              	IF 20000==2
  65  004D              ;# 65 "c:\users\tech\desktop\powerlinetransceiver\Main\Main.c" 1
  65  004D              	NOP
  65  004D              ;# 65 "c:\users\tech\desktop\powerlinetransceiver\Main\Main.c" 1
  65  004D              	NOP
  65  004D              	ENDIF
  65  004D              ;# 65 "c:\users\tech\desktop\powerlinetransceiver\Main\Main.c" 1
  65  004D              	IF 20000==3
  65  004D              ;# 65 "c:\users\tech\desktop\powerlinetransceiver\Main\Main.c" 1
  65  004D              	NOP
  65  004D              ;# 65 "c:\users\tech\desktop\powerlinetransceiver\Main\Main.c" 1
  65  004D              	NOP
  65  004D              ;# 65 "c:\users\tech\desktop\powerlinetransceiver\Main\Main.c" 1
  65  004D              	NOP
  65  004D              	ENDIF
  65  004D              ;# 65 "c:\users\tech\desktop\powerlinetransceiver\Main\Main.c" 1
  65  004D              	IF (20000<8) AND (20000>3)
  65  004D              ;# 65 "c:\users\tech\desktop\powerlinetransceiver\Main\Main.c" 1
  65  004D              	CALL __DELAY3 + 7 -20000
  65  004D              	ENDIF
  65  004D              ;# 65 "c:\users\tech\desktop\powerlinetransceiver\Main\Main.c" 1
  65  004D              	IF (20000< 0404h) AND (20000>7)
  65  004D              ;# 65 "c:\users\tech\desktop\powerlinetransceiver\Main\Main.c" 1
  65  004D              	MOV A,20000/4-1
  65  004D              ;# 65 "c:\users\tech\desktop\powerlinetransceiver\Main\Main.c" 1
  65  004D              	CALL __DELAYX3 + 3 -(20000 MOD 4)
  65  004D              	ENDIF
  65  004D              ;# 65 "c:\users\tech\desktop\powerlinetransceiver\Main\Main.c" 1
"File: Main.c        Assembler  Version HGASM0202      Page 10

  65  004D              	IF (20000< 0x40B) AND (20000> 0403h)
  65  004D              ;# 65 "c:\users\tech\desktop\powerlinetransceiver\Main\Main.c" 1
  65  004D              	MOV A,0 
  65  004D              ;# 65 "c:\users\tech\desktop\powerlinetransceiver\Main\Main.c" 1
  65  004D              	CALL __DELAYX6 + 0x40a -20000
  65  004D              	ENDIF
  65  004D              ;# 65 "c:\users\tech\desktop\powerlinetransceiver\Main\Main.c" 1
  65  004D              	IF (20000 >= 0x40b) AND ((((20000-9)%0402h)/4+1)>256)
  65  004D              ;# 65 "c:\users\tech\desktop\powerlinetransceiver\Main\Main.c" 1
  65  004D              	MOV A,(20000-9)/0402h
  65  004D              ;# 65 "c:\users\tech\desktop\powerlinetransceiver\Main\Main.c" 1
  65  004D              	MOV _builtin_holtek_delay_2,A
  65  004D              ;# 65 "c:\users\tech\desktop\powerlinetransceiver\Main\Main.c" 1
  65  004D              	MOV A,0
  65  004D              ;# 65 "c:\users\tech\desktop\powerlinetransceiver\Main\Main.c" 1
  65  004D              	CALL __DELAYY5 +5- (((20000-9)%0402h)%6)
  65  004D              	ENDIF
  65  004D              ;# 65 "c:\users\tech\desktop\powerlinetransceiver\Main\Main.c" 1
  65  004D              	IF (20000 >= 0x40b) AND ((((20000-9)%0402h)/4+1)<=256)
  65  004D              ;# 65 "c:\users\tech\desktop\powerlinetransceiver\Main\Main.c" 1
  65  004D  0F13        	MOV A,(20000-9)/0402h
  65  004E              ;# 65 "c:\users\tech\desktop\powerlinetransceiver\Main\Main.c" 1
  65  004E  0080     E  	MOV _builtin_holtek_delay_2,A
  65  004F              ;# 65 "c:\users\tech\desktop\powerlinetransceiver\Main\Main.c" 1
  65  004F  0F7D        	MOV A,((20000-9)%0402h)/4+1
  65  0050              ;# 65 "c:\users\tech\desktop\powerlinetransceiver\Main\Main.c" 1
  65  0050  2000     E  	CALL __DELAYY3 +3-(((20000-9)%0402h)%4)
  65  0051              	ENDIF
  67  0051              #line 67 "c:\users\tech\desktop\powerlinetransceiver\Main\Main.c"
  67  0051  1F00     E  	clr _builtin_holtek_udivmodhi4_2[6]
  67  0052  0700     R  	mov a,_main_2[0]  
  67  0053  0080     E  	mov _builtin_holtek_udivmodhi4_2[0],a  
  67  0054  0700     R  	mov a,_main_2[1]  
  67  0055  0080     E  	mov _builtin_holtek_udivmodhi4_2[1],a
  67  0056  0FE8        	mov a,232  
  67  0057  0080     E  	mov _builtin_holtek_udivmodhi4_2[2],a  
  67  0058  0F03        	mov a,3  
  67  0059  0080     E  	mov _builtin_holtek_udivmodhi4_2[3],a
  67  005A  2000     E  	call _builtin_holtek_udivmodhi4
  67  005B  0700     E  	mov a,_builtin_holtek_udivmodhi4_2[0]  
  67  005C  0080     E  	mov rb,a  
  67  005D  0700     E  	mov a,_builtin_holtek_udivmodhi4_2[1]  
  67  005E  0080     E  	mov rc,a
  67  005F  1F00     E  	clr _builtin_holtek_udivmodhi4_2[6]
  67  0060  0700     E  	mov a,rb  
  67  0061  0080     E  	mov _builtin_holtek_udivmodhi4_2[0],a  
  67  0062  0700     E  	mov a,rc  
  67  0063  0080     E  	mov _builtin_holtek_udivmodhi4_2[1],a
  67  0064  0F0A        	mov a,10  
  67  0065  0080     E  	mov _builtin_holtek_udivmodhi4_2[2],a  
  67  0066  1F00     E  	clr _builtin_holtek_udivmodhi4_2[3]
  67  0067  2000     E  	call _builtin_holtek_udivmodhi4
  67  0068  0700     E  	mov a,_builtin_holtek_udivmodhi4_2[4]  
  67  0069  0080     E  	mov rb,a  
  67  006A  0700     E  	mov a,_builtin_holtek_udivmodhi4_2[5]  
  67  006B  0080     E  	mov rc,a
  67  006C  0F30        	mov a,48
  67  006D  0380     E  	addm a,rb
  67  006E  0700     E  	mov a,rb
  67  006F  2000     E  	call _UART_Transmit
"File: Main.c        Assembler  Version HGASM0202      Page 11

  68  0070              #line 68 "c:\users\tech\desktop\powerlinetransceiver\Main\Main.c"
  68  0070  1F00     E  	clr _builtin_holtek_udivmodhi4_2[6]
  68  0071  0700     R  	mov a,_main_2[0]  
  68  0072  0080     E  	mov _builtin_holtek_udivmodhi4_2[0],a  
  68  0073  0700     R  	mov a,_main_2[1]  
  68  0074  0080     E  	mov _builtin_holtek_udivmodhi4_2[1],a
  68  0075  0F64        	mov a,100  
  68  0076  0080     E  	mov _builtin_holtek_udivmodhi4_2[2],a  
  68  0077  1F00     E  	clr _builtin_holtek_udivmodhi4_2[3]
  68  0078  2000     E  	call _builtin_holtek_udivmodhi4
  68  0079  0700     E  	mov a,_builtin_holtek_udivmodhi4_2[0]  
  68  007A  0080     E  	mov rb,a  
  68  007B  0700     E  	mov a,_builtin_holtek_udivmodhi4_2[1]  
  68  007C  0080     E  	mov rc,a
  68  007D  1F00     E  	clr _builtin_holtek_udivmodhi4_2[6]
  68  007E  0700     E  	mov a,rb  
  68  007F  0080     E  	mov _builtin_holtek_udivmodhi4_2[0],a  
  68  0080  0700     E  	mov a,rc  
  68  0081  0080     E  	mov _builtin_holtek_udivmodhi4_2[1],a
  68  0082  0F0A        	mov a,10  
  68  0083  0080     E  	mov _builtin_holtek_udivmodhi4_2[2],a  
  68  0084  1F00     E  	clr _builtin_holtek_udivmodhi4_2[3]
  68  0085  2000     E  	call _builtin_holtek_udivmodhi4
  68  0086  0700     E  	mov a,_builtin_holtek_udivmodhi4_2[4]  
  68  0087  0080     E  	mov rb,a  
  68  0088  0700     E  	mov a,_builtin_holtek_udivmodhi4_2[5]  
  68  0089  0080     E  	mov rc,a
  68  008A  0F30        	mov a,48
  68  008B  0380     E  	addm a,rb
  68  008C  0700     E  	mov a,rb
  68  008D  2000     E  	call _UART_Transmit
  69  008E              #line 69 "c:\users\tech\desktop\powerlinetransceiver\Main\Main.c"
  69  008E  1F00     E  	clr _builtin_holtek_udivmodhi4_2[6]
  69  008F  0700     R  	mov a,_main_2[0]  
  69  0090  0080     E  	mov _builtin_holtek_udivmodhi4_2[0],a  
  69  0091  0700     R  	mov a,_main_2[1]  
  69  0092  0080     E  	mov _builtin_holtek_udivmodhi4_2[1],a
  69  0093  0F0A        	mov a,10  
  69  0094  0080     E  	mov _builtin_holtek_udivmodhi4_2[2],a  
  69  0095  1F00     E  	clr _builtin_holtek_udivmodhi4_2[3]
  69  0096  2000     E  	call _builtin_holtek_udivmodhi4
  69  0097  0700     E  	mov a,_builtin_holtek_udivmodhi4_2[0]  
  69  0098  0080     E  	mov rb,a  
  69  0099  0700     E  	mov a,_builtin_holtek_udivmodhi4_2[1]  
  69  009A  0080     E  	mov rc,a
  69  009B  1F00     E  	clr _builtin_holtek_udivmodhi4_2[6]
  69  009C  0700     E  	mov a,rb  
  69  009D  0080     E  	mov _builtin_holtek_udivmodhi4_2[0],a  
  69  009E  0700     E  	mov a,rc  
  69  009F  0080     E  	mov _builtin_holtek_udivmodhi4_2[1],a
  69  00A0  0F0A        	mov a,10  
  69  00A1  0080     E  	mov _builtin_holtek_udivmodhi4_2[2],a  
  69  00A2  1F00     E  	clr _builtin_holtek_udivmodhi4_2[3]
  69  00A3  2000     E  	call _builtin_holtek_udivmodhi4
  69  00A4  0700     E  	mov a,_builtin_holtek_udivmodhi4_2[4]  
  69  00A5  0080     E  	mov rb,a  
  69  00A6  0700     E  	mov a,_builtin_holtek_udivmodhi4_2[5]  
  69  00A7  0080     E  	mov rc,a
  69  00A8  0F30        	mov a,48
  69  00A9  0380     E  	addm a,rb
"File: Main.c        Assembler  Version HGASM0202      Page 12

  69  00AA  0700     E  	mov a,rb
  69  00AB  2000     E  	call _UART_Transmit
  70  00AC              #line 70 "c:\users\tech\desktop\powerlinetransceiver\Main\Main.c"
  70  00AC  1F00     E  	clr _builtin_holtek_udivmodhi4_2[6]
  70  00AD  0700     R  	mov a,_main_2[0]  
  70  00AE  0080     E  	mov _builtin_holtek_udivmodhi4_2[0],a  
  70  00AF  0700     R  	mov a,_main_2[1]  
  70  00B0  0080     E  	mov _builtin_holtek_udivmodhi4_2[1],a
  70  00B1  0F0A        	mov a,10  
  70  00B2  0080     E  	mov _builtin_holtek_udivmodhi4_2[2],a  
  70  00B3  1F00     E  	clr _builtin_holtek_udivmodhi4_2[3]
  70  00B4  2000     E  	call _builtin_holtek_udivmodhi4
  70  00B5  0700     E  	mov a,_builtin_holtek_udivmodhi4_2[4]  
  70  00B6  0080     E  	mov rb,a  
  70  00B7  0700     E  	mov a,_builtin_holtek_udivmodhi4_2[5]  
  70  00B8  0080     E  	mov rc,a
  70  00B9  0F30        	mov a,48
  70  00BA  0380     E  	addm a,rb
  70  00BB  0700     E  	mov a,rb
  70  00BC  2000     E  	call _UART_Transmit
  71  00BD              #line 71 "c:\users\tech\desktop\powerlinetransceiver\Main\Main.c"
  71  00BD  0F0A        	mov a,10
  71  00BE  2000     E  	call _UART_Transmit
  73  00BF              #line 73 "c:\users\tech\desktop\powerlinetransceiver\Main\Main.c"
  73  00BF              ;# 73 "c:\users\tech\desktop\powerlinetransceiver\Main\Main.c" 1
  73  00BF  0001        	clr wdt
  73  00C0  2800     R  	jmp _L2
  73  00C1  2800     R  	jmp $
  73  00C2              _main endp
  73  00C2              
  73  00C2              @dummy endp
  73  00C2              
  73  00C2              #line 73 "c:\users\tech\desktop\powerlinetransceiver\Main\Main.c"
  73  00C2              #pragma debug scope 1 1
   9  00C2              #line 9 "c:\users\tech\desktop\powerlinetransceiver\Main\Main.c"
   9  00C2              public _temp
   9  0000              @HCCINIT0_temp .section 'data'
   9  0000  0002[       _temp	db 2 dup(0)
            00
            ]
   9  0002              #pragma debug variable 12 1 _temp "temp"
   9  0002              
   9  0000              @HCCINIT .section 'data'
   8  0000              #line 8 "c:\users\tech\desktop\powerlinetransceiver\Main\Main.c"
   8  0000              public _tx_busy
   8  0000              @HCCINIT0_tx_busy .section 'data'
   8  0000              _tx_busy	db 0
   8  0001              #pragma debug variable 7 1 _tx_busy "tx_busy"
   8  0001              
   8  0000              @HCCINIT .section 'data'
   7  0000              #line 7 "c:\users\tech\desktop\powerlinetransceiver\Main\Main.c"
   7  0000              public _frame
   7  0000              @HCCINIT0_frame .section 'data'
   7  0000  0002[       _frame	db 2 dup(0)
            00
            ]
   7  0002              #pragma debug pointer 42 10 1
   7  0002              #pragma debug pointer 42 10 1
   7  0002              #pragma debug variable 42 1 _frame "frame"
   7  0002              
"File: Main.c        Assembler  Version HGASM0202      Page 13

   7  0000              @HCCINIT .section 'data'
   7  0000              #pragma debug struct_end
   7  0000              #pragma debug struct_end
   7  0000              #pragma debug union_end
   7  0000              #pragma debug union_end
   7  0000              #pragma debug variable 44 1 ___pa "__pa" 1
  12  0000              #line 12 "c:\users\tech\desktop\powerlinetransceiver\Main\Main.c"
  12  0000              @code .section at 0 'code'
  12  0000  2800     R  	jmp _main_startup1
  12  0001              
  12  0001              extern _S_RCC_Init:near
  12  0001              extern _ADCInit:near
  12  0001              extern _S_GPIO_Init:near
  12  0001              extern _IntrruptInit:near
  12  0001              extern _UART_Init_2:byte
  12  0001              extern _UART_Init:near
  12  0001              extern _PLT0Init:near
  12  0001              extern _PLT1Init:near
  12  0001              extern _PLTAInit:near
  12  0001              extern _InitSmokeDetection:near
  12  0001              extern _OPA_ON:near
  12  0001              extern _ISINK0_ON:near
  12  0001              extern _ReadADC:near
  12  0001              extern _temperature_2:byte
  12  0001              extern _temperature:near
  12  0001              extern _builtin_holtek_mant1:byte
  12  0001              extern _builtin_holtek_mant2:byte
  12  0001              extern _builtin_holtek_ftmul:near
  12  0001              extern _builtin_holtek_mant12p:byte
  12  0001              extern _builtin_holtek_ftol:near
  12  0001              extern _ISINK0_OFF:near
  12  0001              extern _OPA_OFF:near
  12  0001              extern _builtin_holtek_udivmodhi4_2:byte
  12  0001              extern _builtin_holtek_udivmodhi4:near
  12  0001              extern _UART_Transmit:near
  12  0001              
  12  0001              ; 
  12  0001              ; Generated by holtek-gcc v3.19, Sat Oct 26 14:55:22 2024
  12  0001              ; Rebuild 718
  12  0001              ; end of file


        0 Errors, 0