"File: Main.c        Assembler  Version HGASM0202      Page 1


   1  0000              ; Generated by holtek-gcc v3.19, Sat Nov 09 12:49:21 2024
   2  0000              ; 
   3  0000              ; Configuration:
   4  0000              ;       with long instruction
   5  0000              ;       Single ROM, Multi-RAM
   6  0000              ;       bits_per_rom_unit:16
   7  0000              ;       with mp1
   8  0000              ;       with tbhp, address(0x9)
   9  0000              ;          Use tabrd-const
  10  0000              ;       
  11  0000              ; SFR address of long-instruction arch:
  12  0000              ;    mp0 = -1,1,0
  13  0000              ;    mp1 = 4,3,2
  14  0000              ;    mp2 = 14,13,12
  15  0000              ;    tbp = 9,7,8
  16  0000              ;    acc = 5
  17  0000              ;    pcl = 6
  18  0000              ;    status = 10
  19  0000              ;    bp = 11
  20  0000              ;    intc = 72
  21  0000              ;       
  22  0000              ;       
  23  0000              ; use 'tabrdc' instead of 'tabrd'
  24  0000              ;       
  25  0000              
  26  0000              #pragma translator "holtek-gcc 4.6.4" "3.19" "build 20130711"
  27  0000              ; Rebuild 718
  28  0000              
  29  0000              ir equ [2]
  30  0000              mp equ [3]
  31  0000              sbp equ [4]
  32  0000              acc equ [5]
  33  0000              bp equ [11]
  34  0000              tblp equ [7]
  35  0000              tbhp equ [9]
  36  0000              status equ [10]
  37  0000              c equ [10].0
  38  0000              ac equ [10].1
  39  0000              z equ [10].2
  40  0000              ov equ [10].3
  41  0000              cz equ [10].6
  42  0000              sc equ [10].7
  43  0000              intc equ [72]
  44  0000              
  45  0000              extern ra:byte
  46  0000              extern rb:byte
  47  0000              extern rc:byte
  48  0000              extern rd:byte
  49  0000              extern re:byte
  50  0000              extern rf:byte
  51  0000              extern rg:byte
  52  0000              extern rh:byte
  53  0000              extern _Crom2Prom:near
  54  0000              extern _Crom2PromNext:near
  55  0000              
  56  0000              RAMBANK 0 @BITDATASEC, @BITDATASEC1
  57  0000              @HCCINIT	.section 'data'
  58  0000              @HCCINIT0	.section 'data'
  59  0000              @BITDATASEC	 .section 'data'
"File: Main.ASM      Assembler  Version HGASM0202      Page 2

  60  0000              @BITDATASEC1	 .section 'data'
  61  0000              
  62  0000              #pragma debug scope 1 1
  63  0000              	extern __DELAY3:near
  64  0000              	extern __DELAYX3:near
  65  0000              	extern __DELAYX6:near
  66  0000              	extern __DELAYY5:near
  67  0000              	extern __DELAYY3:near
  68  0000              	extern _builtin_holtek_delay_2:byte
  69  0000              ___pa equ [20]
  70  0000              public _main
  71  0000              #pragma debug scope 2 1

  29  0000              #line 29 "c:\users\tech\desktop\powerlinetransceiver\Main\Main.c"
  29  0000              IFDEF WITH_DEFAULT_STARTUP
  29  0000              extern _main_initial0:near
  29  0000              extern _main_startup:near
  29  0000              ENDIF
  29  0000              
  29  0000              ROMBANK 0 @start
  29  0000              @start .section com_l 'code'
  29  0000              _main_startup1:
  29  0000              @start .section com_e 'code'
  29  0000  2800     R  	jmp _main
  29  0001              
  29  0000              _main .section 'code'
  29  0000              _main proc
  29  0000  0002[           local _main_2 db 2 dup(?)
            00
            ]
  29  0002              #pragma debug variable 12 2 _main_2+0 "Data"
  32  0002              #line 32 "c:\users\tech\desktop\powerlinetransceiver\Main\Main.c"
  32  0000  2000     E  	call _S_RCC_Init
  33  0001              #line 33 "c:\users\tech\desktop\powerlinetransceiver\Main\Main.c"
  33  0001  2000     E  	call _ADCInit
  34  0002              #line 34 "c:\users\tech\desktop\powerlinetransceiver\Main\Main.c"
  34  0002  2000     E  	call _S_GPIO_Init
  35  0003              #line 35 "c:\users\tech\desktop\powerlinetransceiver\Main\Main.c"
  35  0003  2000     E  	call _IntrruptInit
  36  0004              #line 36 "c:\users\tech\desktop\powerlinetransceiver\Main\Main.c"
  36  0004  0F80        	mov a,-128
  36  0005  0080     E  	mov _UART_Init_2[0],a
  36  0006  0F25        	mov a,37
  36  0007  0080     E  	mov _UART_Init_2[1],a
  36  0008  2000     E  	call _UART_Init
  37  0009              #line 37 "c:\users\tech\desktop\powerlinetransceiver\Main\Main.c"
  37  0009  2000     E  	call _PLT0Init
  38  000A              #line 38 "c:\users\tech\desktop\powerlinetransceiver\Main\Main.c"
  38  000A  2000     E  	call _PLT1Init
  39  000B              #line 39 "c:\users\tech\desktop\powerlinetransceiver\Main\Main.c"
  39  000B  2000     E  	call _PLTAInit
  40  000C              #line 40 "c:\users\tech\desktop\powerlinetransceiver\Main\Main.c"
  40  000C  2000     E  	call _InitSmokeDetection
  40  000D              _L7:
  40  000D              #pragma debug scope 3 2
  40  000D              ;begin block, line: 40.-1
  45  000D              #line 45 "c:\users\tech\desktop\powerlinetransceiver\Main\Main.c"
  45  000D  3C14        	sz [20].0
  45  000E  2800     R  	jmp _L3
  47  000F              #line 47 "c:\users\tech\desktop\powerlinetransceiver\Main\Main.c"
"File: Main.c        Assembler  Version HGASM0202      Page 3

  47  000F  0F01        	mov a,1
  47  0010  0080     R  	mov _pushButtonState[0],a
  48  0011              #line 48 "c:\users\tech\desktop\powerlinetransceiver\Main\Main.c"
  48  0011  1480     R  	inc _PushButtonCounter[0]
  48  0012  3D0A        	sz z
  48  0013  1480     R  	inc _PushButtonCounter[1]
  48  0014  2800     R  	jmp _L4
  48  0015              _L3:
  52  0015              #line 52 "c:\users\tech\desktop\powerlinetransceiver\Main\Main.c"
  52  0015  1700     R  	sdza _pushButtonState[0]
  52  0016  2800     R  	jmp _L4
  52  0017  0F0A        	mov a,10
  52  0018  0200     R  	sub a,_PushButtonCounter[0]
  52  0019  0F00        	mov a,0
  52  001A  1200     R  	sbc a,_PushButtonCounter[1]
  52  001B  3C0A        	sz c
  52  001C  2800     R  	jmp _L4
  54  001D              #line 54 "c:\users\tech\desktop\powerlinetransceiver\Main\Main.c"
  54  001D  1F00     R  	clr _PushButtonCounter[0]
  54  001E  1F00     R  	clr _PushButtonCounter[1]
  55  001F              #line 55 "c:\users\tech\desktop\powerlinetransceiver\Main\Main.c"
  55  001F  1F00     R  	clr _pushButtonState[0]
  56  0020              #line 56 "c:\users\tech\desktop\powerlinetransceiver\Main\Main.c"
  56  0020  0F01        	mov a,1
  56  0021  0080     E  	mov ra,a
  56  0022  1E00     R  	snz _Stat[0]
  56  0023  2800     R  	jmp _L5
  56  0024  1F00     E  	clr ra
  56  0025              _L5:
  56  0025  0700     E  	mov a,ra
  56  0026  0080     R  	mov _Stat[0],a
  57  0027              #line 57 "c:\users\tech\desktop\powerlinetransceiver\Main\Main.c"
  57  0027  1F00     E  	clr ra
  57  0028  3A14        	snz [20].4
  57  0029  3000     E  	set ra.4
  57  002A  3614        	clr [20].4
  57  002B  0700     E  	mov a,ra
  57  002C  0594        	orm a,[20]
  58  002D              #line 58 "c:\users\tech\desktop\powerlinetransceiver\Main\Main.c"
  58  002D  0F41        	mov a,65
  58  002E  2000     E  	call _UART_Transmit
  59  002F              #line 59 "c:\users\tech\desktop\powerlinetransceiver\Main\Main.c"
  59  002F  0F44        	mov a,68
  59  0030  2000     E  	call _UART_Transmit
  60  0031              #line 60 "c:\users\tech\desktop\powerlinetransceiver\Main\Main.c"
  60  0031  0F52        	mov a,82
  60  0032  2000     E  	call _UART_Transmit
  61  0033              #line 61 "c:\users\tech\desktop\powerlinetransceiver\Main\Main.c"
  61  0033  0F52        	mov a,82
  61  0034  2000     E  	call _UART_Transmit
  62  0035              #line 62 "c:\users\tech\desktop\powerlinetransceiver\Main\Main.c"
  62  0035  0F45        	mov a,69
  62  0036  2000     E  	call _UART_Transmit
  63  0037              #line 63 "c:\users\tech\desktop\powerlinetransceiver\Main\Main.c"
  63  0037  0F53        	mov a,83
  63  0038  2000     E  	call _UART_Transmit
  64  0039              #line 64 "c:\users\tech\desktop\powerlinetransceiver\Main\Main.c"
  64  0039  0F53        	mov a,83
  64  003A  2000     E  	call _UART_Transmit
  65  003B              #line 65 "c:\users\tech\desktop\powerlinetransceiver\Main\Main.c"
"File: Main.c        Assembler  Version HGASM0202      Page 4

  65  003B  0F3D        	mov a,61
  65  003C  2000     E  	call _UART_Transmit
  66  003D              #line 66 "c:\users\tech\desktop\powerlinetransceiver\Main\Main.c"
  66  003D  0F62        	mov a,98
  66  003E  2000     E  	call _UART_Transmit
  67  003F              #line 67 "c:\users\tech\desktop\powerlinetransceiver\Main\Main.c"
  67  003F  0F20        	mov a,32
  67  0040  2000     E  	call _UART_Transmit
  68  0041              #line 68 "c:\users\tech\desktop\powerlinetransceiver\Main\Main.c"
  68  0041  0F53        	mov a,83
  68  0042  2000     E  	call _UART_Transmit
  69  0043              #line 69 "c:\users\tech\desktop\powerlinetransceiver\Main\Main.c"
  69  0043  0F54        	mov a,84
  69  0044  2000     E  	call _UART_Transmit
  70  0045              #line 70 "c:\users\tech\desktop\powerlinetransceiver\Main\Main.c"
  70  0045  0F41        	mov a,65
  70  0046  2000     E  	call _UART_Transmit
  71  0047              #line 71 "c:\users\tech\desktop\powerlinetransceiver\Main\Main.c"
  71  0047  0F54        	mov a,84
  71  0048  2000     E  	call _UART_Transmit
  72  0049              #line 72 "c:\users\tech\desktop\powerlinetransceiver\Main\Main.c"
  72  0049  0F45        	mov a,69
  72  004A  2000     E  	call _UART_Transmit
  73  004B              #line 73 "c:\users\tech\desktop\powerlinetransceiver\Main\Main.c"
  73  004B  0F3D        	mov a,61
  73  004C  2000     E  	call _UART_Transmit
  74  004D              #line 74 "c:\users\tech\desktop\powerlinetransceiver\Main\Main.c"
  74  004D  0700     R  	mov a,_Stat[0]
  74  004E  0B30        	add a,48
  74  004F  0080     E  	mov ra,a
  74  0050  0700     E  	mov a,ra
  74  0051  2000     E  	call _UART_Transmit
  75  0052              #line 75 "c:\users\tech\desktop\powerlinetransceiver\Main\Main.c"
  75  0052  0F0A        	mov a,10
  75  0053  2000     E  	call _UART_Transmit
  75  0054              _L4:
  79  0054              #line 79 "c:\users\tech\desktop\powerlinetransceiver\Main\Main.c"
  79  0054              ;# 79 "c:\users\tech\desktop\powerlinetransceiver\Main\Main.c" 1
  79  0054  0001        	clr wdt
  80  0055              #line 80 "c:\users\tech\desktop\powerlinetransceiver\Main\Main.c"
  80  0055  2000     E  	call _UART_ReceiveNonBlocking
  80  0056  0080     E  	mov ra,a
  80  0057  0700     E  	mov a,ra
  80  0058  0080     R  	mov _main_2[0],a
  80  0059  1F00     R  	clr _main_2[1]
  80  005A  3F85        	sz acc.7
  80  005B  1F80     R  	set _main_2[1]
  81  005C              #line 81 "c:\users\tech\desktop\powerlinetransceiver\Main\Main.c"
  81  005C              ;# 81 "c:\users\tech\desktop\powerlinetransceiver\Main\Main.c" 1
  81  005C  0001        	clr wdt
  83  005D              #line 83 "c:\users\tech\desktop\powerlinetransceiver\Main\Main.c"
  83  005D  0700     R  	mov a,_main_2[0]
  83  005E  0500     R  	or a,_main_2[1]
  83  005F  3D0A        	sz z
  83  0060  2800     R  	jmp _L7
  85  0061              #line 85 "c:\users\tech\desktop\powerlinetransceiver\Main\Main.c"
  85  0061  0700     E  	mov a,ra
  85  0062  2000     E  	call _UART_Transmit
  86  0063              #line 86 "c:\users\tech\desktop\powerlinetransceiver\Main\Main.c"
  86  0063  0700     R  	mov a,_main_2[0]
"File: Main.c        Assembler  Version HGASM0202      Page 5

  86  0064  0C62        	xor a,98
  86  0065  0500     R  	or a,_main_2[1]
  86  0066  3D0A        	sz z
  86  0067  2800     R  	jmp _L8
  86  0068  0700     R  	mov a,_main_2[0]
  86  0069  0C5A        	xor a,90
  86  006A  0500     R  	or a,_main_2[1]
  86  006B  390A        	snz z
  86  006C  2800     R  	jmp _L9
  86  006D              _L8:
  88  006D              #line 88 "c:\users\tech\desktop\powerlinetransceiver\Main\Main.c"
  88  006D  0F01        	mov a,1
  88  006E  0080     R  	mov _AddresssValid[0],a
  88  006F              _L9:
  91  006F              #line 91 "c:\users\tech\desktop\powerlinetransceiver\Main\Main.c"
  91  006F  1E00     R  	snz _AddresssValid[0]
  91  0070  2800     R  	jmp _L7
  91  0071  0700     R  	mov a,_main_2[0]
  91  0072  0C4F        	xor a,79
  91  0073  0500     R  	or a,_main_2[1]
  91  0074  390A        	snz z
  91  0075  2800     R  	jmp _L10
  93  0076              #line 93 "c:\users\tech\desktop\powerlinetransceiver\Main\Main.c"
  93  0076  0F41        	mov a,65
  93  0077  2000     E  	call _UART_Transmit
  94  0078              #line 94 "c:\users\tech\desktop\powerlinetransceiver\Main\Main.c"
  94  0078  0F44        	mov a,68
  94  0079  2000     E  	call _UART_Transmit
  95  007A              #line 95 "c:\users\tech\desktop\powerlinetransceiver\Main\Main.c"
  95  007A  0F52        	mov a,82
  95  007B  2000     E  	call _UART_Transmit
  96  007C              #line 96 "c:\users\tech\desktop\powerlinetransceiver\Main\Main.c"
  96  007C  0F52        	mov a,82
  96  007D  2000     E  	call _UART_Transmit
  97  007E              #line 97 "c:\users\tech\desktop\powerlinetransceiver\Main\Main.c"
  97  007E  0F45        	mov a,69
  97  007F  2000     E  	call _UART_Transmit
  98  0080              #line 98 "c:\users\tech\desktop\powerlinetransceiver\Main\Main.c"
  98  0080  0F53        	mov a,83
  98  0081  2000     E  	call _UART_Transmit
  99  0082              #line 99 "c:\users\tech\desktop\powerlinetransceiver\Main\Main.c"
  99  0082  0F53        	mov a,83
  99  0083  2000     E  	call _UART_Transmit
 100  0084              #line 100 "c:\users\tech\desktop\powerlinetransceiver\Main\Main.c"
 100  0084  0F3D        	mov a,61
 100  0085  2000     E  	call _UART_Transmit
 101  0086              #line 101 "c:\users\tech\desktop\powerlinetransceiver\Main\Main.c"
 101  0086  0F62        	mov a,98
 101  0087  2000     E  	call _UART_Transmit
 102  0088              #line 102 "c:\users\tech\desktop\powerlinetransceiver\Main\Main.c"
 102  0088  0F20        	mov a,32
 102  0089  2000     E  	call _UART_Transmit
 103  008A              #line 103 "c:\users\tech\desktop\powerlinetransceiver\Main\Main.c"
 103  008A  0F53        	mov a,83
 103  008B  2000     E  	call _UART_Transmit
 104  008C              #line 104 "c:\users\tech\desktop\powerlinetransceiver\Main\Main.c"
 104  008C  0F54        	mov a,84
 104  008D  2000     E  	call _UART_Transmit
 105  008E              #line 105 "c:\users\tech\desktop\powerlinetransceiver\Main\Main.c"
 105  008E  0F41        	mov a,65
"File: Main.c        Assembler  Version HGASM0202      Page 6

 105  008F  2000     E  	call _UART_Transmit
 106  0090              #line 106 "c:\users\tech\desktop\powerlinetransceiver\Main\Main.c"
 106  0090  0F54        	mov a,84
 106  0091  2000     E  	call _UART_Transmit
 107  0092              #line 107 "c:\users\tech\desktop\powerlinetransceiver\Main\Main.c"
 107  0092  0F45        	mov a,69
 107  0093  2000     E  	call _UART_Transmit
 108  0094              #line 108 "c:\users\tech\desktop\powerlinetransceiver\Main\Main.c"
 108  0094  0F3D        	mov a,61
 108  0095  2000     E  	call _UART_Transmit
 109  0096              #line 109 "c:\users\tech\desktop\powerlinetransceiver\Main\Main.c"
 109  0096  0F31        	mov a,49
 109  0097  2000     E  	call _UART_Transmit
 110  0098              #line 110 "c:\users\tech\desktop\powerlinetransceiver\Main\Main.c"
 110  0098  0F0A        	mov a,10
 110  0099  2000     E  	call _UART_Transmit
 111  009A              #line 111 "c:\users\tech\desktop\powerlinetransceiver\Main\Main.c"
 111  009A  1F00     R  	clr _AddresssValid[0]
 112  009B              #line 112 "c:\users\tech\desktop\powerlinetransceiver\Main\Main.c"
 112  009B  3214        	set [20].4
 112  009C              _L10:
 114  009C              #line 114 "c:\users\tech\desktop\powerlinetransceiver\Main\Main.c"
 114  009C  1E00     R  	snz _AddresssValid[0]
 114  009D  2800     R  	jmp _L7
 114  009E  0700     R  	mov a,_main_2[0]
 114  009F  0C43        	xor a,67
 114  00A0  0500     R  	or a,_main_2[1]
 114  00A1  390A        	snz z
 114  00A2  2800     R  	jmp _L7
 116  00A3              #line 116 "c:\users\tech\desktop\powerlinetransceiver\Main\Main.c"
 116  00A3  0F41        	mov a,65
 116  00A4  2000     E  	call _UART_Transmit
 117  00A5              #line 117 "c:\users\tech\desktop\powerlinetransceiver\Main\Main.c"
 117  00A5  0F44        	mov a,68
 117  00A6  2000     E  	call _UART_Transmit
 118  00A7              #line 118 "c:\users\tech\desktop\powerlinetransceiver\Main\Main.c"
 118  00A7  0F52        	mov a,82
 118  00A8  2000     E  	call _UART_Transmit
 119  00A9              #line 119 "c:\users\tech\desktop\powerlinetransceiver\Main\Main.c"
 119  00A9  0F52        	mov a,82
 119  00AA  2000     E  	call _UART_Transmit
 120  00AB              #line 120 "c:\users\tech\desktop\powerlinetransceiver\Main\Main.c"
 120  00AB  0F45        	mov a,69
 120  00AC  2000     E  	call _UART_Transmit
 121  00AD              #line 121 "c:\users\tech\desktop\powerlinetransceiver\Main\Main.c"
 121  00AD  0F53        	mov a,83
 121  00AE  2000     E  	call _UART_Transmit
 122  00AF              #line 122 "c:\users\tech\desktop\powerlinetransceiver\Main\Main.c"
 122  00AF  0F53        	mov a,83
 122  00B0  2000     E  	call _UART_Transmit
 123  00B1              #line 123 "c:\users\tech\desktop\powerlinetransceiver\Main\Main.c"
 123  00B1  0F3D        	mov a,61
 123  00B2  2000     E  	call _UART_Transmit
 124  00B3              #line 124 "c:\users\tech\desktop\powerlinetransceiver\Main\Main.c"
 124  00B3  0F62        	mov a,98
 124  00B4  2000     E  	call _UART_Transmit
 125  00B5              #line 125 "c:\users\tech\desktop\powerlinetransceiver\Main\Main.c"
 125  00B5  0F20        	mov a,32
 125  00B6  2000     E  	call _UART_Transmit
 126  00B7              #line 126 "c:\users\tech\desktop\powerlinetransceiver\Main\Main.c"
"File: Main.c        Assembler  Version HGASM0202      Page 7

 126  00B7  0F53        	mov a,83
 126  00B8  2000     E  	call _UART_Transmit
 127  00B9              #line 127 "c:\users\tech\desktop\powerlinetransceiver\Main\Main.c"
 127  00B9  0F54        	mov a,84
 127  00BA  2000     E  	call _UART_Transmit
 128  00BB              #line 128 "c:\users\tech\desktop\powerlinetransceiver\Main\Main.c"
 128  00BB  0F41        	mov a,65
 128  00BC  2000     E  	call _UART_Transmit
 129  00BD              #line 129 "c:\users\tech\desktop\powerlinetransceiver\Main\Main.c"
 129  00BD  0F54        	mov a,84
 129  00BE  2000     E  	call _UART_Transmit
 130  00BF              #line 130 "c:\users\tech\desktop\powerlinetransceiver\Main\Main.c"
 130  00BF  0F45        	mov a,69
 130  00C0  2000     E  	call _UART_Transmit
 131  00C1              #line 131 "c:\users\tech\desktop\powerlinetransceiver\Main\Main.c"
 131  00C1  0F3D        	mov a,61
 131  00C2  2000     E  	call _UART_Transmit
 132  00C3              #line 132 "c:\users\tech\desktop\powerlinetransceiver\Main\Main.c"
 132  00C3  0F30        	mov a,48
 132  00C4  2000     E  	call _UART_Transmit
 133  00C5              #line 133 "c:\users\tech\desktop\powerlinetransceiver\Main\Main.c"
 133  00C5  0F0A        	mov a,10
 133  00C6  2000     E  	call _UART_Transmit
 134  00C7              #line 134 "c:\users\tech\desktop\powerlinetransceiver\Main\Main.c"
 134  00C7  1F00     R  	clr _AddresssValid[0]
 135  00C8              #line 135 "c:\users\tech\desktop\powerlinetransceiver\Main\Main.c"
 135  00C8  3614        	clr [20].4
 135  00C9  2800     R  	jmp _L7
 135  00CA              #pragma debug scope 2 1
 135  00CA  2800     R  	jmp $
 135  00CB              _main endp
 135  00CB              
 135  00CB              @dummy endp
 135  00CB              
 135  00CB              #line 135 "c:\users\tech\desktop\powerlinetransceiver\Main\Main.c"
 135  00CB              #pragma debug scope 1 1
 135  00CB              public _UART_ReceiveString
 135  00CB              #pragma debug scope 4 1
 148  00CB              #line 148 "c:\users\tech\desktop\powerlinetransceiver\Main\Main.c"
 148  0000              _UART_ReceiveString .section 'code'
 148  0000              _UART_ReceiveString proc
 148  0000  0002[           local _UART_ReceiveString_2 db 2 dup(?)	; 0,2
            00
            ]
 152  0002              #line 152 "c:\users\tech\desktop\powerlinetransceiver\Main\Main.c"
 152  0000  0700     R  	mov a,___index_2080[0]
 152  0001  0080     R  	mov _UART_ReceiveString_2[0],a
 152  0002  1F00     R  	clr _UART_ReceiveString_2[1]
 152  0003  3F85        	sz acc.7
 152  0004  1F80     R  	set _UART_ReceiveString_2[1]
 152  0005  2000     E  	call _UART_ReceiveNonBlocking
 152  0006  0080     E  	mov ra,a
 152  0007  0F00     R  	mov a,low offset ___resiveBuffer_2079
 152  0008  0300     R  	add a,_UART_ReceiveString_2[0]
 152  0009  0083        	mov mp,a
 152  000A  0F00     R  	mov a,high offset ___resiveBuffer_2079
 152  000B  1300     R  	adc a,_UART_ReceiveString_2[1]
 152  000C  0084        	mov sbp,a
 152  000D  0700     E  	mov a,ra
 152  000E  0082        	mov ir,a
"File: Main.c        Assembler  Version HGASM0202      Page 8

 153  000F              #line 153 "c:\users\tech\desktop\powerlinetransceiver\Main\Main.c"
 153  000F  1E00     R  	snz ___resiveBuffer_2079[0]
 153  0010  2800     R  	jmp _L17
 154  0011              #line 154 "c:\users\tech\desktop\powerlinetransceiver\Main\Main.c"
 154  0011  1480     R  	inc ___index_2080[0]
 155  0012              #line 155 "c:\users\tech\desktop\powerlinetransceiver\Main\Main.c"
 155  0012  0F01        	mov a,1
 155  0013  0080     R  	mov ___DataValid_2081[0],a
 155  0014  2800     R  	jmp _L19
 155  0015              _L17:
 157  0015              #line 157 "c:\users\tech\desktop\powerlinetransceiver\Main\Main.c"
 157  0015  1E00     R  	snz ___DataValid_2081[0]
 157  0016  2800     R  	jmp _L19
 159  0017              #line 159 "c:\users\tech\desktop\powerlinetransceiver\Main\Main.c"
 159  0017  0F00     R  	mov a,low offset ___resiveBuffer_2079
 159  0018  0080     E  	mov ra,a
 159  0019  0F00     R  	mov a,high offset ___resiveBuffer_2079
 159  001A  0080     E  	mov rb,a
 159  001B  2800     R  	jmp _L16
 159  001C              _L19:
 159  001C              _L16:
 159  001C  0003        	ret
 159  001D              _UART_ReceiveString endp
 159  001D              #line 159 "c:\users\tech\desktop\powerlinetransceiver\Main\Main.c"
 159  001D              #pragma debug scope 1 1
 159  0000              @HCCINIT	.section 'data'
 151  0000              #line 151 "c:\users\tech\desktop\powerlinetransceiver\Main\Main.c"
 151  0000              @HCCINIT___DataValid_2081 .section 'data'
 151  0000              ___DataValid_2081 label byte
 151  0000              #pragma debug variable 7 4 ___DataValid_2081 "DataValid"
 151  0000              	db 0
 151  0000              @ROMDATA_BASE .section inpage 'code'
 151  0000              	db 0
 151  0001              @HCCINIT___DataValid_2081 .section 'data'
 149  0001              #line 149 "c:\users\tech\desktop\powerlinetransceiver\Main\Main.c"
 149  0000              @HCCINIT___resiveBuffer_2079 .section 'data'
 149  0000              ___resiveBuffer_2079 label byte
 149  0000              #pragma debug array 42 8 10 1
 149  0000              #pragma debug array 42 8 10 1
 149  0000              #pragma debug variable 42 4 ___resiveBuffer_2079 "resiveBuffer"
 149  0000              	db 0
 149  0001              @ROMDATA_BASE .section inpage 'code'
 149  0001              	db 0
 149  0001              @HCCINIT___resiveBuffer_2079 .section 'data'
 149  0001              	db 0
 149  0001              @ROMDATA_BASE .section inpage 'code'
 149  0001              	db 0
 149  0002              @HCCINIT___resiveBuffer_2079 .section 'data'
 149  0002              	db 0
 149  0002              @ROMDATA_BASE .section inpage 'code'
 149  0002              	db 0
 149  0003              @HCCINIT___resiveBuffer_2079 .section 'data'
 149  0003              	db 0
 149  0002              @ROMDATA_BASE .section inpage 'code'
 149  0002              	db 0
 149  0004              @HCCINIT___resiveBuffer_2079 .section 'data'
 149  0004              	db 0
 149  0003              @ROMDATA_BASE .section inpage 'code'
 149  0003              	db 0
 149  0005              @HCCINIT___resiveBuffer_2079 .section 'data'
"File: Main.c        Assembler  Version HGASM0202      Page 9

 149  0005              	db 0
 149  0003              @ROMDATA_BASE .section inpage 'code'
 149  0003              	db 0
 149  0006              @HCCINIT___resiveBuffer_2079 .section 'data'
 149  0006              	db 0
 149  0004              @ROMDATA_BASE .section inpage 'code'
 149  0004              	db 0
 149  0007              @HCCINIT___resiveBuffer_2079 .section 'data'
 149  0007              	db 0
 149  0004              @ROMDATA_BASE .section inpage 'code'
 149  0004              	db 0
 149  0008              @HCCINIT___resiveBuffer_2079 .section 'data'
 149  0008              	db 0
 149  0005              @ROMDATA_BASE .section inpage 'code'
 149  0005              	db 0
 149  0009              @HCCINIT___resiveBuffer_2079 .section 'data'
 149  0009              	db 0
 149  0005              @ROMDATA_BASE .section inpage 'code'
 149  0005              	db 0
 149  000A              @HCCINIT___resiveBuffer_2079 .section 'data'
 150  000A              #line 150 "c:\users\tech\desktop\powerlinetransceiver\Main\Main.c"
 150  0000              @HCCINIT___index_2080 .section 'data'
 150  0000              ___index_2080 label byte
 150  0000              #pragma debug variable 7 4 ___index_2080 "index"
 150  0000              	db 0
 150  0006              @ROMDATA_BASE .section inpage 'code'
 150  0006              	db 0
 150  0001              @HCCINIT___index_2080 .section 'data'
 150  0001              public _AddresssValid
  25  0001              #line 25 "c:\users\tech\desktop\powerlinetransceiver\Main\Main.c"
  25  0000              @HCCINIT_AddresssValid .section 'data'
  25  0000              _AddresssValid label byte
  25  0000              #pragma debug variable 8 1 _AddresssValid "AddresssValid"
  25  0000              	db 0
  25  0006              @ROMDATA_BASE .section inpage 'code'
  25  0006              	db 0
  25  0001              @HCCINIT_AddresssValid .section 'data'
  25  0001              public _PushButtonCounter
  24  0001              #line 24 "c:\users\tech\desktop\powerlinetransceiver\Main\Main.c"
  24  0000              @HCCINIT_PushButtonCounter .section 'data'
  24  0000              _PushButtonCounter label byte
  24  0000              #pragma debug variable 12 1 _PushButtonCounter "PushButtonCounter"
  24  0000              	db 0
  24  0007              @ROMDATA_BASE .section inpage 'code'
  24  0007              	db 0
  24  0001              @HCCINIT_PushButtonCounter .section 'data'
  24  0001              	db 0
  24  0007              @ROMDATA_BASE .section inpage 'code'
  24  0007              	db 0
  24  0002              @HCCINIT_PushButtonCounter .section 'data'
  24  0002              public _pushButtonState
  23  0002              #line 23 "c:\users\tech\desktop\powerlinetransceiver\Main\Main.c"
  23  0000              @HCCINIT_pushButtonState .section 'data'
  23  0000              _pushButtonState label byte
  23  0000              #pragma debug variable 8 1 _pushButtonState "pushButtonState"
  23  0000              	db 0
  23  0008              @ROMDATA_BASE .section inpage 'code'
  23  0008              	db 0
  23  0001              @HCCINIT_pushButtonState .section 'data'
  23  0001              public _i
"File: Main.c        Assembler  Version HGASM0202      Page 10

  18  0001              #line 18 "c:\users\tech\desktop\powerlinetransceiver\Main\Main.c"
  18  0000              @HCCINIT_i .section 'data'
  18  0000              _i label byte
  18  0000              #pragma debug variable 11 1 _i "i"
  18  0000              	db 0
  18  0008              @ROMDATA_BASE .section inpage 'code'
  18  0008              	db 0
  18  0001              @HCCINIT_i .section 'data'
  18  0001              	db 0
  18  0009              @ROMDATA_BASE .section inpage 'code'
  18  0009              	db 0
  18  0002              @HCCINIT_i .section 'data'
  18  0002              public _Stat
  17  0002              #line 17 "c:\users\tech\desktop\powerlinetransceiver\Main\Main.c"
  17  0000              @HCCINIT_Stat .section 'data'
  17  0000              _Stat label byte
  17  0000              #pragma debug variable 8 1 _Stat "Stat"
  17  0000              	db 0
  17  0009              @ROMDATA_BASE .section inpage 'code'
  17  0009              	db 0
  17  0001              @HCCINIT_Stat .section 'data'
  16  0001              #line 16 "c:\users\tech\desktop\powerlinetransceiver\Main\Main.c"
  16  0001              public _Counter
  16  0000              @HCCINIT0_Counter .section 'data'
  16  0000  0002[       _Counter	db 2 dup(0)
            00
            ]
  16  0002              #pragma debug variable 12 1 _Counter "Counter"
  16  0002              
  16  0000              @HCCINIT .section 'data'
  16  0000              public _buffer_index
  13  0000              #line 13 "c:\users\tech\desktop\powerlinetransceiver\Main\Main.c"
  13  0000              @HCCINIT_buffer_index .section 'data'
  13  0000              _buffer_index label byte
  13  0000              #pragma debug variable 11 1 _buffer_index "buffer_index"
  13  0000              	db 0
  13  000A              @ROMDATA_BASE .section inpage 'code'
  13  000A              	db 0
  13  0001              @HCCINIT_buffer_index .section 'data'
  13  0001              	db 0
  13  000A              @ROMDATA_BASE .section inpage 'code'
  13  000A              	db 0
  13  0002              @HCCINIT_buffer_index .section 'data'
  12  0002              #line 12 "c:\users\tech\desktop\powerlinetransceiver\Main\Main.c"
  12  0002              public _buffer
  12  0000              @HCCINIT0_buffer .section 'data'
  12  0000  0067[       _buffer	db 103 dup(0)
            00
            ]
  12  0067              #pragma debug array 43 7 103 1
  12  0067              #pragma debug array 43 7 103 1
  12  0067              #pragma debug variable 43 1 _buffer "buffer"
  12  0067              
  12  0000              @HCCINIT .section 'data'
   9  0000              #line 9 "c:\users\tech\desktop\powerlinetransceiver\Main\Main.c"
   9  0000              public _temp
   9  0000              @HCCINIT0_temp .section 'data'
   9  0000  0002[       _temp	db 2 dup(0)
            00
            ]
"File: Main.c        Assembler  Version HGASM0202      Page 11

   9  0002              #pragma debug variable 12 1 _temp "temp"
   9  0002              
   9  0000              @HCCINIT .section 'data'
   8  0000              #line 8 "c:\users\tech\desktop\powerlinetransceiver\Main\Main.c"
   8  0000              public _tx_busy
   8  0000              @HCCINIT0_tx_busy .section 'data'
   8  0000              _tx_busy	db 0
   8  0001              #pragma debug variable 7 1 _tx_busy "tx_busy"
   8  0001              
   8  0000              @HCCINIT .section 'data'
   7  0000              #line 7 "c:\users\tech\desktop\powerlinetransceiver\Main\Main.c"
   7  0000              public _frame
   7  0000              @HCCINIT0_frame .section 'data'
   7  0000  0002[       _frame	db 2 dup(0)
            00
            ]
   7  0002              #pragma debug pointer 44 10 1
   7  0002              #pragma debug pointer 44 10 1
   7  0002              #pragma debug variable 44 1 _frame "frame"
   7  0002              
   7  0000              @HCCINIT .section 'data'
   7  0000              #pragma debug struct_end
   7  0000              #pragma debug struct_end
   7  0000              #pragma debug union_end
   7  0000              #pragma debug union_end
   7  0000              #pragma debug variable 46 1 ___pa "__pa" 1
  29  0000              #line 29 "c:\users\tech\desktop\powerlinetransceiver\Main\Main.c"
  29  0000              @code .section at 0 'code'
  29  0000  2800     R  	jmp _main_startup1
  29  0001              
  29  0001              extern _S_RCC_Init:near
  29  0001              extern _ADCInit:near
  29  0001              extern _S_GPIO_Init:near
  29  0001              extern _IntrruptInit:near
  29  0001              extern _UART_Init_2:byte
  29  0001              extern _UART_Init:near
  29  0001              extern _PLT0Init:near
  29  0001              extern _PLT1Init:near
  29  0001              extern _PLTAInit:near
  29  0001              extern _InitSmokeDetection:near
  29  0001              extern _UART_Transmit:near
  29  0001              extern _UART_ReceiveNonBlocking:near
  29  0001              
  29  0001              ; 
  29  0001              ; Generated by holtek-gcc v3.19, Sat Nov 09 12:49:21 2024
  29  0001              ; Rebuild 718
  29  0001              ; end of file


        0 Errors, 0