"File: Main.c        Assembler  Version HGASM0202      Page 1


   1  0000              ; Generated by holtek-gcc v3.19, Mon Jul 22 12:39:04 2024
   2  0000              ; 
   3  0000              ; Configuration:
   4  0000              ;       with long instruction
   5  0000              ;       Single ROM, Multi-RAM
   6  0000              ;       bits_per_rom_unit:16
   7  0000              ;       with mp1
   8  0000              ;       with tbhp, address(0x9)
   9  0000              ;          Use tabrd-const
  10  0000              ;       
  11  0000              ; SFR address of long-instruction arch:
  12  0000              ;    mp0 = -1,1,0
  13  0000              ;    mp1 = 4,3,2
  14  0000              ;    mp2 = 14,13,12
  15  0000              ;    tbp = 9,7,8
  16  0000              ;    acc = 5
  17  0000              ;    pcl = 6
  18  0000              ;    status = 10
  19  0000              ;    bp = 11
  20  0000              ;    intc = 72
  21  0000              ;       
  22  0000              ;       
  23  0000              ; use 'tabrdc' instead of 'tabrd'
  24  0000              ;       
  25  0000              
  26  0000              #pragma translator "holtek-gcc 4.6.4" "3.19" "build 20130711"
  27  0000              ; Rebuild 718
  28  0000              
  29  0000              ir equ [2]
  30  0000              mp equ [3]
  31  0000              sbp equ [4]
  32  0000              acc equ [5]
  33  0000              bp equ [11]
  34  0000              tblp equ [7]
  35  0000              tbhp equ [9]
  36  0000              status equ [10]
  37  0000              c equ [10].0
  38  0000              ac equ [10].1
  39  0000              z equ [10].2
  40  0000              ov equ [10].3
  41  0000              cz equ [10].6
  42  0000              sc equ [10].7
  43  0000              intc equ [72]
  44  0000              
  45  0000              extern ra:byte
  46  0000              extern rb:byte
  47  0000              extern rc:byte
  48  0000              extern rd:byte
  49  0000              extern re:byte
  50  0000              extern rf:byte
  51  0000              extern rg:byte
  52  0000              extern rh:byte
  53  0000              extern _Crom2Prom:near
  54  0000              extern _Crom2PromNext:near
  55  0000              
  56  0000              RAMBANK 0 @BITDATASEC, @BITDATASEC1
  57  0000              @HCCINIT	.section 'data'
  58  0000              @HCCINIT0	.section 'data'
  59  0000              @BITDATASEC	 .section 'data'
"File: Main.ASM      Assembler  Version HGASM0202      Page 2

  60  0000              @BITDATASEC1	 .section 'data'
  61  0000              
  62  0000              #pragma debug scope 1 1
  63  0000              	extern __DELAY3:near
  64  0000              	extern __DELAYX3:near
  65  0000              	extern __DELAYX6:near
  66  0000              	extern __DELAYY5:near
  67  0000              	extern __DELAYY3:near
  68  0000              	extern _builtin_holtek_delay_2:byte
  69  0000              ___integ equ [71]
  70  0000              ___pbc equ [25]
  71  0000              ___pbs0 equ [78]
  72  0000              ___pbpu equ [26]
  73  0000              ___pb equ [24]
  74  0000              public _main
  75  0000              #pragma debug scope 2 1

  22  0000              #line 22 "c:\users\tech\desktop\powerlinetransceiver\Main\Main.c"
  22  0000              IFDEF WITH_DEFAULT_STARTUP
  22  0000              extern _main_initial0:near
  22  0000              extern _main_startup:near
  22  0000              ENDIF
  22  0000              
  22  0000              ROMBANK 0 @start
  22  0000              @start .section com_l 'code'
  22  0000              _main_startup1:
  22  0000              @start .section com_e 'code'
  22  0000  2800     R  	jmp _main
  22  0001              
  22  0000              _main .section 'code'
  22  0000              _main proc
  24  0000              #line 24 "c:\users\tech\desktop\powerlinetransceiver\Main\Main.c"
  24  0000  2000     E  	call _S_RCC_Init
  25  0001              #line 25 "c:\users\tech\desktop\powerlinetransceiver\Main\Main.c"
  25  0001  2000     E  	call _S_ADC_Init
  26  0002              #line 26 "c:\users\tech\desktop\powerlinetransceiver\Main\Main.c"
  26  0002  2000     E  	call _STimerInit
  27  0003              #line 27 "c:\users\tech\desktop\powerlinetransceiver\Main\Main.c"
  27  0003  2000     E  	call _PTimerInit
  28  0004              #line 28 "c:\users\tech\desktop\powerlinetransceiver\Main\Main.c"
  28  0004  2000     E  	call _TimerBaseInit
  29  0005              #line 29 "c:\users\tech\desktop\powerlinetransceiver\Main\Main.c"
  29  0005  1F00     E  	clr _UART_Init_2[0]
  29  0006  0F4B        	mov a,75
  29  0007  0080     E  	mov _UART_Init_2[1],a
  29  0008  2000     E  	call _UART_Init
  30  0009              #line 30 "c:\users\tech\desktop\powerlinetransceiver\Main\Main.c"
  30  0009  2000     E  	call _IntrruptInit
  31  000A              #line 31 "c:\users\tech\desktop\powerlinetransceiver\Main\Main.c"
  31  000A  2000     E  	call _S_GPIO_Init
  33  000B              #line 33 "c:\users\tech\desktop\powerlinetransceiver\Main\Main.c"
  33  000B  2000     E  	call _PLT0InputOffsetCalibration
  33  000C  0700     E  	mov a,ra
  33  000D  0080     R  	mov _offset0[0],a
  33  000E  0700     E  	mov a,rb
  33  000F  0080     R  	mov _offset0[1],a
  34  0010              #line 34 "c:\users\tech\desktop\powerlinetransceiver\Main\Main.c"
  34  0010  2000     E  	call _PLT1InputOffsetCalibration
  34  0011  0700     E  	mov a,ra
  34  0012  0080     R  	mov _offset1[0],a
"File: Main.c        Assembler  Version HGASM0202      Page 3

  34  0013  0700     E  	mov a,rb
  34  0014  0080     R  	mov _offset1[1],a
  35  0015              #line 35 "c:\users\tech\desktop\powerlinetransceiver\Main\Main.c"
  35  0015  2000     E  	call _PLT0AmplifierInputOffsetCalibration
  35  0016  0700     E  	mov a,ra
  35  0017  0080     R  	mov _offset0[0],a
  35  0018  0700     E  	mov a,rb
  35  0019  0080     R  	mov _offset0[1],a
  36  001A              #line 36 "c:\users\tech\desktop\powerlinetransceiver\Main\Main.c"
  36  001A  31C7        	set [71].3
  37  001B              #line 37 "c:\users\tech\desktop\powerlinetransceiver\Main\Main.c"
  37  001B  3547        	clr [71].2
  40  001C              #line 40 "c:\users\tech\desktop\powerlinetransceiver\Main\Main.c"
  40  001C  3499        	clr [25].1
  41  001D              #line 41 "c:\users\tech\desktop\powerlinetransceiver\Main\Main.c"
  41  001D  354E        	clr [78].2
  42  001E              #line 42 "c:\users\tech\desktop\powerlinetransceiver\Main\Main.c"
  42  001E  35CE        	clr [78].3
  43  001F              #line 43 "c:\users\tech\desktop\powerlinetransceiver\Main\Main.c"
  43  001F  349A        	clr [26].1
  52  0020              #line 52 "c:\users\tech\desktop\powerlinetransceiver\Main\Main.c"
  52  0020  0F80        	mov a,-128
  52  0021  0080     E  	mov _PLT_SerialInit_2[0],a
  52  0022  0F25        	mov a,37
  52  0023  0080     E  	mov _PLT_SerialInit_2[1],a
  52  0024  2000     E  	call _PLT_SerialInit
  52  0025              _L2:
  52  0025              #pragma debug scope 3 2
  52  0025              ;begin block, line: 52.-1
  57  0025              #line 57 "c:\users\tech\desktop\powerlinetransceiver\Main\Main.c"
  57  0025  1F00     R  	clr _RXbit[0]
  58  0026              #line 58 "c:\users\tech\desktop\powerlinetransceiver\Main\Main.c"
  58  0026  0F08        	mov a,8
  58  0027  0080     E  	mov _PLT_SerialSend_2[2],a
  58  0028  1F00     E  	clr _PLT_SerialSend_2[3]
  58  0029  0F4D        	mov a,77
  58  002A  0080     E  	mov _PLT_SerialSend_2[0],a
  58  002B  1F00     E  	clr _PLT_SerialSend_2[1]
  58  002C  2000     E  	call _PLT_SerialSend
  58  002D  0700     E  	mov a,ra
  58  002E  0080     R  	mov _frame[0],a
  58  002F  0700     E  	mov a,rb
  58  0030  0080     R  	mov _frame[1],a
  60  0031              #line 60 "c:\users\tech\desktop\powerlinetransceiver\Main\Main.c"
  60  0031  0700     R  	mov a,_RXbit[0]
  60  0032  0E01        	and a,1
  60  0033  0080     E  	mov ra,a
  60  0034  0700     E  	mov a,ra
  60  0035  0380     E  	addm a,ra
  60  0036  3498        	clr [24].1
  60  0037  0700     E  	mov a,ra
  60  0038  0598        	orm a,[24]
 129  0039              #line 129 "c:\users\tech\desktop\powerlinetransceiver\Main\Main.c"
 129  0039              ;# 129 "c:\users\tech\desktop\powerlinetransceiver\Main\Main.c" 1
 129  0039  0001        	clr wdt
 129  003A  2800     R  	jmp _L2
 129  003B              #pragma debug scope 2 1
 129  003B  2800     R  	jmp $
 129  003C              _main endp
 129  003C              
"File: Main.c        Assembler  Version HGASM0202      Page 4

 129  003C              @dummy endp
 129  003C              
 129  003C              #line 129 "c:\users\tech\desktop\powerlinetransceiver\Main\Main.c"
 129  003C              #pragma debug scope 1 1
 129  003C              public _softuart_transmit
 129  003C              #pragma debug scope 4 1
 135  003C              #line 135 "c:\users\tech\desktop\powerlinetransceiver\Main\Main.c"
 135  0000              _softuart_transmit .section 'code'
 135  0000              _softuart_transmit proc
 135  0000  00              local _softuart_transmit_2 db 1 dup(?)	; 0,1
 135  0000  0080     R  	mov _softuart_transmit_2[0],a
 135  0001              #pragma debug variable 7 4 _softuart_transmit_2+0 "data"
 135  0001              _L5:
 136  0001              #line 136 "c:\users\tech\desktop\powerlinetransceiver\Main\Main.c"
 136  0001  1E00     R  	snz _tx_busy[0]
 136  0002  2800     R  	jmp _L7
 138  0003              #line 138 "c:\users\tech\desktop\powerlinetransceiver\Main\Main.c"
 138  0003  0700     R  	mov a,_softuart_transmit_2[0]
 138  0004  0080     R  	mov _tx_data[0],a
 138  0005  2800     R  	jmp _L5
 138  0006              _L7:
 139  0006              #line 139 "c:\users\tech\desktop\powerlinetransceiver\Main\Main.c"
 139  0006  0F01        	mov a,1
 139  0007  0080     R  	mov _tx_busy[0],a
 140  0008              #line 140 "c:\users\tech\desktop\powerlinetransceiver\Main\Main.c"
 140  0008  1F00     R  	clr _bit_index[0]
 140  0009  0003        	ret
 140  000A              _softuart_transmit endp
 140  000A              #line 140 "c:\users\tech\desktop\powerlinetransceiver\Main\Main.c"
 140  000A              #pragma debug scope 1 1
 140  000A              public _offset1
 140  0000              @HCCINIT	.section 'data'
  18  0000              #line 18 "c:\users\tech\desktop\powerlinetransceiver\Main\Main.c"
  18  0000              @HCCINIT_offset1 .section 'data'
  18  0000              _offset1 label byte
  18  0000              #pragma debug variable 12 1 _offset1 "offset1"
  18  0000              	db 0
  18  0000              @ROMDATA_BASE .section inpage 'code'
  18  0000              	db 0
  18  0001              @HCCINIT_offset1 .section 'data'
  18  0001              	db 0
  18  0001              @ROMDATA_BASE .section inpage 'code'
  18  0001              	db 0
  18  0002              @HCCINIT_offset1 .section 'data'
  18  0002              public _offset0
  17  0002              #line 17 "c:\users\tech\desktop\powerlinetransceiver\Main\Main.c"
  17  0000              @HCCINIT_offset0 .section 'data'
  17  0000              _offset0 label byte
  17  0000              #pragma debug variable 12 1 _offset0 "offset0"
  17  0000              	db 0
  17  0001              @ROMDATA_BASE .section inpage 'code'
  17  0001              	db 0
  17  0001              @HCCINIT_offset0 .section 'data'
  17  0001              	db 0
  17  0002              @ROMDATA_BASE .section inpage 'code'
  17  0002              	db 0
  17  0002              @HCCINIT_offset0 .section 'data'
  17  0002              public _PLTState
  16  0002              #line 16 "c:\users\tech\desktop\powerlinetransceiver\Main\Main.c"
  16  0000              @HCCINIT_PLTState .section 'data'
"File: Main.c        Assembler  Version HGASM0202      Page 5

  16  0000              _PLTState label byte
  16  0000              #pragma debug variable 12 1 _PLTState "PLTState"
  16  0000              	db 0
  16  0002              @ROMDATA_BASE .section inpage 'code'
  16  0002              	db 0
  16  0001              @HCCINIT_PLTState .section 'data'
  16  0001              	db 0
  16  0003              @ROMDATA_BASE .section inpage 'code'
  16  0003              	db 0
  16  0002              @HCCINIT_PLTState .section 'data'
  16  0002              public _RXbit
  12  0002              #line 12 "c:\users\tech\desktop\powerlinetransceiver\Main\Main.c"
  12  0000              @HCCINIT_RXbit .section 'data'
  12  0000              _RXbit label byte
  12  0000              #pragma debug variable 7 1 _RXbit "RXbit"
  12  0000              	db 0
  12  0003              @ROMDATA_BASE .section inpage 'code'
  12  0003              	db 0
  12  0001              @HCCINIT_RXbit .section 'data'
  11  0001              #line 11 "c:\users\tech\desktop\powerlinetransceiver\Main\Main.c"
  11  0001              public _frame
  11  0000              @HCCINIT0_frame .section 'data'
  11  0000  0002[       _frame	db 2 dup(0)
            00
            ]
  11  0002              #pragma debug variable 10 1 _frame "frame"
  11  0002              
  11  0000              @HCCINIT .section 'data'
  11  0000              public _bit_index
   9  0000              #line 9 "c:\users\tech\desktop\powerlinetransceiver\Main\Main.c"
   9  0000              @HCCINIT_bit_index .section 'data'
   9  0000              _bit_index label byte
   9  0000              #pragma debug variable 7 1 _bit_index "bit_index"
   9  0000              	db 0
   9  0004              @ROMDATA_BASE .section inpage 'code'
   9  0004              	db 0
   9  0001              @HCCINIT_bit_index .section 'data'
   9  0001              public _tx_busy
   8  0001              #line 8 "c:\users\tech\desktop\powerlinetransceiver\Main\Main.c"
   8  0000              @HCCINIT_tx_busy .section 'data'
   8  0000              _tx_busy label byte
   8  0000              #pragma debug variable 7 1 _tx_busy "tx_busy"
   8  0000              	db 0
   8  0004              @ROMDATA_BASE .section inpage 'code'
   8  0004              	db 0
   8  0001              @HCCINIT_tx_busy .section 'data'
   8  0001              public _tx_data
   7  0001              #line 7 "c:\users\tech\desktop\powerlinetransceiver\Main\Main.c"
   7  0000              @HCCINIT_tx_data .section 'data'
   7  0000              _tx_data label byte
   7  0000              #pragma debug variable 7 1 _tx_data "tx_data"
   7  0000              	db -83
   7  0005              @ROMDATA_BASE .section inpage 'code'
   7  0005              	db -83
   7  0001              @HCCINIT_tx_data .section 'data'
   7  0001              public _counterR
   6  0001              #line 6 "c:\users\tech\desktop\powerlinetransceiver\Main\Main.c"
   6  0000              @HCCINIT_counterR .section 'data'
   6  0000              _counterR label byte
   6  0000              #pragma debug variable 12 1 _counterR "counterR"
"File: Main.c        Assembler  Version HGASM0202      Page 6

   6  0000              	db 0
   6  0005              @ROMDATA_BASE .section inpage 'code'
   6  0005              	db 0
   6  0001              @HCCINIT_counterR .section 'data'
   6  0001              	db 0
   6  0006              @ROMDATA_BASE .section inpage 'code'
   6  0006              	db 0
   6  0002              @HCCINIT_counterR .section 'data'
   6  0002              public _counter
   5  0002              #line 5 "c:\users\tech\desktop\powerlinetransceiver\Main\Main.c"
   5  0000              @HCCINIT_counter .section 'data'
   5  0000              _counter label byte
   5  0000              #pragma debug variable 12 1 _counter "counter"
   5  0000              	db 0
   5  0006              @ROMDATA_BASE .section inpage 'code'
   5  0006              	db 0
   5  0001              @HCCINIT_counter .section 'data'
   5  0001              	db 0
   5  0007              @ROMDATA_BASE .section inpage 'code'
   5  0007              	db 0
   5  0002              @HCCINIT_counter .section 'data'
   5  0002              #pragma debug struct_end
   5  0002              #pragma debug struct_end
   5  0002              #pragma debug union_end
   5  0002              #pragma debug union_end
   5  0002              #pragma debug variable 43 1 ___pb "__pb" 1
   5  0002              #pragma debug struct_end
   5  0002              #pragma debug struct_end
   5  0002              #pragma debug union_end
   5  0002              #pragma debug union_end
   5  0002              #pragma debug variable 45 1 ___pbc "__pbc" 1
   5  0002              #pragma debug struct_end
   5  0002              #pragma debug struct_end
   5  0002              #pragma debug union_end
   5  0002              #pragma debug union_end
   5  0002              #pragma debug variable 47 1 ___pbpu "__pbpu" 1
   5  0002              #pragma debug struct_end
   5  0002              #pragma debug struct_end
   5  0002              #pragma debug union_end
   5  0002              #pragma debug union_end
   5  0002              #pragma debug variable 49 1 ___integ "__integ" 1
   5  0002              #pragma debug struct_end
   5  0002              #pragma debug struct_end
   5  0002              #pragma debug union_end
   5  0002              #pragma debug union_end
   5  0002              #pragma debug variable 51 1 ___pbs0 "__pbs0" 1
  22  0002              #line 22 "c:\users\tech\desktop\powerlinetransceiver\Main\Main.c"
  22  0000              @code .section at 0 'code'
  22  0000  2800     R  	jmp _main_startup1
  22  0001              
  22  0001              extern _S_RCC_Init:near
  22  0001              extern _S_ADC_Init:near
  22  0001              extern _STimerInit:near
  22  0001              extern _PTimerInit:near
  22  0001              extern _TimerBaseInit:near
  22  0001              extern _UART_Init_2:byte
  22  0001              extern _UART_Init:near
  22  0001              extern _IntrruptInit:near
  22  0001              extern _S_GPIO_Init:near
  22  0001              extern _PLT0InputOffsetCalibration:near
"File: Main.c        Assembler  Version HGASM0202      Page 7

  22  0001              extern _PLT1InputOffsetCalibration:near
  22  0001              extern _PLT0AmplifierInputOffsetCalibration:near
  22  0001              extern _PLT_SerialInit_2:byte
  22  0001              extern _PLT_SerialInit:near
  22  0001              extern _PLT_SerialSend_2:byte
  22  0001              extern _PLT_SerialSend:near
  22  0001              
  22  0001              ; 
  22  0001              ; Generated by holtek-gcc v3.19, Mon Jul 22 12:39:04 2024
  22  0001              ; Rebuild 718
  22  0001              ; end of file


        0 Errors, 0