"File: Main.c        Assembler  Version HGASM0202      Page 1


   1  0000              ; Generated by holtek-gcc v3.19, Sat Dec 28 13:30:45 2024
   2  0000              ; 
   3  0000              ; Configuration:
   4  0000              ;       with long instruction
   5  0000              ;       Single ROM, Multi-RAM
   6  0000              ;       bits_per_rom_unit:16
   7  0000              ;       with mp1
   8  0000              ;       with tbhp, address(0x9)
   9  0000              ;          Use tabrd-const
  10  0000              ;       
  11  0000              ; SFR address of long-instruction arch:
  12  0000              ;    mp0 = -1,1,0
  13  0000              ;    mp1 = 4,3,2
  14  0000              ;    mp2 = 14,13,12
  15  0000              ;    tbp = 9,7,8
  16  0000              ;    acc = 5
  17  0000              ;    pcl = 6
  18  0000              ;    status = 10
  19  0000              ;    bp = 11
  20  0000              ;    intc = 72
  21  0000              ;       
  22  0000              ;       
  23  0000              ; use 'tabrdc' instead of 'tabrd'
  24  0000              ;       
  25  0000              
  26  0000              #pragma translator "holtek-gcc 4.6.4" "3.19" "build 20130711"
  27  0000              ; Rebuild 718
  28  0000              
  29  0000              ir equ [2]
  30  0000              mp equ [3]
  31  0000              sbp equ [4]
  32  0000              acc equ [5]
  33  0000              bp equ [11]
  34  0000              tblp equ [7]
  35  0000              tbhp equ [9]
  36  0000              status equ [10]
  37  0000              c equ [10].0
  38  0000              ac equ [10].1
  39  0000              z equ [10].2
  40  0000              ov equ [10].3
  41  0000              cz equ [10].6
  42  0000              sc equ [10].7
  43  0000              intc equ [72]
  44  0000              
  45  0000              extern ra:byte
  46  0000              extern rb:byte
  47  0000              extern rc:byte
  48  0000              extern rd:byte
  49  0000              extern re:byte
  50  0000              extern rf:byte
  51  0000              extern rg:byte
  52  0000              extern rh:byte
  53  0000              extern _Crom2Prom:near
  54  0000              extern _Crom2PromNext:near
  55  0000              
  56  0000              RAMBANK 0 @BITDATASEC, @BITDATASEC1
  57  0000              @HCCINIT	.section 'data'
  58  0000              @HCCINIT0	.section 'data'
  59  0000              @BITDATASEC	 .section 'data'
"File: Main.ASM      Assembler  Version HGASM0202      Page 2

  60  0000              @BITDATASEC1	 .section 'data'
  61  0000              
  62  0000              #pragma debug scope 1 1
  63  0000              	extern __DELAY3:near
  64  0000              	extern __DELAYX3:near
  65  0000              	extern __DELAYX6:near
  66  0000              	extern __DELAYY5:near
  67  0000              	extern __DELAYY3:near
  68  0000              	extern _builtin_holtek_delay_2:byte
  69  0000              public _info
  70  0000              #pragma debug scope 2 1

 131  0000              #line 131 "c:\users\tech\desktop\powerlinetransceiver\Main\Main.c"
 131  0000              _info .section 'code'
 131  0000              _info proc
 133  0000              #line 133 "c:\users\tech\desktop\powerlinetransceiver\Main\Main.c"
 133  0000  1F00     E  	clr _builtin_holtek_udivmodhi4_2[6]
 133  0001  0700     R  	mov a,_situation[2]  
 133  0002  0080     E  	mov _builtin_holtek_udivmodhi4_2[0],a  
 133  0003  0700     R  	mov a,_situation[3]  
 133  0004  0080     E  	mov _builtin_holtek_udivmodhi4_2[1],a
 133  0005  0FE8        	mov a,232  
 133  0006  0080     E  	mov _builtin_holtek_udivmodhi4_2[2],a  
 133  0007  0F03        	mov a,3  
 133  0008  0080     E  	mov _builtin_holtek_udivmodhi4_2[3],a
 133  0009  2000     E  	call _builtin_holtek_udivmodhi4
 133  000A  0700     E  	mov a,_builtin_holtek_udivmodhi4_2[0]  
 133  000B  0080     E  	mov rb,a  
 133  000C  0700     E  	mov a,_builtin_holtek_udivmodhi4_2[1]  
 133  000D  0080     E  	mov rc,a
 133  000E  1F00     E  	clr _builtin_holtek_udivmodhi4_2[6]
 133  000F  0700     E  	mov a,rb  
 133  0010  0080     E  	mov _builtin_holtek_udivmodhi4_2[0],a  
 133  0011  0700     E  	mov a,rc  
 133  0012  0080     E  	mov _builtin_holtek_udivmodhi4_2[1],a
 133  0013  0F0A        	mov a,10  
 133  0014  0080     E  	mov _builtin_holtek_udivmodhi4_2[2],a  
 133  0015  1F00     E  	clr _builtin_holtek_udivmodhi4_2[3]
 133  0016  2000     E  	call _builtin_holtek_udivmodhi4
 133  0017  0700     E  	mov a,_builtin_holtek_udivmodhi4_2[4]  
 133  0018  0080     E  	mov rb,a  
 133  0019  0700     E  	mov a,_builtin_holtek_udivmodhi4_2[5]  
 133  001A  0080     E  	mov rc,a
 133  001B  0F30        	mov a,48
 133  001C  0380     E  	addm a,rb
 133  001D  0700     E  	mov a,rb
 133  001E  2000     E  	call _UART_Transmit
 134  001F              #line 134 "c:\users\tech\desktop\powerlinetransceiver\Main\Main.c"
 134  001F  1F00     E  	clr _builtin_holtek_udivmodhi4_2[6]
 134  0020  0700     R  	mov a,_situation[2]  
 134  0021  0080     E  	mov _builtin_holtek_udivmodhi4_2[0],a  
 134  0022  0700     R  	mov a,_situation[3]  
 134  0023  0080     E  	mov _builtin_holtek_udivmodhi4_2[1],a
 134  0024  0F64        	mov a,100  
 134  0025  0080     E  	mov _builtin_holtek_udivmodhi4_2[2],a  
 134  0026  1F00     E  	clr _builtin_holtek_udivmodhi4_2[3]
 134  0027  2000     E  	call _builtin_holtek_udivmodhi4
 134  0028  0700     E  	mov a,_builtin_holtek_udivmodhi4_2[0]  
 134  0029  0080     E  	mov rb,a  
 134  002A  0700     E  	mov a,_builtin_holtek_udivmodhi4_2[1]  
"File: Main.c        Assembler  Version HGASM0202      Page 3

 134  002B  0080     E  	mov rc,a
 134  002C  1F00     E  	clr _builtin_holtek_udivmodhi4_2[6]
 134  002D  0700     E  	mov a,rb  
 134  002E  0080     E  	mov _builtin_holtek_udivmodhi4_2[0],a  
 134  002F  0700     E  	mov a,rc  
 134  0030  0080     E  	mov _builtin_holtek_udivmodhi4_2[1],a
 134  0031  0F0A        	mov a,10  
 134  0032  0080     E  	mov _builtin_holtek_udivmodhi4_2[2],a  
 134  0033  1F00     E  	clr _builtin_holtek_udivmodhi4_2[3]
 134  0034  2000     E  	call _builtin_holtek_udivmodhi4
 134  0035  0700     E  	mov a,_builtin_holtek_udivmodhi4_2[4]  
 134  0036  0080     E  	mov rb,a  
 134  0037  0700     E  	mov a,_builtin_holtek_udivmodhi4_2[5]  
 134  0038  0080     E  	mov rc,a
 134  0039  0F30        	mov a,48
 134  003A  0380     E  	addm a,rb
 134  003B  0700     E  	mov a,rb
 134  003C  2000     E  	call _UART_Transmit
 135  003D              #line 135 "c:\users\tech\desktop\powerlinetransceiver\Main\Main.c"
 135  003D  1F00     E  	clr _builtin_holtek_udivmodhi4_2[6]
 135  003E  0700     R  	mov a,_situation[2]  
 135  003F  0080     E  	mov _builtin_holtek_udivmodhi4_2[0],a  
 135  0040  0700     R  	mov a,_situation[3]  
 135  0041  0080     E  	mov _builtin_holtek_udivmodhi4_2[1],a
 135  0042  0F0A        	mov a,10  
 135  0043  0080     E  	mov _builtin_holtek_udivmodhi4_2[2],a  
 135  0044  1F00     E  	clr _builtin_holtek_udivmodhi4_2[3]
 135  0045  2000     E  	call _builtin_holtek_udivmodhi4
 135  0046  0700     E  	mov a,_builtin_holtek_udivmodhi4_2[0]  
 135  0047  0080     E  	mov rb,a  
 135  0048  0700     E  	mov a,_builtin_holtek_udivmodhi4_2[1]  
 135  0049  0080     E  	mov rc,a
 135  004A  1F00     E  	clr _builtin_holtek_udivmodhi4_2[6]
 135  004B  0700     E  	mov a,rb  
 135  004C  0080     E  	mov _builtin_holtek_udivmodhi4_2[0],a  
 135  004D  0700     E  	mov a,rc  
 135  004E  0080     E  	mov _builtin_holtek_udivmodhi4_2[1],a
 135  004F  0F0A        	mov a,10  
 135  0050  0080     E  	mov _builtin_holtek_udivmodhi4_2[2],a  
 135  0051  1F00     E  	clr _builtin_holtek_udivmodhi4_2[3]
 135  0052  2000     E  	call _builtin_holtek_udivmodhi4
 135  0053  0700     E  	mov a,_builtin_holtek_udivmodhi4_2[4]  
 135  0054  0080     E  	mov rb,a  
 135  0055  0700     E  	mov a,_builtin_holtek_udivmodhi4_2[5]  
 135  0056  0080     E  	mov rc,a
 135  0057  0F30        	mov a,48
 135  0058  0380     E  	addm a,rb
 135  0059  0700     E  	mov a,rb
 135  005A  2000     E  	call _UART_Transmit
 136  005B              #line 136 "c:\users\tech\desktop\powerlinetransceiver\Main\Main.c"
 136  005B  1F00     E  	clr _builtin_holtek_udivmodhi4_2[6]
 136  005C  0700     R  	mov a,_situation[2]  
 136  005D  0080     E  	mov _builtin_holtek_udivmodhi4_2[0],a  
 136  005E  0700     R  	mov a,_situation[3]  
 136  005F  0080     E  	mov _builtin_holtek_udivmodhi4_2[1],a
 136  0060  0F0A        	mov a,10  
 136  0061  0080     E  	mov _builtin_holtek_udivmodhi4_2[2],a  
 136  0062  1F00     E  	clr _builtin_holtek_udivmodhi4_2[3]
 136  0063  2000     E  	call _builtin_holtek_udivmodhi4
 136  0064  0700     E  	mov a,_builtin_holtek_udivmodhi4_2[4]  
"File: Main.c        Assembler  Version HGASM0202      Page 4

 136  0065  0080     E  	mov rb,a  
 136  0066  0700     E  	mov a,_builtin_holtek_udivmodhi4_2[5]  
 136  0067  0080     E  	mov rc,a
 136  0068  0F30        	mov a,48
 136  0069  0380     E  	addm a,rb
 136  006A  0700     E  	mov a,rb
 136  006B  2000     E  	call _UART_Transmit
 137  006C              #line 137 "c:\users\tech\desktop\powerlinetransceiver\Main\Main.c"
 137  006C  0F54        	mov a,84
 137  006D  2000     E  	call _UART_Transmit
 138  006E              #line 138 "c:\users\tech\desktop\powerlinetransceiver\Main\Main.c"
 138  006E  0F3D        	mov a,61
 138  006F  2000     E  	call _UART_Transmit
 139  0070              #line 139 "c:\users\tech\desktop\powerlinetransceiver\Main\Main.c"
 139  0070  1F00     E  	clr _builtin_holtek_udivmodhi4_2[6]
 139  0071  0700     R  	mov a,_situation[0]  
 139  0072  0080     E  	mov _builtin_holtek_udivmodhi4_2[0],a  
 139  0073  0700     R  	mov a,_situation[1]  
 139  0074  0080     E  	mov _builtin_holtek_udivmodhi4_2[1],a
 139  0075  0FE8        	mov a,232  
 139  0076  0080     E  	mov _builtin_holtek_udivmodhi4_2[2],a  
 139  0077  0F03        	mov a,3  
 139  0078  0080     E  	mov _builtin_holtek_udivmodhi4_2[3],a
 139  0079  2000     E  	call _builtin_holtek_udivmodhi4
 139  007A  0700     E  	mov a,_builtin_holtek_udivmodhi4_2[0]  
 139  007B  0080     E  	mov rb,a  
 139  007C  0700     E  	mov a,_builtin_holtek_udivmodhi4_2[1]  
 139  007D  0080     E  	mov rc,a
 139  007E  1F00     E  	clr _builtin_holtek_udivmodhi4_2[6]
 139  007F  0700     E  	mov a,rb  
 139  0080  0080     E  	mov _builtin_holtek_udivmodhi4_2[0],a  
 139  0081  0700     E  	mov a,rc  
 139  0082  0080     E  	mov _builtin_holtek_udivmodhi4_2[1],a
 139  0083  0F0A        	mov a,10  
 139  0084  0080     E  	mov _builtin_holtek_udivmodhi4_2[2],a  
 139  0085  1F00     E  	clr _builtin_holtek_udivmodhi4_2[3]
 139  0086  2000     E  	call _builtin_holtek_udivmodhi4
 139  0087  0700     E  	mov a,_builtin_holtek_udivmodhi4_2[4]  
 139  0088  0080     E  	mov rb,a  
 139  0089  0700     E  	mov a,_builtin_holtek_udivmodhi4_2[5]  
 139  008A  0080     E  	mov rc,a
 139  008B  0F30        	mov a,48
 139  008C  0380     E  	addm a,rb
 139  008D  0700     E  	mov a,rb
 139  008E  2000     E  	call _UART_Transmit
 140  008F              #line 140 "c:\users\tech\desktop\powerlinetransceiver\Main\Main.c"
 140  008F  1F00     E  	clr _builtin_holtek_udivmodhi4_2[6]
 140  0090  0700     R  	mov a,_situation[0]  
 140  0091  0080     E  	mov _builtin_holtek_udivmodhi4_2[0],a  
 140  0092  0700     R  	mov a,_situation[1]  
 140  0093  0080     E  	mov _builtin_holtek_udivmodhi4_2[1],a
 140  0094  0F64        	mov a,100  
 140  0095  0080     E  	mov _builtin_holtek_udivmodhi4_2[2],a  
 140  0096  1F00     E  	clr _builtin_holtek_udivmodhi4_2[3]
 140  0097  2000     E  	call _builtin_holtek_udivmodhi4
 140  0098  0700     E  	mov a,_builtin_holtek_udivmodhi4_2[0]  
 140  0099  0080     E  	mov rb,a  
 140  009A  0700     E  	mov a,_builtin_holtek_udivmodhi4_2[1]  
 140  009B  0080     E  	mov rc,a
 140  009C  1F00     E  	clr _builtin_holtek_udivmodhi4_2[6]
"File: Main.c        Assembler  Version HGASM0202      Page 5

 140  009D  0700     E  	mov a,rb  
 140  009E  0080     E  	mov _builtin_holtek_udivmodhi4_2[0],a  
 140  009F  0700     E  	mov a,rc  
 140  00A0  0080     E  	mov _builtin_holtek_udivmodhi4_2[1],a
 140  00A1  0F0A        	mov a,10  
 140  00A2  0080     E  	mov _builtin_holtek_udivmodhi4_2[2],a  
 140  00A3  1F00     E  	clr _builtin_holtek_udivmodhi4_2[3]
 140  00A4  2000     E  	call _builtin_holtek_udivmodhi4
 140  00A5  0700     E  	mov a,_builtin_holtek_udivmodhi4_2[4]  
 140  00A6  0080     E  	mov rb,a  
 140  00A7  0700     E  	mov a,_builtin_holtek_udivmodhi4_2[5]  
 140  00A8  0080     E  	mov rc,a
 140  00A9  0F30        	mov a,48
 140  00AA  0380     E  	addm a,rb
 140  00AB  0700     E  	mov a,rb
 140  00AC  2000     E  	call _UART_Transmit
 141  00AD              #line 141 "c:\users\tech\desktop\powerlinetransceiver\Main\Main.c"
 141  00AD  1F00     E  	clr _builtin_holtek_udivmodhi4_2[6]
 141  00AE  0700     R  	mov a,_situation[0]  
 141  00AF  0080     E  	mov _builtin_holtek_udivmodhi4_2[0],a  
 141  00B0  0700     R  	mov a,_situation[1]  
 141  00B1  0080     E  	mov _builtin_holtek_udivmodhi4_2[1],a
 141  00B2  0F0A        	mov a,10  
 141  00B3  0080     E  	mov _builtin_holtek_udivmodhi4_2[2],a  
 141  00B4  1F00     E  	clr _builtin_holtek_udivmodhi4_2[3]
 141  00B5  2000     E  	call _builtin_holtek_udivmodhi4
 141  00B6  0700     E  	mov a,_builtin_holtek_udivmodhi4_2[0]  
 141  00B7  0080     E  	mov rb,a  
 141  00B8  0700     E  	mov a,_builtin_holtek_udivmodhi4_2[1]  
 141  00B9  0080     E  	mov rc,a
 141  00BA  1F00     E  	clr _builtin_holtek_udivmodhi4_2[6]
 141  00BB  0700     E  	mov a,rb  
 141  00BC  0080     E  	mov _builtin_holtek_udivmodhi4_2[0],a  
 141  00BD  0700     E  	mov a,rc  
 141  00BE  0080     E  	mov _builtin_holtek_udivmodhi4_2[1],a
 141  00BF  0F0A        	mov a,10  
 141  00C0  0080     E  	mov _builtin_holtek_udivmodhi4_2[2],a  
 141  00C1  1F00     E  	clr _builtin_holtek_udivmodhi4_2[3]
 141  00C2  2000     E  	call _builtin_holtek_udivmodhi4
 141  00C3  0700     E  	mov a,_builtin_holtek_udivmodhi4_2[4]  
 141  00C4  0080     E  	mov rb,a  
 141  00C5  0700     E  	mov a,_builtin_holtek_udivmodhi4_2[5]  
 141  00C6  0080     E  	mov rc,a
 141  00C7  0F30        	mov a,48
 141  00C8  0380     E  	addm a,rb
 141  00C9  0700     E  	mov a,rb
 141  00CA  2000     E  	call _UART_Transmit
 142  00CB              #line 142 "c:\users\tech\desktop\powerlinetransceiver\Main\Main.c"
 142  00CB  1F00     E  	clr _builtin_holtek_udivmodhi4_2[6]
 142  00CC  0700     R  	mov a,_situation[0]  
 142  00CD  0080     E  	mov _builtin_holtek_udivmodhi4_2[0],a  
 142  00CE  0700     R  	mov a,_situation[1]  
 142  00CF  0080     E  	mov _builtin_holtek_udivmodhi4_2[1],a
 142  00D0  0F0A        	mov a,10  
 142  00D1  0080     E  	mov _builtin_holtek_udivmodhi4_2[2],a  
 142  00D2  1F00     E  	clr _builtin_holtek_udivmodhi4_2[3]
 142  00D3  2000     E  	call _builtin_holtek_udivmodhi4
 142  00D4  0700     E  	mov a,_builtin_holtek_udivmodhi4_2[4]  
 142  00D5  0080     E  	mov rb,a  
 142  00D6  0700     E  	mov a,_builtin_holtek_udivmodhi4_2[5]  
"File: Main.c        Assembler  Version HGASM0202      Page 6

 142  00D7  0080     E  	mov rc,a
 142  00D8  0F30        	mov a,48
 142  00D9  0380     E  	addm a,rb
 142  00DA  0700     E  	mov a,rb
 142  00DB  2000     E  	call _UART_Transmit
 143  00DC              #line 143 "c:\users\tech\desktop\powerlinetransceiver\Main\Main.c"
 143  00DC  0F0A        	mov a,10
 143  00DD  2000     E  	call _UART_Transmit
 144  00DE              #line 144 "c:\users\tech\desktop\powerlinetransceiver\Main\Main.c"
 144  00DE  1F00     R  	clr _AddresssValid[0]
 144  00DF  0003        	ret
 144  00E0              _info endp
 144  00E0              #line 144 "c:\users\tech\desktop\powerlinetransceiver\Main\Main.c"
 144  00E0              #pragma debug scope 1 1
 144  00E0              ___pa equ [20]
 144  00E0              public _main
 144  00E0              #pragma debug scope 3 1
  24  00E0              #line 24 "c:\users\tech\desktop\powerlinetransceiver\Main\Main.c"
  24  00E0              IFDEF WITH_DEFAULT_STARTUP
  24  00E0              extern _main_initial0:near
  24  00E0              extern _main_startup:near
  24  00E0              ENDIF
  24  00E0              
  24  00E0              ROMBANK 0 @start
  24  0000              @start .section com_l 'code'
  24  0000              _main_startup1:
  24  0000              @start .section com_e 'code'
  24  0000  2800     R  	jmp _main
  24  0001              
  24  0000              _main .section 'code'
  24  0000              _main proc
  24  0000  00              local _main_2 db 1 dup(?)
  24  0001              #pragma debug variable 7 3 _main_2+0 "Data"
  27  0001              #line 27 "c:\users\tech\desktop\powerlinetransceiver\Main\Main.c"
  27  0000  2000     E  	call _S_RCC_Init
  28  0001              #line 28 "c:\users\tech\desktop\powerlinetransceiver\Main\Main.c"
  28  0001  2000     E  	call _S_GPIO_Init
  29  0002              #line 29 "c:\users\tech\desktop\powerlinetransceiver\Main\Main.c"
  29  0002  2000     E  	call _InterruptInit
  30  0003              #line 30 "c:\users\tech\desktop\powerlinetransceiver\Main\Main.c"
  30  0003  0F80        	mov a,-128
  30  0004  0080     E  	mov _UART_Init_2[0],a
  30  0005  0F25        	mov a,37
  30  0006  0080     E  	mov _UART_Init_2[1],a
  30  0007  2000     E  	call _UART_Init
  31  0008              #line 31 "c:\users\tech\desktop\powerlinetransceiver\Main\Main.c"
  31  0008  2000     E  	call _PLT0Init
  32  0009              #line 32 "c:\users\tech\desktop\powerlinetransceiver\Main\Main.c"
  32  0009  2000     E  	call _PLT1Init
  33  000A              #line 33 "c:\users\tech\desktop\powerlinetransceiver\Main\Main.c"
  33  000A  3614        	clr [20].4
  33  000B              _L16:
  33  000B              #pragma debug scope 4 3
  33  000B              ;begin block, line: 33.-1
  37  000B              #line 37 "c:\users\tech\desktop\powerlinetransceiver\Main\Main.c"
  37  000B  3814        	snz [20].0
  37  000C  2800     R  	jmp _L3
  45  000D              #line 45 "c:\users\tech\desktop\powerlinetransceiver\Main\Main.c"
  45  000D  1700     R  	sdza _pushButtonState[0]
  45  000E  2800     R  	jmp _L3
"File: Main.c        Assembler  Version HGASM0202      Page 7

  45  000F  0F0A        	mov a,10
  45  0010  0200     R  	sub a,_PushButtonCounter[0]
  45  0011  0F00        	mov a,0
  45  0012  1200     R  	sbc a,_PushButtonCounter[1]
  45  0013  0F00        	mov a,0
  45  0014  1200     R  	sbc a,_PushButtonCounter[2]
  45  0015  0F00        	mov a,0
  45  0016  1200     R  	sbc a,_PushButtonCounter[3]
  45  0017  3C0A        	sz c
  45  0018  2800     R  	jmp _L3
  47  0019              #line 47 "c:\users\tech\desktop\powerlinetransceiver\Main\Main.c"
  47  0019              ;# 47 "c:\users\tech\desktop\powerlinetransceiver\Main\Main.c" 1
  47  0019              	IF 10000>263690
  47  0019              ;# 47 "c:\users\tech\desktop\powerlinetransceiver\Main\Main.c" 1
  47  0019              	ERRMESSAGE 'the value 10000of the argument exceeds the maxinum 263690'
  47  0019              	ENDIF
  47  0019              ;# 47 "c:\users\tech\desktop\powerlinetransceiver\Main\Main.c" 1
  47  0019              	IF 10000<0
  47  0019              ;# 47 "c:\users\tech\desktop\powerlinetransceiver\Main\Main.c" 1
  47  0019              	ERRMESSAGE 'the value 10000 of the argument exceeds the mininum 0'
  47  0019              	ENDIF
  47  0019              ;# 47 "c:\users\tech\desktop\powerlinetransceiver\Main\Main.c" 1
  47  0019              	IF 10000==0
  47  0019              ;# 47 "c:\users\tech\desktop\powerlinetransceiver\Main\Main.c" 1
  47  0019              	JMP $
  47  0019              	ENDIF
  47  0019              ;# 47 "c:\users\tech\desktop\powerlinetransceiver\Main\Main.c" 1
  47  0019              	IF 10000==1
  47  0019              ;# 47 "c:\users\tech\desktop\powerlinetransceiver\Main\Main.c" 1
  47  0019              	NOP
  47  0019              	ENDIF
  47  0019              ;# 47 "c:\users\tech\desktop\powerlinetransceiver\Main\Main.c" 1
  47  0019              	IF 10000==2
  47  0019              ;# 47 "c:\users\tech\desktop\powerlinetransceiver\Main\Main.c" 1
  47  0019              	NOP
  47  0019              ;# 47 "c:\users\tech\desktop\powerlinetransceiver\Main\Main.c" 1
  47  0019              	NOP
  47  0019              	ENDIF
  47  0019              ;# 47 "c:\users\tech\desktop\powerlinetransceiver\Main\Main.c" 1
  47  0019              	IF 10000==3
  47  0019              ;# 47 "c:\users\tech\desktop\powerlinetransceiver\Main\Main.c" 1
  47  0019              	NOP
  47  0019              ;# 47 "c:\users\tech\desktop\powerlinetransceiver\Main\Main.c" 1
  47  0019              	NOP
  47  0019              ;# 47 "c:\users\tech\desktop\powerlinetransceiver\Main\Main.c" 1
  47  0019              	NOP
  47  0019              	ENDIF
  47  0019              ;# 47 "c:\users\tech\desktop\powerlinetransceiver\Main\Main.c" 1
  47  0019              	IF (10000<8) AND (10000>3)
  47  0019              ;# 47 "c:\users\tech\desktop\powerlinetransceiver\Main\Main.c" 1
  47  0019              	CALL __DELAY3 + 7 -10000
  47  0019              	ENDIF
  47  0019              ;# 47 "c:\users\tech\desktop\powerlinetransceiver\Main\Main.c" 1
  47  0019              	IF (10000< 0404h) AND (10000>7)
  47  0019              ;# 47 "c:\users\tech\desktop\powerlinetransceiver\Main\Main.c" 1
  47  0019              	MOV A,10000/4-1
  47  0019              ;# 47 "c:\users\tech\desktop\powerlinetransceiver\Main\Main.c" 1
  47  0019              	CALL __DELAYX3 + 3 -(10000 MOD 4)
  47  0019              	ENDIF
  47  0019              ;# 47 "c:\users\tech\desktop\powerlinetransceiver\Main\Main.c" 1
"File: Main.c        Assembler  Version HGASM0202      Page 8

  47  0019              	IF (10000< 0x40B) AND (10000> 0403h)
  47  0019              ;# 47 "c:\users\tech\desktop\powerlinetransceiver\Main\Main.c" 1
  47  0019              	MOV A,0 
  47  0019              ;# 47 "c:\users\tech\desktop\powerlinetransceiver\Main\Main.c" 1
  47  0019              	CALL __DELAYX6 + 0x40a -10000
  47  0019              	ENDIF
  47  0019              ;# 47 "c:\users\tech\desktop\powerlinetransceiver\Main\Main.c" 1
  47  0019              	IF (10000 >= 0x40b) AND ((((10000-9)%0402h)/4+1)>256)
  47  0019              ;# 47 "c:\users\tech\desktop\powerlinetransceiver\Main\Main.c" 1
  47  0019              	MOV A,(10000-9)/0402h
  47  0019              ;# 47 "c:\users\tech\desktop\powerlinetransceiver\Main\Main.c" 1
  47  0019              	MOV _builtin_holtek_delay_2,A
  47  0019              ;# 47 "c:\users\tech\desktop\powerlinetransceiver\Main\Main.c" 1
  47  0019              	MOV A,0
  47  0019              ;# 47 "c:\users\tech\desktop\powerlinetransceiver\Main\Main.c" 1
  47  0019              	CALL __DELAYY5 +5- (((10000-9)%0402h)%6)
  47  0019              	ENDIF
  47  0019              ;# 47 "c:\users\tech\desktop\powerlinetransceiver\Main\Main.c" 1
  47  0019              	IF (10000 >= 0x40b) AND ((((10000-9)%0402h)/4+1)<=256)
  47  0019              ;# 47 "c:\users\tech\desktop\powerlinetransceiver\Main\Main.c" 1
  47  0019  0F09        	MOV A,(10000-9)/0402h
  47  001A              ;# 47 "c:\users\tech\desktop\powerlinetransceiver\Main\Main.c" 1
  47  001A  0080     E  	MOV _builtin_holtek_delay_2,A
  47  001B              ;# 47 "c:\users\tech\desktop\powerlinetransceiver\Main\Main.c" 1
  47  001B  0FBE        	MOV A,((10000-9)%0402h)/4+1
  47  001C              ;# 47 "c:\users\tech\desktop\powerlinetransceiver\Main\Main.c" 1
  47  001C  2000     E  	CALL __DELAYY3 +3-(((10000-9)%0402h)%4)
  47  001D              	ENDIF
  48  001D              #line 48 "c:\users\tech\desktop\powerlinetransceiver\Main\Main.c"
  48  001D  2000     E  	call _PLTAInit
  48  001E              _L3:
  53  001E              #line 53 "c:\users\tech\desktop\powerlinetransceiver\Main\Main.c"
  53  001E              ;# 53 "c:\users\tech\desktop\powerlinetransceiver\Main\Main.c" 1
  53  001E  0001        	clr wdt
  54  001F              #line 54 "c:\users\tech\desktop\powerlinetransceiver\Main\Main.c"
  54  001F  2000     E  	call _UART_ReceiveNonBlocking
  54  0020  0080     R  	mov _main_2[0],a
  55  0021              #line 55 "c:\users\tech\desktop\powerlinetransceiver\Main\Main.c"
  55  0021              ;# 55 "c:\users\tech\desktop\powerlinetransceiver\Main\Main.c" 1
  55  0021  0001        	clr wdt
  57  0022              #line 57 "c:\users\tech\desktop\powerlinetransceiver\Main\Main.c"
  57  0022  1E00     R  	snz _main_2[0]
  57  0023  2800     R  	jmp _L5
  59  0024              #line 59 "c:\users\tech\desktop\powerlinetransceiver\Main\Main.c"
  59  0024  0700     R  	mov a,_main_2[0]
  59  0025  2000     E  	call _UART_Transmit
  60  0026              #line 60 "c:\users\tech\desktop\powerlinetransceiver\Main\Main.c"
  60  0026  0700     R  	mov a,_main_2[0]
  60  0027  0A67        	sub a,103
  60  0028  3D0A        	sz z
  60  0029  2800     R  	jmp _L6
  60  002A  0700     R  	mov a,_main_2[0]
  60  002B  0A5A        	sub a,90
  60  002C  390A        	snz z
  60  002D  2800     R  	jmp _L7
  60  002E              _L6:
  62  002E              #line 62 "c:\users\tech\desktop\powerlinetransceiver\Main\Main.c"
  62  002E  0F01        	mov a,1
  62  002F  0080     R  	mov _AddresssValid[0],a
  62  0030              _L7:
"File: Main.c        Assembler  Version HGASM0202      Page 9

  65  0030              #line 65 "c:\users\tech\desktop\powerlinetransceiver\Main\Main.c"
  65  0030  1E00     R  	snz _AddresssValid[0]
  65  0031  2800     R  	jmp _L5
  65  0032  0700     R  	mov a,_main_2[0]
  65  0033  0A4F        	sub a,79
  65  0034  390A        	snz z
  65  0035  2800     R  	jmp _L8
  67  0036              #line 67 "c:\users\tech\desktop\powerlinetransceiver\Main\Main.c"
  67  0036              ;# 67 "c:\users\tech\desktop\powerlinetransceiver\Main\Main.c" 1
  67  0036              	IF 10000>263690
  67  0036              ;# 67 "c:\users\tech\desktop\powerlinetransceiver\Main\Main.c" 1
  67  0036              	ERRMESSAGE 'the value 10000of the argument exceeds the maxinum 263690'
  67  0036              	ENDIF
  67  0036              ;# 67 "c:\users\tech\desktop\powerlinetransceiver\Main\Main.c" 1
  67  0036              	IF 10000<0
  67  0036              ;# 67 "c:\users\tech\desktop\powerlinetransceiver\Main\Main.c" 1
  67  0036              	ERRMESSAGE 'the value 10000 of the argument exceeds the mininum 0'
  67  0036              	ENDIF
  67  0036              ;# 67 "c:\users\tech\desktop\powerlinetransceiver\Main\Main.c" 1
  67  0036              	IF 10000==0
  67  0036              ;# 67 "c:\users\tech\desktop\powerlinetransceiver\Main\Main.c" 1
  67  0036              	JMP $
  67  0036              	ENDIF
  67  0036              ;# 67 "c:\users\tech\desktop\powerlinetransceiver\Main\Main.c" 1
  67  0036              	IF 10000==1
  67  0036              ;# 67 "c:\users\tech\desktop\powerlinetransceiver\Main\Main.c" 1
  67  0036              	NOP
  67  0036              	ENDIF
  67  0036              ;# 67 "c:\users\tech\desktop\powerlinetransceiver\Main\Main.c" 1
  67  0036              	IF 10000==2
  67  0036              ;# 67 "c:\users\tech\desktop\powerlinetransceiver\Main\Main.c" 1
  67  0036              	NOP
  67  0036              ;# 67 "c:\users\tech\desktop\powerlinetransceiver\Main\Main.c" 1
  67  0036              	NOP
  67  0036              	ENDIF
  67  0036              ;# 67 "c:\users\tech\desktop\powerlinetransceiver\Main\Main.c" 1
  67  0036              	IF 10000==3
  67  0036              ;# 67 "c:\users\tech\desktop\powerlinetransceiver\Main\Main.c" 1
  67  0036              	NOP
  67  0036              ;# 67 "c:\users\tech\desktop\powerlinetransceiver\Main\Main.c" 1
  67  0036              	NOP
  67  0036              ;# 67 "c:\users\tech\desktop\powerlinetransceiver\Main\Main.c" 1
  67  0036              	NOP
  67  0036              	ENDIF
  67  0036              ;# 67 "c:\users\tech\desktop\powerlinetransceiver\Main\Main.c" 1
  67  0036              	IF (10000<8) AND (10000>3)
  67  0036              ;# 67 "c:\users\tech\desktop\powerlinetransceiver\Main\Main.c" 1
  67  0036              	CALL __DELAY3 + 7 -10000
  67  0036              	ENDIF
  67  0036              ;# 67 "c:\users\tech\desktop\powerlinetransceiver\Main\Main.c" 1
  67  0036              	IF (10000< 0404h) AND (10000>7)
  67  0036              ;# 67 "c:\users\tech\desktop\powerlinetransceiver\Main\Main.c" 1
  67  0036              	MOV A,10000/4-1
  67  0036              ;# 67 "c:\users\tech\desktop\powerlinetransceiver\Main\Main.c" 1
  67  0036              	CALL __DELAYX3 + 3 -(10000 MOD 4)
  67  0036              	ENDIF
  67  0036              ;# 67 "c:\users\tech\desktop\powerlinetransceiver\Main\Main.c" 1
  67  0036              	IF (10000< 0x40B) AND (10000> 0403h)
  67  0036              ;# 67 "c:\users\tech\desktop\powerlinetransceiver\Main\Main.c" 1
  67  0036              	MOV A,0 
"File: Main.c        Assembler  Version HGASM0202      Page 10

  67  0036              ;# 67 "c:\users\tech\desktop\powerlinetransceiver\Main\Main.c" 1
  67  0036              	CALL __DELAYX6 + 0x40a -10000
  67  0036              	ENDIF
  67  0036              ;# 67 "c:\users\tech\desktop\powerlinetransceiver\Main\Main.c" 1
  67  0036              	IF (10000 >= 0x40b) AND ((((10000-9)%0402h)/4+1)>256)
  67  0036              ;# 67 "c:\users\tech\desktop\powerlinetransceiver\Main\Main.c" 1
  67  0036              	MOV A,(10000-9)/0402h
  67  0036              ;# 67 "c:\users\tech\desktop\powerlinetransceiver\Main\Main.c" 1
  67  0036              	MOV _builtin_holtek_delay_2,A
  67  0036              ;# 67 "c:\users\tech\desktop\powerlinetransceiver\Main\Main.c" 1
  67  0036              	MOV A,0
  67  0036              ;# 67 "c:\users\tech\desktop\powerlinetransceiver\Main\Main.c" 1
  67  0036              	CALL __DELAYY5 +5- (((10000-9)%0402h)%6)
  67  0036              	ENDIF
  67  0036              ;# 67 "c:\users\tech\desktop\powerlinetransceiver\Main\Main.c" 1
  67  0036              	IF (10000 >= 0x40b) AND ((((10000-9)%0402h)/4+1)<=256)
  67  0036              ;# 67 "c:\users\tech\desktop\powerlinetransceiver\Main\Main.c" 1
  67  0036  0F09        	MOV A,(10000-9)/0402h
  67  0037              ;# 67 "c:\users\tech\desktop\powerlinetransceiver\Main\Main.c" 1
  67  0037  0080     E  	MOV _builtin_holtek_delay_2,A
  67  0038              ;# 67 "c:\users\tech\desktop\powerlinetransceiver\Main\Main.c" 1
  67  0038  0FBE        	MOV A,((10000-9)%0402h)/4+1
  67  0039              ;# 67 "c:\users\tech\desktop\powerlinetransceiver\Main\Main.c" 1
  67  0039  2000     E  	CALL __DELAYY3 +3-(((10000-9)%0402h)%4)
  67  003A              	ENDIF
  68  003A              #line 68 "c:\users\tech\desktop\powerlinetransceiver\Main\Main.c"
  68  003A  2000     E  	call _PLTAInit
  69  003B              #line 69 "c:\users\tech\desktop\powerlinetransceiver\Main\Main.c"
  69  003B  0F4F        	mov a,79
  69  003C  2000     E  	call _UART_Transmit
  70  003D              #line 70 "c:\users\tech\desktop\powerlinetransceiver\Main\Main.c"
  70  003D  2000     R  	call _info
  71  003E              #line 71 "c:\users\tech\desktop\powerlinetransceiver\Main\Main.c"
  71  003E  1F00     R  	clr _AddresssValid[0]
  71  003F              _L8:
  74  003F              #line 74 "c:\users\tech\desktop\powerlinetransceiver\Main\Main.c"
  74  003F  1E00     R  	snz _AddresssValid[0]
  74  0040  2800     R  	jmp _L5
  74  0041  0700     R  	mov a,_main_2[0]
  74  0042  0A43        	sub a,67
  74  0043  390A        	snz z
  74  0044  2800     R  	jmp _L9
  76  0045              #line 76 "c:\users\tech\desktop\powerlinetransceiver\Main\Main.c"
  76  0045              ;# 76 "c:\users\tech\desktop\powerlinetransceiver\Main\Main.c" 1
  76  0045              	IF 10000>263690
  76  0045              ;# 76 "c:\users\tech\desktop\powerlinetransceiver\Main\Main.c" 1
  76  0045              	ERRMESSAGE 'the value 10000of the argument exceeds the maxinum 263690'
  76  0045              	ENDIF
  76  0045              ;# 76 "c:\users\tech\desktop\powerlinetransceiver\Main\Main.c" 1
  76  0045              	IF 10000<0
  76  0045              ;# 76 "c:\users\tech\desktop\powerlinetransceiver\Main\Main.c" 1
  76  0045              	ERRMESSAGE 'the value 10000 of the argument exceeds the mininum 0'
  76  0045              	ENDIF
  76  0045              ;# 76 "c:\users\tech\desktop\powerlinetransceiver\Main\Main.c" 1
  76  0045              	IF 10000==0
  76  0045              ;# 76 "c:\users\tech\desktop\powerlinetransceiver\Main\Main.c" 1
  76  0045              	JMP $
  76  0045              	ENDIF
  76  0045              ;# 76 "c:\users\tech\desktop\powerlinetransceiver\Main\Main.c" 1
  76  0045              	IF 10000==1
"File: Main.c        Assembler  Version HGASM0202      Page 11

  76  0045              ;# 76 "c:\users\tech\desktop\powerlinetransceiver\Main\Main.c" 1
  76  0045              	NOP
  76  0045              	ENDIF
  76  0045              ;# 76 "c:\users\tech\desktop\powerlinetransceiver\Main\Main.c" 1
  76  0045              	IF 10000==2
  76  0045              ;# 76 "c:\users\tech\desktop\powerlinetransceiver\Main\Main.c" 1
  76  0045              	NOP
  76  0045              ;# 76 "c:\users\tech\desktop\powerlinetransceiver\Main\Main.c" 1
  76  0045              	NOP
  76  0045              	ENDIF
  76  0045              ;# 76 "c:\users\tech\desktop\powerlinetransceiver\Main\Main.c" 1
  76  0045              	IF 10000==3
  76  0045              ;# 76 "c:\users\tech\desktop\powerlinetransceiver\Main\Main.c" 1
  76  0045              	NOP
  76  0045              ;# 76 "c:\users\tech\desktop\powerlinetransceiver\Main\Main.c" 1
  76  0045              	NOP
  76  0045              ;# 76 "c:\users\tech\desktop\powerlinetransceiver\Main\Main.c" 1
  76  0045              	NOP
  76  0045              	ENDIF
  76  0045              ;# 76 "c:\users\tech\desktop\powerlinetransceiver\Main\Main.c" 1
  76  0045              	IF (10000<8) AND (10000>3)
  76  0045              ;# 76 "c:\users\tech\desktop\powerlinetransceiver\Main\Main.c" 1
  76  0045              	CALL __DELAY3 + 7 -10000
  76  0045              	ENDIF
  76  0045              ;# 76 "c:\users\tech\desktop\powerlinetransceiver\Main\Main.c" 1
  76  0045              	IF (10000< 0404h) AND (10000>7)
  76  0045              ;# 76 "c:\users\tech\desktop\powerlinetransceiver\Main\Main.c" 1
  76  0045              	MOV A,10000/4-1
  76  0045              ;# 76 "c:\users\tech\desktop\powerlinetransceiver\Main\Main.c" 1
  76  0045              	CALL __DELAYX3 + 3 -(10000 MOD 4)
  76  0045              	ENDIF
  76  0045              ;# 76 "c:\users\tech\desktop\powerlinetransceiver\Main\Main.c" 1
  76  0045              	IF (10000< 0x40B) AND (10000> 0403h)
  76  0045              ;# 76 "c:\users\tech\desktop\powerlinetransceiver\Main\Main.c" 1
  76  0045              	MOV A,0 
  76  0045              ;# 76 "c:\users\tech\desktop\powerlinetransceiver\Main\Main.c" 1
  76  0045              	CALL __DELAYX6 + 0x40a -10000
  76  0045              	ENDIF
  76  0045              ;# 76 "c:\users\tech\desktop\powerlinetransceiver\Main\Main.c" 1
  76  0045              	IF (10000 >= 0x40b) AND ((((10000-9)%0402h)/4+1)>256)
  76  0045              ;# 76 "c:\users\tech\desktop\powerlinetransceiver\Main\Main.c" 1
  76  0045              	MOV A,(10000-9)/0402h
  76  0045              ;# 76 "c:\users\tech\desktop\powerlinetransceiver\Main\Main.c" 1
  76  0045              	MOV _builtin_holtek_delay_2,A
  76  0045              ;# 76 "c:\users\tech\desktop\powerlinetransceiver\Main\Main.c" 1
  76  0045              	MOV A,0
  76  0045              ;# 76 "c:\users\tech\desktop\powerlinetransceiver\Main\Main.c" 1
  76  0045              	CALL __DELAYY5 +5- (((10000-9)%0402h)%6)
  76  0045              	ENDIF
  76  0045              ;# 76 "c:\users\tech\desktop\powerlinetransceiver\Main\Main.c" 1
  76  0045              	IF (10000 >= 0x40b) AND ((((10000-9)%0402h)/4+1)<=256)
  76  0045              ;# 76 "c:\users\tech\desktop\powerlinetransceiver\Main\Main.c" 1
  76  0045  0F09        	MOV A,(10000-9)/0402h
  76  0046              ;# 76 "c:\users\tech\desktop\powerlinetransceiver\Main\Main.c" 1
  76  0046  0080     E  	MOV _builtin_holtek_delay_2,A
  76  0047              ;# 76 "c:\users\tech\desktop\powerlinetransceiver\Main\Main.c" 1
  76  0047  0FBE        	MOV A,((10000-9)%0402h)/4+1
  76  0048              ;# 76 "c:\users\tech\desktop\powerlinetransceiver\Main\Main.c" 1
  76  0048  2000     E  	CALL __DELAYY3 +3-(((10000-9)%0402h)%4)
  76  0049              	ENDIF
"File: Main.c        Assembler  Version HGASM0202      Page 12

  77  0049              #line 77 "c:\users\tech\desktop\powerlinetransceiver\Main\Main.c"
  77  0049  2000     E  	call _PLTAInit
  78  004A              #line 78 "c:\users\tech\desktop\powerlinetransceiver\Main\Main.c"
  78  004A  0F43        	mov a,67
  78  004B  2000     E  	call _UART_Transmit
  79  004C              #line 79 "c:\users\tech\desktop\powerlinetransceiver\Main\Main.c"
  79  004C  2000     R  	call _info
  80  004D              #line 80 "c:\users\tech\desktop\powerlinetransceiver\Main\Main.c"
  80  004D  1F00     R  	clr _AddresssValid[0]
  80  004E              _L9:
  83  004E              #line 83 "c:\users\tech\desktop\powerlinetransceiver\Main\Main.c"
  83  004E  1E00     R  	snz _AddresssValid[0]
  83  004F  2800     R  	jmp _L5
  83  0050  0700     R  	mov a,_main_2[0]
  83  0051  0A4C        	sub a,76
  83  0052  390A        	snz z
  83  0053  2800     R  	jmp _L10
  84  0054              #line 84 "c:\users\tech\desktop\powerlinetransceiver\Main\Main.c"
  84  0054  0F01        	mov a,1
  84  0055  0080     R  	mov _LEDState[0],a
  85  0056              #line 85 "c:\users\tech\desktop\powerlinetransceiver\Main\Main.c"
  85  0056  1F00     R  	clr _AddresssValid[0]
  85  0057              _L10:
  87  0057              #line 87 "c:\users\tech\desktop\powerlinetransceiver\Main\Main.c"
  87  0057  1E00     R  	snz _AddresssValid[0]
  87  0058  2800     R  	jmp _L5
  87  0059  0700     R  	mov a,_main_2[0]
  87  005A  0A48        	sub a,72
  87  005B  390A        	snz z
  87  005C  2800     R  	jmp _L5
  88  005D              #line 88 "c:\users\tech\desktop\powerlinetransceiver\Main\Main.c"
  88  005D  1F00     R  	clr _LEDState[0]
  89  005E              #line 89 "c:\users\tech\desktop\powerlinetransceiver\Main\Main.c"
  89  005E  1F00     R  	clr _AddresssValid[0]
  89  005F              _L5:
  92  005F              #line 92 "c:\users\tech\desktop\powerlinetransceiver\Main\Main.c"
  92  005F  0700     R  	mov a,_LEDState[0]
  92  0060  0E01        	and a,1
  92  0061  0080     E  	mov ra,a
  92  0062  1100     E  	swapa ra
  92  0063  0EF0        	and a,0f0h 
  92  0064  0080     E  	mov ra,a
  92  0065  3614        	clr [20].4
  92  0066  0700     E  	mov a,ra
  92  0067  0594        	orm a,[20]
  93  0068              #line 93 "c:\users\tech\desktop\powerlinetransceiver\Main\Main.c"
  93  0068  2000     E  	call _PLTAOFF
  94  0069              #line 94 "c:\users\tech\desktop\powerlinetransceiver\Main\Main.c"
  94  0069  0F01        	mov a,1
  94  006A  0300     R  	add a,_SecTick[0]
  94  006B  0080     E  	mov rd,a
  94  006C  0F00        	mov a,0
  94  006D  1300     R  	adc a,_SecTick[1]
  94  006E  0080     E  	mov re,a
  94  006F  0F00        	mov a,0
  94  0070  1300     R  	adc a,_SecTick[2]
  94  0071  0080     E  	mov rf,a
  94  0072  0F00        	mov a,0
  94  0073  1300     R  	adc a,_SecTick[3]
  94  0074  0080     E  	mov rg,a
"File: Main.c        Assembler  Version HGASM0202      Page 13

  94  0075  0700     E  	mov a,rd
  94  0076  0080     R  	mov _SecTick[0],a
  94  0077  0700     E  	mov a,re
  94  0078  0080     R  	mov _SecTick[1],a
  94  0079  0700     E  	mov a,rf
  94  007A  0080     R  	mov _SecTick[2],a
  94  007B  0700     E  	mov a,rg
  94  007C  0080     R  	mov _SecTick[3],a
  95  007D              #line 95 "c:\users\tech\desktop\powerlinetransceiver\Main\Main.c"
  95  007D  0FC8        	mov a,200
  95  007E  0200     E  	sub a,rd
  95  007F  0F32        	mov a,50
  95  0080  1200     E  	sbc a,re
  95  0081  0F00        	mov a,0
  95  0082  1200     E  	sbc a,rf
  95  0083  0F00        	mov a,0
  95  0084  1200     E  	sbc a,rg
  95  0085  3C0A        	sz c
  95  0086  2800     R  	jmp _L12
  97  0087              #line 97 "c:\users\tech\desktop\powerlinetransceiver\Main\Main.c"
  97  0087  1480     R  	inc _SecondsCounterLED[0]
  98  0088              #line 98 "c:\users\tech\desktop\powerlinetransceiver\Main\Main.c"
  98  0088  1480     R  	inc _SecondsCounterCheckStatus[0]
  99  0089              #line 99 "c:\users\tech\desktop\powerlinetransceiver\Main\Main.c"
  99  0089  1F00     R  	clr _SecTick[0]
  99  008A  1F00     R  	clr _SecTick[1]
  99  008B  1F00     R  	clr _SecTick[2]
  99  008C  1F00     R  	clr _SecTick[3]
  99  008D              _L12:
 102  008D              #line 102 "c:\users\tech\desktop\powerlinetransceiver\Main\Main.c"
 102  008D  0F01        	mov a,1
 102  008E  0200     R  	sub a,_SecondsCounterCheckStatus[0]
 102  008F  3C0A        	sz c
 102  0090  2800     R  	jmp _L13
 104  0091              #line 104 "c:\users\tech\desktop\powerlinetransceiver\Main\Main.c"
 104  0091  2000     E  	call _ADCInit
 105  0092              #line 105 "c:\users\tech\desktop\powerlinetransceiver\Main\Main.c"
 105  0092  3114        	set [20].2
 106  0093              #line 106 "c:\users\tech\desktop\powerlinetransceiver\Main\Main.c"
 106  0093  0F01        	mov a,1
 106  0094  2000     E  	call _ReadADC
 106  0095  1F00     E  	clr _temperature_2[2]
 106  0096  0F40        	mov a,64
 106  0097  0080     E  	mov _temperature_2[3],a
 106  0098  0F40        	mov a,64
 106  0099  0080     E  	mov _temperature_2[4],a
 106  009A  0700     E  	mov a,ra
 106  009B  0080     E  	mov _temperature_2[0],a
 106  009C  0700     E  	mov a,rb
 106  009D  0080     E  	mov _temperature_2[1],a
 106  009E  2000     E  	call _temperature
 106  009F  1F00     E  	clr _builtin_holtek_mant12p[0]
 106  00A0  0700     E  	mov a,rc
 106  00A1  0080     E  	mov _builtin_holtek_mant1[2],a
 106  00A2  0700     E  	mov a,rb
 106  00A3  0080     E  	mov _builtin_holtek_mant1[1],a
 106  00A4  0700     E  	mov a,ra
 106  00A5  0080     E  	mov _builtin_holtek_mant1[0],a
 106  00A6  2000     E  	call _builtin_holtek_ftol
 106  00A7  0700     E  	mov a,_builtin_holtek_mant12p[0]
"File: Main.c        Assembler  Version HGASM0202      Page 14

 106  00A8  0080     E  	mov rg,a
 106  00A9  0700     E  	mov a,_builtin_holtek_mant1[2]
 106  00AA  0080     E  	mov rf,a
 106  00AB  0700     E  	mov a,_builtin_holtek_mant1[1]
 106  00AC  0080     E  	mov re,a
 106  00AD  0700     E  	mov a,_builtin_holtek_mant1[0]
 106  00AE  0080     E  	mov rd,a
 106  00AF  0700     E  	mov a,rd
 106  00B0  0080     R  	mov _situation[0],a
 106  00B1  0700     E  	mov a,re
 106  00B2  0080     R  	mov _situation[1],a
 107  00B3              #line 107 "c:\users\tech\desktop\powerlinetransceiver\Main\Main.c"
 107  00B3  3514        	clr [20].2
 108  00B4              #line 108 "c:\users\tech\desktop\powerlinetransceiver\Main\Main.c"
 108  00B4  2000     E  	call _InitSmokeDetection
 109  00B5              #line 109 "c:\users\tech\desktop\powerlinetransceiver\Main\Main.c"
 109  00B5  0F00     R  	mov a,low (offset _situation+2)
 109  00B6  0080     E  	mov _CheckSmokeLevel_2[0],a
 109  00B7  0F00     R  	mov a,high (offset _situation+2)
 109  00B8  0080     E  	mov _CheckSmokeLevel_2[1],a
 109  00B9  2000     E  	call _CheckSmokeLevel
 110  00BA              #line 110 "c:\users\tech\desktop\powerlinetransceiver\Main\Main.c"
 110  00BA  0700     R  	mov a,_situation[2]
 110  00BB  0500     R  	or a,_situation[3]
 110  00BC  390A        	snz z
 110  00BD  2800     R  	jmp _L14
 110  00BE  0F46        	mov a,70
 110  00BF  2000     E  	call _UART_Transmit
 110  00C0              _L14:
 111  00C0              #line 111 "c:\users\tech\desktop\powerlinetransceiver\Main\Main.c"
 111  00C0  2000     E  	call _SmokeDetectionOFF
 112  00C1              #line 112 "c:\users\tech\desktop\powerlinetransceiver\Main\Main.c"
 112  00C1  2000     E  	call _ADC_Inactive
 113  00C2              #line 113 "c:\users\tech\desktop\powerlinetransceiver\Main\Main.c"
 113  00C2  1F00     R  	clr _SecondsCounterCheckStatus[0]
 113  00C3              _L13:
 117  00C3              #line 117 "c:\users\tech\desktop\powerlinetransceiver\Main\Main.c"
 117  00C3  0F0B        	mov a,11
 117  00C4  0200     R  	sub a,_SecondsCounterLED[0]
 117  00C5  3C0A        	sz c
 117  00C6  2800     R  	jmp _L16
 119  00C7              #line 119 "c:\users\tech\desktop\powerlinetransceiver\Main\Main.c"
 119  00C7  3214        	set [20].4
 120  00C8              #line 120 "c:\users\tech\desktop\powerlinetransceiver\Main\Main.c"
 120  00C8              ;# 120 "c:\users\tech\desktop\powerlinetransceiver\Main\Main.c" 1
 120  00C8              	IF 1000>263690
 120  00C8              ;# 120 "c:\users\tech\desktop\powerlinetransceiver\Main\Main.c" 1
 120  00C8              	ERRMESSAGE 'the value 1000of the argument exceeds the maxinum 263690'
 120  00C8              	ENDIF
 120  00C8              ;# 120 "c:\users\tech\desktop\powerlinetransceiver\Main\Main.c" 1
 120  00C8              	IF 1000<0
 120  00C8              ;# 120 "c:\users\tech\desktop\powerlinetransceiver\Main\Main.c" 1
 120  00C8              	ERRMESSAGE 'the value 1000 of the argument exceeds the mininum 0'
 120  00C8              	ENDIF
 120  00C8              ;# 120 "c:\users\tech\desktop\powerlinetransceiver\Main\Main.c" 1
 120  00C8              	IF 1000==0
 120  00C8              ;# 120 "c:\users\tech\desktop\powerlinetransceiver\Main\Main.c" 1
 120  00C8              	JMP $
 120  00C8              	ENDIF
 120  00C8              ;# 120 "c:\users\tech\desktop\powerlinetransceiver\Main\Main.c" 1
"File: Main.c        Assembler  Version HGASM0202      Page 15

 120  00C8              	IF 1000==1
 120  00C8              ;# 120 "c:\users\tech\desktop\powerlinetransceiver\Main\Main.c" 1
 120  00C8              	NOP
 120  00C8              	ENDIF
 120  00C8              ;# 120 "c:\users\tech\desktop\powerlinetransceiver\Main\Main.c" 1
 120  00C8              	IF 1000==2
 120  00C8              ;# 120 "c:\users\tech\desktop\powerlinetransceiver\Main\Main.c" 1
 120  00C8              	NOP
 120  00C8              ;# 120 "c:\users\tech\desktop\powerlinetransceiver\Main\Main.c" 1
 120  00C8              	NOP
 120  00C8              	ENDIF
 120  00C8              ;# 120 "c:\users\tech\desktop\powerlinetransceiver\Main\Main.c" 1
 120  00C8              	IF 1000==3
 120  00C8              ;# 120 "c:\users\tech\desktop\powerlinetransceiver\Main\Main.c" 1
 120  00C8              	NOP
 120  00C8              ;# 120 "c:\users\tech\desktop\powerlinetransceiver\Main\Main.c" 1
 120  00C8              	NOP
 120  00C8              ;# 120 "c:\users\tech\desktop\powerlinetransceiver\Main\Main.c" 1
 120  00C8              	NOP
 120  00C8              	ENDIF
 120  00C8              ;# 120 "c:\users\tech\desktop\powerlinetransceiver\Main\Main.c" 1
 120  00C8              	IF (1000<8) AND (1000>3)
 120  00C8              ;# 120 "c:\users\tech\desktop\powerlinetransceiver\Main\Main.c" 1
 120  00C8              	CALL __DELAY3 + 7 -1000
 120  00C8              	ENDIF
 120  00C8              ;# 120 "c:\users\tech\desktop\powerlinetransceiver\Main\Main.c" 1
 120  00C8              	IF (1000< 0404h) AND (1000>7)
 120  00C8              ;# 120 "c:\users\tech\desktop\powerlinetransceiver\Main\Main.c" 1
 120  00C8  0FF9        	MOV A,1000/4-1
 120  00C9              ;# 120 "c:\users\tech\desktop\powerlinetransceiver\Main\Main.c" 1
 120  00C9  2000     E  	CALL __DELAYX3 + 3 -(1000 MOD 4)
 120  00CA              	ENDIF
 120  00CA              ;# 120 "c:\users\tech\desktop\powerlinetransceiver\Main\Main.c" 1
 120  00CA              	IF (1000< 0x40B) AND (1000> 0403h)
 120  00CA              ;# 120 "c:\users\tech\desktop\powerlinetransceiver\Main\Main.c" 1
 120  00CA              	MOV A,0 
 120  00CA              ;# 120 "c:\users\tech\desktop\powerlinetransceiver\Main\Main.c" 1
 120  00CA              	CALL __DELAYX6 + 0x40a -1000
 120  00CA              	ENDIF
 120  00CA              ;# 120 "c:\users\tech\desktop\powerlinetransceiver\Main\Main.c" 1
 120  00CA              	IF (1000 >= 0x40b) AND ((((1000-9)%0402h)/4+1)>256)
 120  00CA              ;# 120 "c:\users\tech\desktop\powerlinetransceiver\Main\Main.c" 1
 120  00CA              	MOV A,(1000-9)/0402h
 120  00CA              ;# 120 "c:\users\tech\desktop\powerlinetransceiver\Main\Main.c" 1
 120  00CA              	MOV _builtin_holtek_delay_2,A
 120  00CA              ;# 120 "c:\users\tech\desktop\powerlinetransceiver\Main\Main.c" 1
 120  00CA              	MOV A,0
 120  00CA              ;# 120 "c:\users\tech\desktop\powerlinetransceiver\Main\Main.c" 1
 120  00CA              	CALL __DELAYY5 +5- (((1000-9)%0402h)%6)
 120  00CA              	ENDIF
 120  00CA              ;# 120 "c:\users\tech\desktop\powerlinetransceiver\Main\Main.c" 1
 120  00CA              	IF (1000 >= 0x40b) AND ((((1000-9)%0402h)/4+1)<=256)
 120  00CA              ;# 120 "c:\users\tech\desktop\powerlinetransceiver\Main\Main.c" 1
 120  00CA              	MOV A,(1000-9)/0402h
 120  00CA              ;# 120 "c:\users\tech\desktop\powerlinetransceiver\Main\Main.c" 1
 120  00CA              	MOV _builtin_holtek_delay_2,A
 120  00CA              ;# 120 "c:\users\tech\desktop\powerlinetransceiver\Main\Main.c" 1
 120  00CA              	MOV A,((1000-9)%0402h)/4+1
 120  00CA              ;# 120 "c:\users\tech\desktop\powerlinetransceiver\Main\Main.c" 1
 120  00CA              	CALL __DELAYY3 +3-(((1000-9)%0402h)%4)
"File: Main.c        Assembler  Version HGASM0202      Page 16

 120  00CA              	ENDIF
 121  00CA              #line 121 "c:\users\tech\desktop\powerlinetransceiver\Main\Main.c"
 121  00CA  3614        	clr [20].4
 122  00CB              #line 122 "c:\users\tech\desktop\powerlinetransceiver\Main\Main.c"
 122  00CB  1F00     R  	clr _SecondsCounterLED[0]
 122  00CC  2800     R  	jmp _L16
 122  00CD              #pragma debug scope 3 1
 122  00CD  2800     R  	jmp $
 122  00CE              _main endp
 122  00CE              
 122  00CE              @dummy endp
 122  00CE              
 122  00CE              #line 122 "c:\users\tech\desktop\powerlinetransceiver\Main\Main.c"
 122  00CE              #pragma debug scope 1 1
  21  00CE              #line 21 "c:\users\tech\desktop\powerlinetransceiver\Main\Main.c"
  21  00CE              public _tx_busy
  21  0000              @HCCINIT0_tx_busy .section 'data'
  21  0000              _tx_busy	db 0
  21  0001              #pragma debug variable 7 1 _tx_busy "tx_busy"
  21  0001              
  21  0000              @HCCINIT .section 'data'
  20  0000              #line 20 "c:\users\tech\desktop\powerlinetransceiver\Main\Main.c"
  20  0000              public _frame
  20  0000              @HCCINIT0_frame .section 'data'
  20  0000  0002[       _frame	db 2 dup(0)
            00
            ]
  20  0002              #pragma debug pointer 42 10 1
  20  0002              #pragma debug pointer 42 10 1
  20  0002              #pragma debug variable 42 1 _frame "frame"
  20  0002              
  20  0000              @HCCINIT .section 'data'
  20  0000              public _LEDState
  20  0000              @HCCINIT	.section 'data'
  17  0000              #line 17 "c:\users\tech\desktop\powerlinetransceiver\Main\Main.c"
  17  0000              @HCCINIT_LEDState .section 'data'
  17  0000              _LEDState label byte
  17  0000              #pragma debug variable 8 1 _LEDState "LEDState"
  17  0000              	db 0
  17  0000              @ROMDATA_BASE .section inpage 'code'
  17  0000              	db 0
  17  0001              @HCCINIT_LEDState .section 'data'
  17  0001              public _PushButtonCounter
  16  0001              #line 16 "c:\users\tech\desktop\powerlinetransceiver\Main\Main.c"
  16  0000              @HCCINIT_PushButtonCounter .section 'data'
  16  0000              _PushButtonCounter label byte
  16  0000              #pragma debug variable 14 1 _PushButtonCounter "PushButtonCounter"
  16  0000              	db 0
  16  0001              @ROMDATA_BASE .section inpage 'code'
  16  0001              	db 0
  16  0001              @HCCINIT_PushButtonCounter .section 'data'
  16  0001              	db 0
  16  0001              @ROMDATA_BASE .section inpage 'code'
  16  0001              	db 0
  16  0002              @HCCINIT_PushButtonCounter .section 'data'
  16  0002              	db 0
  16  0002              @ROMDATA_BASE .section inpage 'code'
  16  0002              	db 0
  16  0003              @HCCINIT_PushButtonCounter .section 'data'
  16  0003              	db 0
"File: Main.c        Assembler  Version HGASM0202      Page 17

  16  0002              @ROMDATA_BASE .section inpage 'code'
  16  0002              	db 0
  16  0004              @HCCINIT_PushButtonCounter .section 'data'
  16  0004              public _AddresssValid
  15  0004              #line 15 "c:\users\tech\desktop\powerlinetransceiver\Main\Main.c"
  15  0000              @HCCINIT_AddresssValid .section 'data'
  15  0000              _AddresssValid label byte
  15  0000              #pragma debug variable 8 1 _AddresssValid "AddresssValid"
  15  0000              	db 0
  15  0003              @ROMDATA_BASE .section inpage 'code'
  15  0003              	db 0
  15  0001              @HCCINIT_AddresssValid .section 'data'
  15  0001              public _pushButtonState
  14  0001              #line 14 "c:\users\tech\desktop\powerlinetransceiver\Main\Main.c"
  14  0000              @HCCINIT_pushButtonState .section 'data'
  14  0000              _pushButtonState label byte
  14  0000              #pragma debug variable 8 1 _pushButtonState "pushButtonState"
  14  0000              	db 0
  14  0003              @ROMDATA_BASE .section inpage 'code'
  14  0003              	db 0
  14  0001              @HCCINIT_pushButtonState .section 'data'
  14  0001              public _i
  13  0001              #line 13 "c:\users\tech\desktop\powerlinetransceiver\Main\Main.c"
  13  0000              @HCCINIT_i .section 'data'
  13  0000              _i label byte
  13  0000              #pragma debug variable 12 1 _i "i"
  13  0000              	db 0
  13  0004              @ROMDATA_BASE .section inpage 'code'
  13  0004              	db 0
  13  0001              @HCCINIT_i .section 'data'
  13  0001              	db 0
  13  0004              @ROMDATA_BASE .section inpage 'code'
  13  0004              	db 0
  13  0002              @HCCINIT_i .section 'data'
  13  0002              public _SecondsCounterCheckStatus
  12  0002              #line 12 "c:\users\tech\desktop\powerlinetransceiver\Main\Main.c"
  12  0000              @HCCINIT_SecondsCounterCheckStatus .section 'data'
  12  0000              _SecondsCounterCheckStatus label byte
  12  0000              #pragma debug variable 8 1 _SecondsCounterCheckStatus "SecondsCounterCheckStatus"
  12  0000              	db 0
  12  0005              @ROMDATA_BASE .section inpage 'code'
  12  0005              	db 0
  12  0001              @HCCINIT_SecondsCounterCheckStatus .section 'data'
  12  0001              public _SecondsCounterLED
  11  0001              #line 11 "c:\users\tech\desktop\powerlinetransceiver\Main\Main.c"
  11  0000              @HCCINIT_SecondsCounterLED .section 'data'
  11  0000              _SecondsCounterLED label byte
  11  0000              #pragma debug variable 8 1 _SecondsCounterLED "SecondsCounterLED"
  11  0000              	db 0
  11  0005              @ROMDATA_BASE .section inpage 'code'
  11  0005              	db 0
  11  0001              @HCCINIT_SecondsCounterLED .section 'data'
  11  0001              public _SecTick
  10  0001              #line 10 "c:\users\tech\desktop\powerlinetransceiver\Main\Main.c"
  10  0000              @HCCINIT_SecTick .section 'data'
  10  0000              _SecTick label byte
  10  0000              #pragma debug variable 14 1 _SecTick "SecTick"
  10  0000              	db 0
  10  0006              @ROMDATA_BASE .section inpage 'code'
  10  0006              	db 0
"File: Main.c        Assembler  Version HGASM0202      Page 18

  10  0001              @HCCINIT_SecTick .section 'data'
  10  0001              	db 0
  10  0006              @ROMDATA_BASE .section inpage 'code'
  10  0006              	db 0
  10  0002              @HCCINIT_SecTick .section 'data'
  10  0002              	db 0
  10  0007              @ROMDATA_BASE .section inpage 'code'
  10  0007              	db 0
  10  0003              @HCCINIT_SecTick .section 'data'
  10  0003              	db 0
  10  0007              @ROMDATA_BASE .section inpage 'code'
  10  0007              	db 0
  10  0004              @HCCINIT_SecTick .section 'data'
   7  0004              #line 7 "c:\users\tech\desktop\powerlinetransceiver\Main\Main.c"
   7  0004              public _situation
   7  0000              @HCCINIT0_situation .section 'data'
   7  0000  0004[       _situation	db 4 dup(0)
            00
            ]
   7  0004              #pragma debug struct_end
   7  0004              #pragma debug struct_end
   7  0004              #pragma debug variable 43 1 _situation "situation"
   7  0004              
   7  0000              @HCCINIT .section 'data'
   7  0000              #pragma debug struct_end
   7  0000              #pragma debug struct_end
   7  0000              #pragma debug union_end
   7  0000              #pragma debug union_end
   7  0000              #pragma debug variable 45 1 ___pa "__pa" 1
  24  0000              #line 24 "c:\users\tech\desktop\powerlinetransceiver\Main\Main.c"
  24  0000              @code .section at 0 'code'
  24  0000  2800     R  	jmp _main_startup1
  24  0001              
  24  0001              extern _builtin_holtek_udivmodhi4_2:byte
  24  0001              extern _builtin_holtek_udivmodhi4:near
  24  0001              extern _UART_Transmit:near
  24  0001              extern _S_RCC_Init:near
  24  0001              extern _S_GPIO_Init:near
  24  0001              extern _InterruptInit:near
  24  0001              extern _UART_Init_2:byte
  24  0001              extern _UART_Init:near
  24  0001              extern _PLT0Init:near
  24  0001              extern _PLT1Init:near
  24  0001              extern _PLTAInit:near
  24  0001              extern _UART_ReceiveNonBlocking:near
  24  0001              extern _PLTAOFF:near
  24  0001              extern _ADCInit:near
  24  0001              extern _ReadADC:near
  24  0001              extern _temperature_2:byte
  24  0001              extern _temperature:near
  24  0001              extern _builtin_holtek_mant1:byte
  24  0001              extern _builtin_holtek_mant12p:byte
  24  0001              extern _builtin_holtek_ftol:near
  24  0001              extern _InitSmokeDetection:near
  24  0001              extern _CheckSmokeLevel_2:byte
  24  0001              extern _CheckSmokeLevel:near
  24  0001              extern _SmokeDetectionOFF:near
  24  0001              extern _ADC_Inactive:near
  24  0001              
  24  0001              ; 
"File: Main.c        Assembler  Version HGASM0202      Page 19

  24  0001              ; Generated by holtek-gcc v3.19, Sat Dec 28 13:30:45 2024
  24  0001              ; Rebuild 718
  24  0001              ; end of file


        0 Errors, 0