"File: PLT.c         Assembler  Version HGASM0202      Page 1


   1  0000              ; Generated by holtek-gcc v3.19, Sat Oct 26 14:55:23 2024
   2  0000              ; 
   3  0000              ; Configuration:
   4  0000              ;       with long instruction
   5  0000              ;       Single ROM, Multi-RAM
   6  0000              ;       bits_per_rom_unit:16
   7  0000              ;       with mp1
   8  0000              ;       with tbhp, address(0x9)
   9  0000              ;          Use tabrd-const
  10  0000              ;       
  11  0000              ; SFR address of long-instruction arch:
  12  0000              ;    mp0 = -1,1,0
  13  0000              ;    mp1 = 4,3,2
  14  0000              ;    mp2 = 14,13,12
  15  0000              ;    tbp = 9,7,8
  16  0000              ;    acc = 5
  17  0000              ;    pcl = 6
  18  0000              ;    status = 10
  19  0000              ;    bp = 11
  20  0000              ;    intc = 72
  21  0000              ;       
  22  0000              ;       
  23  0000              ; use 'tabrdc' instead of 'tabrd'
  24  0000              ;       
  25  0000              
  26  0000              #pragma translator "holtek-gcc 4.6.4" "3.19" "build 20130711"
  27  0000              ; Rebuild 718
  28  0000              
  29  0000              ir equ [2]
  30  0000              mp equ [3]
  31  0000              sbp equ [4]
  32  0000              acc equ [5]
  33  0000              bp equ [11]
  34  0000              tblp equ [7]
  35  0000              tbhp equ [9]
  36  0000              status equ [10]
  37  0000              c equ [10].0
  38  0000              ac equ [10].1
  39  0000              z equ [10].2
  40  0000              ov equ [10].3
  41  0000              cz equ [10].6
  42  0000              sc equ [10].7
  43  0000              intc equ [72]
  44  0000              
  45  0000              extern ra:byte
  46  0000              extern rb:byte
  47  0000              extern rc:byte
  48  0000              extern rd:byte
  49  0000              extern re:byte
  50  0000              extern rf:byte
  51  0000              extern rg:byte
  52  0000              extern rh:byte
  53  0000              extern _Crom2Prom:near
  54  0000              extern _Crom2PromNext:near
  55  0000              
  56  0000              RAMBANK 0 @BITDATASEC, @BITDATASEC1
  57  0000              @HCCINIT	.section 'data'
  58  0000              @HCCINIT0	.section 'data'
  59  0000              @BITDATASEC	 .section 'data'
"File: PLT.ASM       Assembler  Version HGASM0202      Page 2

  60  0000              @BITDATASEC1	 .section 'data'
  61  0000              
  62  0000              #pragma debug scope 1 1
  63  0000              	extern __DELAY3:near
  64  0000              	extern __DELAYX3:near
  65  0000              	extern __DELAYX6:near
  66  0000              	extern __DELAYY5:near
  67  0000              	extern __DELAYY3:near
  68  0000              	extern _builtin_holtek_delay_2:byte
  69  0000              ___pltc0vos equ [55]
  70  0000              ___pltc0c equ [54]
  71  0000              public _PLT0InputOffsetCalibration
  72  0000              #pragma debug scope 2 1

  12  0000              #line 12 "c:\users\tech\desktop\powerlinetransceiver\PLT\PLT.c"
  12  0000              _PLT0InputOffsetCalibration .section 'code'
  12  0000              _PLT0InputOffsetCalibration proc
  17  0000              #line 17 "c:\users\tech\desktop\powerlinetransceiver\PLT\PLT.c"
  17  0000  3337        	set [55].6
  18  0001              #line 18 "c:\users\tech\desktop\powerlinetransceiver\PLT\PLT.c"
  18  0001  3337        	set [55].6
  18  0002  32B7        	set [55].5
  19  0003              #line 19 "c:\users\tech\desktop\powerlinetransceiver\PLT\PLT.c"
  19  0003  1F37        	clr [55]
  20  0004              #line 20 "c:\users\tech\desktop\powerlinetransceiver\PLT\PLT.c"
  20  0004  0F01        	mov a,1
  20  0005  0080     R  	mov ___value_1911[0],a
  20  0006  1F00     R  	clr ___value_1911[1]
  20  0007  0F01        	mov a,1
  20  0008  0080     E  	mov rd,a
  20  0009  1F00     E  	clr re
  22  000A              #line 22 "c:\users\tech\desktop\powerlinetransceiver\PLT\PLT.c"
  22  000A  1F00     E  	clr rf
  22  000B  1F00     E  	clr rg
  22  000C              _L6:
  24  000C              #line 24 "c:\users\tech\desktop\powerlinetransceiver\PLT\PLT.c"
  24  000C  0700     E  	mov a,rf
  24  000D  0380     E  	addm a,rd
  24  000E  0700     E  	mov a,rg
  24  000F  1380     E  	adcm a,re
  25  0010              #line 25 "c:\users\tech\desktop\powerlinetransceiver\PLT\PLT.c"
  25  0010  0700     E  	mov a,rd
  25  0011  0E1F        	and a,31
  25  0012  00B7        	mov [55],a
  27  0013              #line 27 "c:\users\tech\desktop\powerlinetransceiver\PLT\PLT.c"
  27  0013  3BB6        	snz [54].7
  27  0014  2800     R  	jmp _L2
  27  0015              _L11:
  27  0015  0700     E  	mov a,rd
  27  0016  0080     R  	mov _VC0OS1[0],a
  27  0017  0700     E  	mov a,re
  27  0018  0080     R  	mov _VC0OS1[1],a
  34  0019              #line 34 "c:\users\tech\desktop\powerlinetransceiver\PLT\PLT.c"
  34  0019  0F1F        	mov a,31
  34  001A  0080     R  	mov ___value_1911[0],a
  34  001B  1F00     R  	clr ___value_1911[1]
  34  001C  0F1F        	mov a,31
  34  001D  0080     E  	mov rb,a
  34  001E  1F00     E  	clr rc
  35  001F              #line 35 "c:\users\tech\desktop\powerlinetransceiver\PLT\PLT.c"
"File: PLT.c         Assembler  Version HGASM0202      Page 3

  35  001F  1F00     E  	clr rf
  35  0020  1F00     E  	clr rg
  35  0021  2800     R  	jmp _L3
  35  0022              _L2:
  22  0022              #line 22 "c:\users\tech\desktop\powerlinetransceiver\PLT\PLT.c"
  22  0022  1480     E  	inc rf
  22  0023  3D0A        	sz z
  22  0024  1480     E  	inc rg
  22  0025  0700     E  	mov a,rf
  22  0026  0C03        	xor a,3
  22  0027  0500     E  	or a,rg
  22  0028  390A        	snz z
  22  0029  2800     R  	jmp _L6
  22  002A  2800     R  	jmp _L11
  22  002B              _L7:
  35  002B              #line 35 "c:\users\tech\desktop\powerlinetransceiver\PLT\PLT.c"
  35  002B  1480     E  	inc rf
  35  002C  3D0A        	sz z
  35  002D  1480     E  	inc rg
  35  002E  0700     E  	mov a,rf
  35  002F  0C05        	xor a,5
  35  0030  0500     E  	or a,rg
  35  0031  3D0A        	sz z
  35  0032  2800     R  	jmp _L12
  35  0033              _L3:
  37  0033              #line 37 "c:\users\tech\desktop\powerlinetransceiver\PLT\PLT.c"
  37  0033  0700     E  	mov a,rb
  37  0034  0200     E  	sub a,rf
  37  0035  0080     E  	mov rb,a
  37  0036  0700     E  	mov a,rc
  37  0037  1200     E  	sbc a,rg
  37  0038  0080     E  	mov rc,a
  38  0039              #line 38 "c:\users\tech\desktop\powerlinetransceiver\PLT\PLT.c"
  38  0039  0700     E  	mov a,rb
  38  003A  0E1F        	and a,31
  38  003B  00B7        	mov [55],a
  40  003C              #line 40 "c:\users\tech\desktop\powerlinetransceiver\PLT\PLT.c"
  40  003C  3BB6        	snz [54].7
  40  003D  2800     R  	jmp _L7
  40  003E              _L12:
  40  003E  0700     E  	mov a,rb
  40  003F  0080     R  	mov _VC0OS2[0],a
  40  0040  0700     E  	mov a,rc
  40  0041  0080     R  	mov _VC0OS2[1],a
  47  0042              #line 47 "c:\users\tech\desktop\powerlinetransceiver\PLT\PLT.c"
  47  0042  0700     E  	mov a,rd
  47  0043  0380     E  	addm a,rb
  47  0044  0700     E  	mov a,re
  47  0045  1380     E  	adcm a,rc
  47  0046  0700     E  	mov a,rb
  47  0047  0080     E  	mov rd,a
  47  0048  0700     E  	mov a,rc
  47  0049  0080     E  	mov re,a
  47  004A  1A80     E  	rlc re
  47  004B  1F00     E  	clr rd
  47  004C  1A80     E  	rlc rd
  47  004D  1F00     E  	clr re
  47  004E  0700     E  	mov a,rd
  47  004F  0380     E  	addm a,rb
  47  0050  0700     E  	mov a,re
"File: PLT.c         Assembler  Version HGASM0202      Page 4

  47  0051  1380     E  	adcm a,rc
  47  0052  1A00     E  	rlca rc
  47  0053  1B80     E  	rrc rc
  47  0054  1B80     E  	rrc rb
  47  0055  0700     E  	mov a,rb
  47  0056  0080     R  	mov ___value_1911[0],a
  47  0057  0700     E  	mov a,rc
  47  0058  0080     R  	mov ___value_1911[1],a
  48  0059              #line 48 "c:\users\tech\desktop\powerlinetransceiver\PLT\PLT.c"
  48  0059  0700     E  	mov a,rb
  48  005A  0E1F        	and a,31
  48  005B  00B7        	mov [55],a
  56  005C              #line 56 "c:\users\tech\desktop\powerlinetransceiver\PLT\PLT.c"
  56  005C  0700     E  	mov a,rb
  56  005D  0080     E  	mov ra,a
  56  005E  0700     E  	mov a,rc
  56  005F  0080     E  	mov rb,a
  56  0060  0003        	ret
  56  0061              _PLT0InputOffsetCalibration endp
  56  0061              #line 56 "c:\users\tech\desktop\powerlinetransceiver\PLT\PLT.c"
  56  0061              #pragma debug scope 1 1
  56  0061              ___pltc1vos equ [57]
  56  0061              ___pltc1c equ [56]
  56  0061              public _PLT1InputOffsetCalibration
  56  0061              #pragma debug scope 3 1
  57  0061              #line 57 "c:\users\tech\desktop\powerlinetransceiver\PLT\PLT.c"
  57  0000              _PLT1InputOffsetCalibration .section 'code'
  57  0000              _PLT1InputOffsetCalibration proc
  62  0000              #line 62 "c:\users\tech\desktop\powerlinetransceiver\PLT\PLT.c"
  62  0000  3339        	set [57].6
  63  0001              #line 63 "c:\users\tech\desktop\powerlinetransceiver\PLT\PLT.c"
  63  0001  3339        	set [57].6
  63  0002  32B9        	set [57].5
  64  0003              #line 64 "c:\users\tech\desktop\powerlinetransceiver\PLT\PLT.c"
  64  0003  1F39        	clr [57]
  65  0004              #line 65 "c:\users\tech\desktop\powerlinetransceiver\PLT\PLT.c"
  65  0004  0F01        	mov a,1
  65  0005  0080     R  	mov ___value_1922[0],a
  65  0006  1F00     R  	clr ___value_1922[1]
  65  0007  0F01        	mov a,1
  65  0008  0080     E  	mov rd,a
  65  0009  1F00     E  	clr re
  67  000A              #line 67 "c:\users\tech\desktop\powerlinetransceiver\PLT\PLT.c"
  67  000A  1F00     E  	clr rf
  67  000B  1F00     E  	clr rg
  67  000C              _L19:
  69  000C              #line 69 "c:\users\tech\desktop\powerlinetransceiver\PLT\PLT.c"
  69  000C  0700     E  	mov a,rf
  69  000D  0380     E  	addm a,rd
  69  000E  0700     E  	mov a,rg
  69  000F  1380     E  	adcm a,re
  70  0010              #line 70 "c:\users\tech\desktop\powerlinetransceiver\PLT\PLT.c"
  70  0010  0F05        	mov a,5
  70  0011  00B9        	mov [57],a
  72  0012              #line 72 "c:\users\tech\desktop\powerlinetransceiver\PLT\PLT.c"
  72  0012  3BB8        	snz [56].7
  72  0013  2800     R  	jmp _L15
  72  0014              _L24:
  72  0014  0700     E  	mov a,rd
  72  0015  0080     R  	mov _VC1OS1[0],a
"File: PLT.c         Assembler  Version HGASM0202      Page 5

  72  0016  0700     E  	mov a,re
  72  0017  0080     R  	mov _VC1OS1[1],a
  80  0018              #line 80 "c:\users\tech\desktop\powerlinetransceiver\PLT\PLT.c"
  80  0018  0F1F        	mov a,31
  80  0019  0080     R  	mov ___value_1922[0],a
  80  001A  1F00     R  	clr ___value_1922[1]
  80  001B  0F1F        	mov a,31
  80  001C  0080     E  	mov rb,a
  80  001D  1F00     E  	clr rc
  81  001E              #line 81 "c:\users\tech\desktop\powerlinetransceiver\PLT\PLT.c"
  81  001E  1F00     E  	clr rf
  81  001F  1F00     E  	clr rg
  81  0020  2800     R  	jmp _L16
  81  0021              _L15:
  67  0021              #line 67 "c:\users\tech\desktop\powerlinetransceiver\PLT\PLT.c"
  67  0021  1480     E  	inc rf
  67  0022  3D0A        	sz z
  67  0023  1480     E  	inc rg
  67  0024  0700     E  	mov a,rf
  67  0025  0C03        	xor a,3
  67  0026  0500     E  	or a,rg
  67  0027  390A        	snz z
  67  0028  2800     R  	jmp _L19
  67  0029  2800     R  	jmp _L24
  67  002A              _L20:
  81  002A              #line 81 "c:\users\tech\desktop\powerlinetransceiver\PLT\PLT.c"
  81  002A  1480     E  	inc rf
  81  002B  3D0A        	sz z
  81  002C  1480     E  	inc rg
  81  002D  0700     E  	mov a,rf
  81  002E  0C05        	xor a,5
  81  002F  0500     E  	or a,rg
  81  0030  3D0A        	sz z
  81  0031  2800     R  	jmp _L25
  81  0032              _L16:
  83  0032              #line 83 "c:\users\tech\desktop\powerlinetransceiver\PLT\PLT.c"
  83  0032  0700     E  	mov a,rb
  83  0033  0200     E  	sub a,rf
  83  0034  0080     E  	mov rb,a
  83  0035  0700     E  	mov a,rc
  83  0036  1200     E  	sbc a,rg
  83  0037  0080     E  	mov rc,a
  84  0038              #line 84 "c:\users\tech\desktop\powerlinetransceiver\PLT\PLT.c"
  84  0038  0700     E  	mov a,rb
  84  0039  0E1F        	and a,31
  84  003A  00B9        	mov [57],a
  86  003B              #line 86 "c:\users\tech\desktop\powerlinetransceiver\PLT\PLT.c"
  86  003B  3BB8        	snz [56].7
  86  003C  2800     R  	jmp _L20
  86  003D              _L25:
  86  003D  0700     E  	mov a,rb
  86  003E  0080     R  	mov _VC1OS2[0],a
  86  003F  0700     E  	mov a,rc
  86  0040  0080     R  	mov _VC1OS2[1],a
  94  0041              #line 94 "c:\users\tech\desktop\powerlinetransceiver\PLT\PLT.c"
  94  0041  0700     E  	mov a,rd
  94  0042  0380     E  	addm a,rb
  94  0043  0700     E  	mov a,re
  94  0044  1380     E  	adcm a,rc
  94  0045  0700     E  	mov a,rb
"File: PLT.c         Assembler  Version HGASM0202      Page 6

  94  0046  0080     E  	mov rd,a
  94  0047  0700     E  	mov a,rc
  94  0048  0080     E  	mov re,a
  94  0049  1A80     E  	rlc re
  94  004A  1F00     E  	clr rd
  94  004B  1A80     E  	rlc rd
  94  004C  1F00     E  	clr re
  94  004D  0700     E  	mov a,rd
  94  004E  0380     E  	addm a,rb
  94  004F  0700     E  	mov a,re
  94  0050  1380     E  	adcm a,rc
  94  0051  1A00     E  	rlca rc
  94  0052  1B80     E  	rrc rc
  94  0053  1B80     E  	rrc rb
  94  0054  0700     E  	mov a,rb
  94  0055  0080     R  	mov ___value_1922[0],a
  94  0056  0700     E  	mov a,rc
  94  0057  0080     R  	mov ___value_1922[1],a
  96  0058              #line 96 "c:\users\tech\desktop\powerlinetransceiver\PLT\PLT.c"
  96  0058  0700     E  	mov a,rb
  96  0059  0E1F        	and a,31
  96  005A  00B9        	mov [57],a
  99  005B              #line 99 "c:\users\tech\desktop\powerlinetransceiver\PLT\PLT.c"
  99  005B  0700     E  	mov a,rb
  99  005C  0080     E  	mov ra,a
  99  005D  0700     E  	mov a,rc
  99  005E  0080     E  	mov rb,a
  99  005F  0003        	ret
  99  0060              _PLT1InputOffsetCalibration endp
  99  0060              #line 99 "c:\users\tech\desktop\powerlinetransceiver\PLT\PLT.c"
  99  0060              #pragma debug scope 1 1
  99  0060              ___pltavos equ [60]
  99  0060              ___pltac equ [59]
  99  0060              public _PLTAInputOffsetCalibration
  99  0060              #pragma debug scope 4 1
 100  0060              #line 100 "c:\users\tech\desktop\powerlinetransceiver\PLT\PLT.c"
 100  0000              _PLTAInputOffsetCalibration .section 'code'
 100  0000              _PLTAInputOffsetCalibration proc
 101  0000              #line 101 "c:\users\tech\desktop\powerlinetransceiver\PLT\PLT.c"
 101  0000  33BC        	set [60].7
 105  0001              #line 105 "c:\users\tech\desktop\powerlinetransceiver\PLT\PLT.c"
 105  0001  33BC        	set [60].7
 106  0002              #line 106 "c:\users\tech\desktop\powerlinetransceiver\PLT\PLT.c"
 106  0002  33BC        	set [60].7
 106  0003  373C        	clr [60].6
 107  0004              #line 107 "c:\users\tech\desktop\powerlinetransceiver\PLT\PLT.c"
 107  0004  1F3C        	clr [60]
 108  0005              #line 108 "c:\users\tech\desktop\powerlinetransceiver\PLT\PLT.c"
 108  0005  0F01        	mov a,1
 108  0006  0080     R  	mov ___value_1933[0],a
 108  0007  1F00     R  	clr ___value_1933[1]
 108  0008  0F01        	mov a,1
 108  0009  0080     E  	mov rd,a
 108  000A  1F00     E  	clr re
 109  000B              #line 109 "c:\users\tech\desktop\powerlinetransceiver\PLT\PLT.c"
 109  000B  1F00     E  	clr rf
 109  000C  1F00     E  	clr rg
 109  000D              _L31:
 111  000D              #line 111 "c:\users\tech\desktop\powerlinetransceiver\PLT\PLT.c"
 111  000D  0700     E  	mov a,rf
"File: PLT.c         Assembler  Version HGASM0202      Page 7

 111  000E  0380     E  	addm a,rd
 111  000F  0700     E  	mov a,rg
 111  0010  1380     E  	adcm a,re
 112  0011              #line 112 "c:\users\tech\desktop\powerlinetransceiver\PLT\PLT.c"
 112  0011  0F05        	mov a,5
 112  0012  00BC        	mov [60],a
 114  0013              #line 114 "c:\users\tech\desktop\powerlinetransceiver\PLT\PLT.c"
 114  0013  3ABB        	snz [59].5
 114  0014  2800     R  	jmp _L27
 114  0015              _L36:
 114  0015  0700     E  	mov a,rd
 114  0016  0080     R  	mov _VC2OS1[0],a
 114  0017  0700     E  	mov a,re
 114  0018  0080     R  	mov _VC2OS1[1],a
 122  0019              #line 122 "c:\users\tech\desktop\powerlinetransceiver\PLT\PLT.c"
 122  0019  0F1F        	mov a,31
 122  001A  0080     R  	mov ___value_1933[0],a
 122  001B  1F00     R  	clr ___value_1933[1]
 122  001C  0F1F        	mov a,31
 122  001D  0080     E  	mov rb,a
 122  001E  1F00     E  	clr rc
 123  001F              #line 123 "c:\users\tech\desktop\powerlinetransceiver\PLT\PLT.c"
 123  001F  1F00     E  	clr rf
 123  0020  1F00     E  	clr rg
 123  0021  2800     R  	jmp _L28
 123  0022              _L27:
 109  0022              #line 109 "c:\users\tech\desktop\powerlinetransceiver\PLT\PLT.c"
 109  0022  1480     E  	inc rf
 109  0023  3D0A        	sz z
 109  0024  1480     E  	inc rg
 109  0025  0700     E  	mov a,rf
 109  0026  0C03        	xor a,3
 109  0027  0500     E  	or a,rg
 109  0028  390A        	snz z
 109  0029  2800     R  	jmp _L31
 109  002A  2800     R  	jmp _L36
 109  002B              _L32:
 123  002B              #line 123 "c:\users\tech\desktop\powerlinetransceiver\PLT\PLT.c"
 123  002B  1480     E  	inc rf
 123  002C  3D0A        	sz z
 123  002D  1480     E  	inc rg
 123  002E  0700     E  	mov a,rf
 123  002F  0C05        	xor a,5
 123  0030  0500     E  	or a,rg
 123  0031  3D0A        	sz z
 123  0032  2800     R  	jmp _L37
 123  0033              _L28:
 125  0033              #line 125 "c:\users\tech\desktop\powerlinetransceiver\PLT\PLT.c"
 125  0033  0700     E  	mov a,rb
 125  0034  0200     E  	sub a,rf
 125  0035  0080     E  	mov rb,a
 125  0036  0700     E  	mov a,rc
 125  0037  1200     E  	sbc a,rg
 125  0038  0080     E  	mov rc,a
 126  0039              #line 126 "c:\users\tech\desktop\powerlinetransceiver\PLT\PLT.c"
 126  0039  0700     E  	mov a,rb
 126  003A  0E1F        	and a,31
 126  003B  00BC        	mov [60],a
 128  003C              #line 128 "c:\users\tech\desktop\powerlinetransceiver\PLT\PLT.c"
 128  003C  3ABB        	snz [59].5
"File: PLT.c         Assembler  Version HGASM0202      Page 8

 128  003D  2800     R  	jmp _L32
 128  003E              _L37:
 128  003E  0700     E  	mov a,rb
 128  003F  0080     R  	mov _VC2OS2[0],a
 128  0040  0700     E  	mov a,rc
 128  0041  0080     R  	mov _VC2OS2[1],a
 135  0042              #line 135 "c:\users\tech\desktop\powerlinetransceiver\PLT\PLT.c"
 135  0042  0700     E  	mov a,rd
 135  0043  0380     E  	addm a,rb
 135  0044  0700     E  	mov a,re
 135  0045  1380     E  	adcm a,rc
 135  0046  0700     E  	mov a,rb
 135  0047  0080     E  	mov rd,a
 135  0048  0700     E  	mov a,rc
 135  0049  0080     E  	mov re,a
 135  004A  1A80     E  	rlc re
 135  004B  1F00     E  	clr rd
 135  004C  1A80     E  	rlc rd
 135  004D  1F00     E  	clr re
 135  004E  0700     E  	mov a,rd
 135  004F  0380     E  	addm a,rb
 135  0050  0700     E  	mov a,re
 135  0051  1380     E  	adcm a,rc
 135  0052  1A00     E  	rlca rc
 135  0053  1B80     E  	rrc rc
 135  0054  1B80     E  	rrc rb
 135  0055  0700     E  	mov a,rb
 135  0056  0080     R  	mov ___value_1933[0],a
 135  0057  0700     E  	mov a,rc
 135  0058  0080     R  	mov ___value_1933[1],a
 136  0059              #line 136 "c:\users\tech\desktop\powerlinetransceiver\PLT\PLT.c"
 136  0059  0700     E  	mov a,rb
 136  005A  0E1F        	and a,31
 136  005B  00BC        	mov [60],a
 138  005C              #line 138 "c:\users\tech\desktop\powerlinetransceiver\PLT\PLT.c"
 138  005C  0700     E  	mov a,rb
 138  005D  0080     E  	mov ra,a
 138  005E  0700     E  	mov a,rc
 138  005F  0080     E  	mov rb,a
 138  0060  0003        	ret
 138  0061              _PLTAInputOffsetCalibration endp
 138  0061              #line 138 "c:\users\tech\desktop\powerlinetransceiver\PLT\PLT.c"
 138  0061              #pragma debug scope 1 1
 138  0061              ___pltdacc equ [50]
 138  0061              ___pltda1l equ [52]
 138  0061              ___pltchyc equ [58]
 138  0061              public _PLT1Init
 138  0061              #pragma debug scope 5 1
 153  0061              #line 153 "c:\users\tech\desktop\powerlinetransceiver\PLT\PLT.c"
 153  0000              _PLT1Init .section 'code'
 153  0000              _PLT1Init proc
 155  0000              #line 155 "c:\users\tech\desktop\powerlinetransceiver\PLT\PLT.c"
 155  0000  2000     R  	call _PLT1InputOffsetCalibration
 156  0001              #line 156 "c:\users\tech\desktop\powerlinetransceiver\PLT\PLT.c"
 156  0001  3739        	clr [57].6
 157  0002              #line 157 "c:\users\tech\desktop\powerlinetransceiver\PLT\PLT.c"
 157  0002  30B2        	set [50].1
 158  0003              #line 158 "c:\users\tech\desktop\powerlinetransceiver\PLT\PLT.c"
 158  0003  0F12        	mov a,18
 158  0004  00B4        	mov [52],a
"File: PLT.c         Assembler  Version HGASM0202      Page 9

 159  0005              #line 159 "c:\users\tech\desktop\powerlinetransceiver\PLT\PLT.c"
 159  0005  3739        	clr [57].6
 159  0006  36B9        	clr [57].5
 160  0007              #line 160 "c:\users\tech\desktop\powerlinetransceiver\PLT\PLT.c"
 160  0007  1F3A        	clr [58]
 161  0008              #line 161 "c:\users\tech\desktop\powerlinetransceiver\PLT\PLT.c"
 161  0008  3438        	clr [56].0
 161  0009  34B8        	clr [56].1
 162  000A              #line 162 "c:\users\tech\desktop\powerlinetransceiver\PLT\PLT.c"
 162  000A  32BA        	set [58].5
 163  000B              #line 163 "c:\users\tech\desktop\powerlinetransceiver\PLT\PLT.c"
 163  000B  3338        	set [56].6
 163  000C  0003        	ret
 163  000D              _PLT1Init endp
 163  000D              #line 163 "c:\users\tech\desktop\powerlinetransceiver\PLT\PLT.c"
 163  000D              #pragma debug scope 1 1
 163  000D              ___pltda2l equ [53]
 163  000D              ___pltsw equ [49]
 163  000D              public _PLTAInit
 163  000D              #pragma debug scope 6 1
 166  000D              #line 166 "c:\users\tech\desktop\powerlinetransceiver\PLT\PLT.c"
 166  0000              _PLTAInit .section 'code'
 166  0000              _PLTAInit proc
 168  0000              #line 168 "c:\users\tech\desktop\powerlinetransceiver\PLT\PLT.c"
 168  0000  2000     R  	call _PLTAInputOffsetCalibration
 169  0001              #line 169 "c:\users\tech\desktop\powerlinetransceiver\PLT\PLT.c"
 169  0001  37BC        	clr [60].7
 170  0002              #line 170 "c:\users\tech\desktop\powerlinetransceiver\PLT\PLT.c"
 170  0002  3132        	set [50].2
 171  0003              #line 171 "c:\users\tech\desktop\powerlinetransceiver\PLT\PLT.c"
 171  0003  0F12        	mov a,18
 171  0004  00B5        	mov [53],a
 172  0005              #line 172 "c:\users\tech\desktop\powerlinetransceiver\PLT\PLT.c"
 172  0005  3531        	clr [49].2
 173  0006              #line 173 "c:\users\tech\desktop\powerlinetransceiver\PLT\PLT.c"
 173  0006  34B1        	clr [49].1
 174  0007              #line 174 "c:\users\tech\desktop\powerlinetransceiver\PLT\PLT.c"
 174  0007  3031        	set [49].0
 175  0008              #line 175 "c:\users\tech\desktop\powerlinetransceiver\PLT\PLT.c"
 175  0008  37BC        	clr [60].7
 175  0009  373C        	clr [60].6
 176  000A              #line 176 "c:\users\tech\desktop\powerlinetransceiver\PLT\PLT.c"
 176  000A  333B        	set [59].6
 177  000B              #line 177 "c:\users\tech\desktop\powerlinetransceiver\PLT\PLT.c"
 177  000B  303B        	set [59].0
 177  000C  0003        	ret
 177  000D              _PLTAInit endp
 177  000D              #line 177 "c:\users\tech\desktop\powerlinetransceiver\PLT\PLT.c"
 177  000D              #pragma debug scope 1 1
 177  000D              public _PLT0Recive
 177  000D              #pragma debug scope 7 1
 181  000D              #line 181 "c:\users\tech\desktop\powerlinetransceiver\PLT\PLT.c"
 181  0000              _PLT0Recive .section 'code'
 181  0000              _PLT0Recive proc
 183  0000              #line 183 "c:\users\tech\desktop\powerlinetransceiver\PLT\PLT.c"
 183  0000  1836        	rla [54]
 183  0001  0E01        	and a,1
 183  0002  0080     E  	mov ra,a
 185  0003              #line 185 "c:\users\tech\desktop\powerlinetransceiver\PLT\PLT.c"
 185  0003  0700     E  	mov a,ra
"File: PLT.c         Assembler  Version HGASM0202      Page 10

 185  0004  0003        	ret
 185  0005              _PLT0Recive endp
 185  0005              #line 185 "c:\users\tech\desktop\powerlinetransceiver\PLT\PLT.c"
 185  0005              #pragma debug scope 1 1
 185  0005              public _PLT1Recive
 185  0005              #pragma debug scope 8 1
 186  0005              #line 186 "c:\users\tech\desktop\powerlinetransceiver\PLT\PLT.c"
 186  0000              _PLT1Recive .section 'code'
 186  0000              _PLT1Recive proc
 188  0000              #line 188 "c:\users\tech\desktop\powerlinetransceiver\PLT\PLT.c"
 188  0000  1838        	rla [56]
 188  0001  0E01        	and a,1
 188  0002  0080     E  	mov ra,a
 190  0003              #line 190 "c:\users\tech\desktop\powerlinetransceiver\PLT\PLT.c"
 190  0003  0700     E  	mov a,ra
 190  0004  0003        	ret
 190  0005              _PLT1Recive endp
 190  0005              #line 190 "c:\users\tech\desktop\powerlinetransceiver\PLT\PLT.c"
 190  0005              #pragma debug scope 1 1
 190  0005              public _PLT0AmplifierInputOffsetCalibration
 190  0005              #pragma debug scope 9 1
 191  0005              #line 191 "c:\users\tech\desktop\powerlinetransceiver\PLT\PLT.c"
 191  0000              _PLT0AmplifierInputOffsetCalibration .section 'code'
 191  0000              _PLT0AmplifierInputOffsetCalibration proc
 194  0000              #line 194 "c:\users\tech\desktop\powerlinetransceiver\PLT\PLT.c"
 194  0000  3337        	set [55].6
 195  0001              #line 195 "c:\users\tech\desktop\powerlinetransceiver\PLT\PLT.c"
 195  0001  3337        	set [55].6
 195  0002  32B7        	set [55].5
 196  0003              #line 196 "c:\users\tech\desktop\powerlinetransceiver\PLT\PLT.c"
 196  0003  1F37        	clr [55]
 197  0004              #line 197 "c:\users\tech\desktop\powerlinetransceiver\PLT\PLT.c"
 197  0004  0F01        	mov a,1
 197  0005  0080     R  	mov ___value_1962[0],a
 197  0006  1F00     R  	clr ___value_1962[1]
 202  0007              #line 202 "c:\users\tech\desktop\powerlinetransceiver\PLT\PLT.c"
 202  0007  0F01        	mov a,1
 202  0008  00B7        	mov [55],a
 204  0009              #line 204 "c:\users\tech\desktop\powerlinetransceiver\PLT\PLT.c"
 204  0009  3FB6        	sz [54].7
 204  000A  2800     R  	jmp _L50
 202  000B              #line 202 "c:\users\tech\desktop\powerlinetransceiver\PLT\PLT.c"
 202  000B  0F02        	mov a,2
 202  000C  00B7        	mov [55],a
 204  000D              #line 204 "c:\users\tech\desktop\powerlinetransceiver\PLT\PLT.c"
 204  000D  3BB6        	snz [54].7
 204  000E  2800     R  	jmp _L44
 201  000F              #line 201 "c:\users\tech\desktop\powerlinetransceiver\PLT\PLT.c"
 201  000F  0F02        	mov a,2
 201  0010  0080     E  	mov rf,a
 201  0011  1F00     E  	clr rg
 201  0012  2800     R  	jmp _L43
 201  0013              _L50:
 201  0013  0F01        	mov a,1
 201  0014  0080     E  	mov rf,a
 201  0015  1F00     E  	clr rg
 201  0016              _L43:
 201  0016  0700     E  	mov a,rf
 201  0017  0080     R  	mov _VC0OS1[0],a
 201  0018  0700     E  	mov a,rg
"File: PLT.c         Assembler  Version HGASM0202      Page 11

 201  0019  0080     R  	mov _VC0OS1[1],a
 201  001A              _L46:
 211  001A              #line 211 "c:\users\tech\desktop\powerlinetransceiver\PLT\PLT.c"
 211  001A  0F1F        	mov a,31
 211  001B  0080     R  	mov ___value_1962[0],a
 211  001C  1F00     R  	clr ___value_1962[1]
 211  001D  0F1F        	mov a,31
 211  001E  0080     E  	mov rb,a
 211  001F  1F00     E  	clr rc
 212  0020              #line 212 "c:\users\tech\desktop\powerlinetransceiver\PLT\PLT.c"
 212  0020  1F00     E  	clr rd
 212  0021  1F00     E  	clr re
 212  0022  2800     R  	jmp _L45
 212  0023              _L44:
 212  0023  0F02        	mov a,2
 212  0024  0080     R  	mov _VC0OS1[0],a
 212  0025  1F00     R  	clr _VC0OS1[1]
 201  0026              #line 201 "c:\users\tech\desktop\powerlinetransceiver\PLT\PLT.c"
 201  0026  0F02        	mov a,2
 201  0027  0080     E  	mov rf,a
 201  0028  1F00     E  	clr rg
 201  0029  2800     R  	jmp _L46
 201  002A              _L47:
 212  002A              #line 212 "c:\users\tech\desktop\powerlinetransceiver\PLT\PLT.c"
 212  002A  1480     E  	inc rd
 212  002B  3D0A        	sz z
 212  002C  1480     E  	inc re
 212  002D  0700     E  	mov a,rd
 212  002E  0C04        	xor a,4
 212  002F  0500     E  	or a,re
 212  0030  3D0A        	sz z
 212  0031  2800     R  	jmp _L52
 212  0032              _L45:
 214  0032              #line 214 "c:\users\tech\desktop\powerlinetransceiver\PLT\PLT.c"
 214  0032  0700     E  	mov a,rb
 214  0033  0200     E  	sub a,rd
 214  0034  0080     E  	mov rb,a
 214  0035  0700     E  	mov a,rc
 214  0036  1200     E  	sbc a,re
 214  0037  0080     E  	mov rc,a
 215  0038              #line 215 "c:\users\tech\desktop\powerlinetransceiver\PLT\PLT.c"
 215  0038  0700     E  	mov a,rb
 215  0039  0E1F        	and a,31
 215  003A  00B7        	mov [55],a
 217  003B              #line 217 "c:\users\tech\desktop\powerlinetransceiver\PLT\PLT.c"
 217  003B  3BB6        	snz [54].7
 217  003C  2800     R  	jmp _L47
 217  003D              _L52:
 217  003D  0700     E  	mov a,rb
 217  003E  0080     R  	mov _VC0OS2[0],a
 217  003F  0700     E  	mov a,rc
 217  0040  0080     R  	mov _VC0OS2[1],a
 224  0041              #line 224 "c:\users\tech\desktop\powerlinetransceiver\PLT\PLT.c"
 224  0041  0700     E  	mov a,rf
 224  0042  0380     E  	addm a,rb
 224  0043  0700     E  	mov a,rg
 224  0044  1380     E  	adcm a,rc
 224  0045  0700     E  	mov a,rb
 224  0046  0080     E  	mov rd,a
 224  0047  0700     E  	mov a,rc
"File: PLT.c         Assembler  Version HGASM0202      Page 12

 224  0048  0080     E  	mov re,a
 224  0049  1A80     E  	rlc re
 224  004A  1F00     E  	clr rd
 224  004B  1A80     E  	rlc rd
 224  004C  1F00     E  	clr re
 224  004D  0700     E  	mov a,rd
 224  004E  0380     E  	addm a,rb
 224  004F  0700     E  	mov a,re
 224  0050  1380     E  	adcm a,rc
 224  0051  1A00     E  	rlca rc
 224  0052  1B80     E  	rrc rc
 224  0053  1B80     E  	rrc rb
 224  0054  0700     E  	mov a,rb
 224  0055  0080     R  	mov ___value_1962[0],a
 224  0056  0700     E  	mov a,rc
 224  0057  0080     R  	mov ___value_1962[1],a
 225  0058              #line 225 "c:\users\tech\desktop\powerlinetransceiver\PLT\PLT.c"
 225  0058  0700     E  	mov a,rb
 225  0059  0E1F        	and a,31
 225  005A  00B7        	mov [55],a
 230  005B              #line 230 "c:\users\tech\desktop\powerlinetransceiver\PLT\PLT.c"
 230  005B  0700     E  	mov a,rb
 230  005C  0080     E  	mov ra,a
 230  005D  0700     E  	mov a,rc
 230  005E  0080     E  	mov rb,a
 230  005F  0003        	ret
 230  0060              _PLT0AmplifierInputOffsetCalibration endp
 230  0060              #line 230 "c:\users\tech\desktop\powerlinetransceiver\PLT\PLT.c"
 230  0060              #pragma debug scope 1 1
 230  0060              ___pltda0l equ [51]
 230  0060              public _PLT0Init
 230  0060              #pragma debug scope 10 1
 140  0060              #line 140 "c:\users\tech\desktop\powerlinetransceiver\PLT\PLT.c"
 140  0000              _PLT0Init .section 'code'
 140  0000              _PLT0Init proc
 142  0000              #line 142 "c:\users\tech\desktop\powerlinetransceiver\PLT\PLT.c"
 142  0000  2000     R  	call _PLT0InputOffsetCalibration
 143  0001              #line 143 "c:\users\tech\desktop\powerlinetransceiver\PLT\PLT.c"
 143  0001  2000     R  	call _PLT0AmplifierInputOffsetCalibration
 144  0002              #line 144 "c:\users\tech\desktop\powerlinetransceiver\PLT\PLT.c"
 144  0002  3737        	clr [55].6
 145  0003              #line 145 "c:\users\tech\desktop\powerlinetransceiver\PLT\PLT.c"
 145  0003  3032        	set [50].0
 146  0004              #line 146 "c:\users\tech\desktop\powerlinetransceiver\PLT\PLT.c"
 146  0004  0F13        	mov a,19
 146  0005  00B3        	mov [51],a
 147  0006              #line 147 "c:\users\tech\desktop\powerlinetransceiver\PLT\PLT.c"
 147  0006  3737        	clr [55].6
 147  0007  36B7        	clr [55].5
 148  0008              #line 148 "c:\users\tech\desktop\powerlinetransceiver\PLT\PLT.c"
 148  0008  1F3A        	clr [58]
 149  0009              #line 149 "c:\users\tech\desktop\powerlinetransceiver\PLT\PLT.c"
 149  0009  3436        	clr [54].0
 149  000A  34B6        	clr [54].1
 150  000B              #line 150 "c:\users\tech\desktop\powerlinetransceiver\PLT\PLT.c"
 150  000B  3336        	set [54].6
 150  000C  0003        	ret
 150  000D              _PLT0Init endp
 150  000D              #line 150 "c:\users\tech\desktop\powerlinetransceiver\PLT\PLT.c"
 150  000D              #pragma debug scope 1 1
"File: PLT.c         Assembler  Version HGASM0202      Page 13

 150  0000              @HCCINIT	.section 'data'
 193  0000              #line 193 "c:\users\tech\desktop\powerlinetransceiver\PLT\PLT.c"
 193  0000              @HCCINIT___value_1962 .section 'data'
 193  0000              ___value_1962 label byte
 193  0000              #pragma debug variable 12 9 ___value_1962 "value"
 193  0000              	db 0
 193  0000              @ROMDATA_BASE .section inpage 'code'
 193  0000              	db 0
 193  0001              @HCCINIT___value_1962 .section 'data'
 193  0001              	db 0
 193  0001              @ROMDATA_BASE .section inpage 'code'
 193  0001              	db 0
 193  0002              @HCCINIT___value_1962 .section 'data'
 104  0002              #line 104 "c:\users\tech\desktop\powerlinetransceiver\PLT\PLT.c"
 104  0000              @HCCINIT___value_1933 .section 'data'
 104  0000              ___value_1933 label byte
 104  0000              #pragma debug variable 12 4 ___value_1933 "value"
 104  0000              	db 0
 104  0001              @ROMDATA_BASE .section inpage 'code'
 104  0001              	db 0
 104  0001              @HCCINIT___value_1933 .section 'data'
 104  0001              	db 0
 104  0002              @ROMDATA_BASE .section inpage 'code'
 104  0002              	db 0
 104  0002              @HCCINIT___value_1933 .section 'data'
  60  0002              #line 60 "c:\users\tech\desktop\powerlinetransceiver\PLT\PLT.c"
  60  0000              @HCCINIT___value_1922 .section 'data'
  60  0000              ___value_1922 label byte
  60  0000              #pragma debug variable 12 3 ___value_1922 "value"
  60  0000              	db 0
  60  0002              @ROMDATA_BASE .section inpage 'code'
  60  0002              	db 0
  60  0001              @HCCINIT___value_1922 .section 'data'
  60  0001              	db 0
  60  0003              @ROMDATA_BASE .section inpage 'code'
  60  0003              	db 0
  60  0002              @HCCINIT___value_1922 .section 'data'
  15  0002              #line 15 "c:\users\tech\desktop\powerlinetransceiver\PLT\PLT.c"
  15  0000              @HCCINIT___value_1911 .section 'data'
  15  0000              ___value_1911 label byte
  15  0000              #pragma debug variable 12 2 ___value_1911 "value"
  15  0000              	db 0
  15  0003              @ROMDATA_BASE .section inpage 'code'
  15  0003              	db 0
  15  0001              @HCCINIT___value_1911 .section 'data'
  15  0001              	db 0
  15  0004              @ROMDATA_BASE .section inpage 'code'
  15  0004              	db 0
  15  0002              @HCCINIT___value_1911 .section 'data'
  15  0002              public _VC2OS2
  11  0002              #line 11 "c:\users\tech\desktop\powerlinetransceiver\PLT\PLT.c"
  11  0000              @HCCINIT_VC2OS2 .section 'data'
  11  0000              _VC2OS2 label byte
  11  0000              #pragma debug variable 12 1 _VC2OS2 "VC2OS2"
  11  0000              	db 0
  11  0004              @ROMDATA_BASE .section inpage 'code'
  11  0004              	db 0
  11  0001              @HCCINIT_VC2OS2 .section 'data'
  11  0001              	db 0
  11  0005              @ROMDATA_BASE .section inpage 'code'
"File: PLT.c         Assembler  Version HGASM0202      Page 14

  11  0005              	db 0
  11  0002              @HCCINIT_VC2OS2 .section 'data'
  11  0002              public _VC2OS1
  10  0002              #line 10 "c:\users\tech\desktop\powerlinetransceiver\PLT\PLT.c"
  10  0000              @HCCINIT_VC2OS1 .section 'data'
  10  0000              _VC2OS1 label byte
  10  0000              #pragma debug variable 12 1 _VC2OS1 "VC2OS1"
  10  0000              	db 0
  10  0005              @ROMDATA_BASE .section inpage 'code'
  10  0005              	db 0
  10  0001              @HCCINIT_VC2OS1 .section 'data'
  10  0001              	db 0
  10  0006              @ROMDATA_BASE .section inpage 'code'
  10  0006              	db 0
  10  0002              @HCCINIT_VC2OS1 .section 'data'
  10  0002              public _VC1OS2
   9  0002              #line 9 "c:\users\tech\desktop\powerlinetransceiver\PLT\PLT.c"
   9  0000              @HCCINIT_VC1OS2 .section 'data'
   9  0000              _VC1OS2 label byte
   9  0000              #pragma debug variable 12 1 _VC1OS2 "VC1OS2"
   9  0000              	db 0
   9  0006              @ROMDATA_BASE .section inpage 'code'
   9  0006              	db 0
   9  0001              @HCCINIT_VC1OS2 .section 'data'
   9  0001              	db 0
   9  0007              @ROMDATA_BASE .section inpage 'code'
   9  0007              	db 0
   9  0002              @HCCINIT_VC1OS2 .section 'data'
   9  0002              public _VC1OS1
   8  0002              #line 8 "c:\users\tech\desktop\powerlinetransceiver\PLT\PLT.c"
   8  0000              @HCCINIT_VC1OS1 .section 'data'
   8  0000              _VC1OS1 label byte
   8  0000              #pragma debug variable 12 1 _VC1OS1 "VC1OS1"
   8  0000              	db 0
   8  0007              @ROMDATA_BASE .section inpage 'code'
   8  0007              	db 0
   8  0001              @HCCINIT_VC1OS1 .section 'data'
   8  0001              	db 0
   8  0008              @ROMDATA_BASE .section inpage 'code'
   8  0008              	db 0
   8  0002              @HCCINIT_VC1OS1 .section 'data'
   8  0002              public _VC0OS2
   7  0002              #line 7 "c:\users\tech\desktop\powerlinetransceiver\PLT\PLT.c"
   7  0000              @HCCINIT_VC0OS2 .section 'data'
   7  0000              _VC0OS2 label byte
   7  0000              #pragma debug variable 12 1 _VC0OS2 "VC0OS2"
   7  0000              	db 0
   7  0008              @ROMDATA_BASE .section inpage 'code'
   7  0008              	db 0
   7  0001              @HCCINIT_VC0OS2 .section 'data'
   7  0001              	db 0
   7  0009              @ROMDATA_BASE .section inpage 'code'
   7  0009              	db 0
   7  0002              @HCCINIT_VC0OS2 .section 'data'
   7  0002              public _VC0OS1
   6  0002              #line 6 "c:\users\tech\desktop\powerlinetransceiver\PLT\PLT.c"
   6  0000              @HCCINIT_VC0OS1 .section 'data'
   6  0000              _VC0OS1 label byte
   6  0000              #pragma debug variable 12 1 _VC0OS1 "VC0OS1"
   6  0000              	db 0
"File: PLT.c         Assembler  Version HGASM0202      Page 15

   6  0009              @ROMDATA_BASE .section inpage 'code'
   6  0009              	db 0
   6  0001              @HCCINIT_VC0OS1 .section 'data'
   6  0001              	db 0
   6  000A              @ROMDATA_BASE .section inpage 'code'
   6  000A              	db 0
   6  0002              @HCCINIT_VC0OS1 .section 'data'
   6  0002              #pragma debug struct_end
   6  0002              #pragma debug struct_end
   6  0002              #pragma debug union_end
   6  0002              #pragma debug union_end
   6  0002              #pragma debug variable 43 1 ___pltsw "__pltsw" 1
   6  0002              #pragma debug struct_end
   6  0002              #pragma debug struct_end
   6  0002              #pragma debug union_end
   6  0002              #pragma debug union_end
   6  0002              #pragma debug variable 45 1 ___pltdacc "__pltdacc" 1
   6  0002              #pragma debug variable 8 1 ___pltda0l "__pltda0l" 1
   6  0002              #pragma debug variable 8 1 ___pltda1l "__pltda1l" 1
   6  0002              #pragma debug variable 8 1 ___pltda2l "__pltda2l" 1
   6  0002              #pragma debug struct_end
   6  0002              #pragma debug struct_end
   6  0002              #pragma debug union_end
   6  0002              #pragma debug union_end
   6  0002              #pragma debug variable 47 1 ___pltc0c "__pltc0c" 1
   6  0002              #pragma debug struct_end
   6  0002              #pragma debug struct_end
   6  0002              #pragma debug union_end
   6  0002              #pragma debug union_end
   6  0002              #pragma debug variable 49 1 ___pltc0vos "__pltc0vos" 1
   6  0002              #pragma debug struct_end
   6  0002              #pragma debug struct_end
   6  0002              #pragma debug union_end
   6  0002              #pragma debug union_end
   6  0002              #pragma debug variable 51 1 ___pltc1c "__pltc1c" 1
   6  0002              #pragma debug struct_end
   6  0002              #pragma debug struct_end
   6  0002              #pragma debug union_end
   6  0002              #pragma debug union_end
   6  0002              #pragma debug variable 53 1 ___pltc1vos "__pltc1vos" 1
   6  0002              #pragma debug struct_end
   6  0002              #pragma debug struct_end
   6  0002              #pragma debug union_end
   6  0002              #pragma debug union_end
   6  0002              #pragma debug variable 55 1 ___pltchyc "__pltchyc" 1
   6  0002              #pragma debug struct_end
   6  0002              #pragma debug struct_end
   6  0002              #pragma debug union_end
   6  0002              #pragma debug union_end
   6  0002              #pragma debug variable 57 1 ___pltac "__pltac" 1
   6  0002              #pragma debug struct_end
   6  0002              #pragma debug struct_end
   6  0002              #pragma debug union_end
   6  0002              #pragma debug union_end
   6  0002              #pragma debug variable 59 1 ___pltavos "__pltavos" 1
   6  0002              
   6  0002              ; 
   6  0002              ; Generated by holtek-gcc v3.19, Sat Oct 26 14:55:24 2024
   6  0002              ; Rebuild 718
   6  0002              ; end of file
"File: PLT.c         Assembler  Version HGASM0202      Page 16



        0 Errors, 0