"File: PLT.c         Assembler  Version HGASM0202      Page 1


   1  0000              ; Generated by holtek-gcc v3.19, Sat Aug 03 18:07:42 2024
   2  0000              ; 
   3  0000              ; Configuration:
   4  0000              ;       with long instruction
   5  0000              ;       Single ROM, Multi-RAM
   6  0000              ;       bits_per_rom_unit:16
   7  0000              ;       with mp1
   8  0000              ;       with tbhp, address(0x9)
   9  0000              ;          Use tabrd-const
  10  0000              ;       
  11  0000              ; SFR address of long-instruction arch:
  12  0000              ;    mp0 = -1,1,0
  13  0000              ;    mp1 = 4,3,2
  14  0000              ;    mp2 = 14,13,12
  15  0000              ;    tbp = 9,7,8
  16  0000              ;    acc = 5
  17  0000              ;    pcl = 6
  18  0000              ;    status = 10
  19  0000              ;    bp = 11
  20  0000              ;    intc = 72
  21  0000              ;       
  22  0000              ;       
  23  0000              ; use 'tabrdc' instead of 'tabrd'
  24  0000              ;       
  25  0000              
  26  0000              #pragma translator "holtek-gcc 4.6.4" "3.19" "build 20130711"
  27  0000              ; Rebuild 718
  28  0000              
  29  0000              ir equ [2]
  30  0000              mp equ [3]
  31  0000              sbp equ [4]
  32  0000              acc equ [5]
  33  0000              bp equ [11]
  34  0000              tblp equ [7]
  35  0000              tbhp equ [9]
  36  0000              status equ [10]
  37  0000              c equ [10].0
  38  0000              ac equ [10].1
  39  0000              z equ [10].2
  40  0000              ov equ [10].3
  41  0000              cz equ [10].6
  42  0000              sc equ [10].7
  43  0000              intc equ [72]
  44  0000              
  45  0000              extern ra:byte
  46  0000              extern rb:byte
  47  0000              extern rc:byte
  48  0000              extern rd:byte
  49  0000              extern re:byte
  50  0000              extern rf:byte
  51  0000              extern rg:byte
  52  0000              extern rh:byte
  53  0000              extern _Crom2Prom:near
  54  0000              extern _Crom2PromNext:near
  55  0000              
  56  0000              RAMBANK 0 @BITDATASEC, @BITDATASEC1
  57  0000              @HCCINIT	.section 'data'
  58  0000              @HCCINIT0	.section 'data'
  59  0000              @BITDATASEC	 .section 'data'
"File: PLT.ASM       Assembler  Version HGASM0202      Page 2

  60  0000              @BITDATASEC1	 .section 'data'
  61  0000              
  62  0000              #pragma debug scope 1 1
  63  0000              	extern __DELAY3:near
  64  0000              	extern __DELAYX3:near
  65  0000              	extern __DELAYX6:near
  66  0000              	extern __DELAYY5:near
  67  0000              	extern __DELAYY3:near
  68  0000              	extern _builtin_holtek_delay_2:byte
  69  0000              ___pltc0vos equ [55]
  70  0000              ___pltc0c equ [54]
  71  0000              public _PLT0InputOffsetCalibration
  72  0000              #pragma debug scope 2 1

  11  0000              #line 11 "c:\users\tech\desktop\powerlinetransceiver\PLT\PLT.c"
  11  0000              _PLT0InputOffsetCalibration .section 'code'
  11  0000              _PLT0InputOffsetCalibration proc
  16  0000              #line 16 "c:\users\tech\desktop\powerlinetransceiver\PLT\PLT.c"
  16  0000  3337        	set [55].6
  17  0001              #line 17 "c:\users\tech\desktop\powerlinetransceiver\PLT\PLT.c"
  17  0001  3337        	set [55].6
  17  0002  32B7        	set [55].5
  18  0003              #line 18 "c:\users\tech\desktop\powerlinetransceiver\PLT\PLT.c"
  18  0003  1F37        	clr [55]
  19  0004              #line 19 "c:\users\tech\desktop\powerlinetransceiver\PLT\PLT.c"
  19  0004  0F01        	mov a,1
  19  0005  0080     R  	mov ___value_1907[0],a
  19  0006  1F00     R  	clr ___value_1907[1]
  19  0007  0F01        	mov a,1
  19  0008  0080     E  	mov rd,a
  19  0009  1F00     E  	clr re
  21  000A              #line 21 "c:\users\tech\desktop\powerlinetransceiver\PLT\PLT.c"
  21  000A  1F00     E  	clr rf
  21  000B  1F00     E  	clr rg
  21  000C              _L6:
  23  000C              #line 23 "c:\users\tech\desktop\powerlinetransceiver\PLT\PLT.c"
  23  000C  0700     E  	mov a,rf
  23  000D  0380     E  	addm a,rd
  23  000E  0700     E  	mov a,rg
  23  000F  1380     E  	adcm a,re
  24  0010              #line 24 "c:\users\tech\desktop\powerlinetransceiver\PLT\PLT.c"
  24  0010  0700     E  	mov a,rd
  24  0011  0E1F        	and a,31
  24  0012  00B7        	mov [55],a
  26  0013              #line 26 "c:\users\tech\desktop\powerlinetransceiver\PLT\PLT.c"
  26  0013  3BB6        	snz [54].7
  26  0014  2800     R  	jmp _L2
  26  0015              _L11:
  26  0015  0700     E  	mov a,rd
  26  0016  0080     R  	mov _VC0OS1[0],a
  26  0017  0700     E  	mov a,re
  26  0018  0080     R  	mov _VC0OS1[1],a
  33  0019              #line 33 "c:\users\tech\desktop\powerlinetransceiver\PLT\PLT.c"
  33  0019  0F1F        	mov a,31
  33  001A  0080     R  	mov ___value_1907[0],a
  33  001B  1F00     R  	clr ___value_1907[1]
  33  001C  0F1F        	mov a,31
  33  001D  0080     E  	mov rb,a
  33  001E  1F00     E  	clr rc
  34  001F              #line 34 "c:\users\tech\desktop\powerlinetransceiver\PLT\PLT.c"
"File: PLT.c         Assembler  Version HGASM0202      Page 3

  34  001F  1F00     E  	clr rf
  34  0020  1F00     E  	clr rg
  34  0021  2800     R  	jmp _L3
  34  0022              _L2:
  21  0022              #line 21 "c:\users\tech\desktop\powerlinetransceiver\PLT\PLT.c"
  21  0022  1480     E  	inc rf
  21  0023  3D0A        	sz z
  21  0024  1480     E  	inc rg
  21  0025  0700     E  	mov a,rf
  21  0026  0C03        	xor a,3
  21  0027  0500     E  	or a,rg
  21  0028  390A        	snz z
  21  0029  2800     R  	jmp _L6
  21  002A  2800     R  	jmp _L11
  21  002B              _L7:
  34  002B              #line 34 "c:\users\tech\desktop\powerlinetransceiver\PLT\PLT.c"
  34  002B  1480     E  	inc rf
  34  002C  3D0A        	sz z
  34  002D  1480     E  	inc rg
  34  002E  0700     E  	mov a,rf
  34  002F  0C05        	xor a,5
  34  0030  0500     E  	or a,rg
  34  0031  3D0A        	sz z
  34  0032  2800     R  	jmp _L12
  34  0033              _L3:
  36  0033              #line 36 "c:\users\tech\desktop\powerlinetransceiver\PLT\PLT.c"
  36  0033  0700     E  	mov a,rb
  36  0034  0200     E  	sub a,rf
  36  0035  0080     E  	mov rb,a
  36  0036  0700     E  	mov a,rc
  36  0037  1200     E  	sbc a,rg
  36  0038  0080     E  	mov rc,a
  37  0039              #line 37 "c:\users\tech\desktop\powerlinetransceiver\PLT\PLT.c"
  37  0039  0700     E  	mov a,rb
  37  003A  0E1F        	and a,31
  37  003B  00B7        	mov [55],a
  39  003C              #line 39 "c:\users\tech\desktop\powerlinetransceiver\PLT\PLT.c"
  39  003C  3BB6        	snz [54].7
  39  003D  2800     R  	jmp _L7
  39  003E              _L12:
  39  003E  0700     E  	mov a,rb
  39  003F  0080     R  	mov _VC0OS2[0],a
  39  0040  0700     E  	mov a,rc
  39  0041  0080     R  	mov _VC0OS2[1],a
  46  0042              #line 46 "c:\users\tech\desktop\powerlinetransceiver\PLT\PLT.c"
  46  0042  0700     E  	mov a,rd
  46  0043  0380     E  	addm a,rb
  46  0044  0700     E  	mov a,re
  46  0045  1380     E  	adcm a,rc
  46  0046  0700     E  	mov a,rb
  46  0047  0080     E  	mov rd,a
  46  0048  0700     E  	mov a,rc
  46  0049  0080     E  	mov re,a
  46  004A  1A80     E  	rlc re
  46  004B  1F00     E  	clr rd
  46  004C  1A80     E  	rlc rd
  46  004D  1F00     E  	clr re
  46  004E  0700     E  	mov a,rd
  46  004F  0380     E  	addm a,rb
  46  0050  0700     E  	mov a,re
"File: PLT.c         Assembler  Version HGASM0202      Page 4

  46  0051  1380     E  	adcm a,rc
  46  0052  1A00     E  	rlca rc
  46  0053  1B80     E  	rrc rc
  46  0054  1B80     E  	rrc rb
  46  0055  0700     E  	mov a,rb
  46  0056  0080     R  	mov ___value_1907[0],a
  46  0057  0700     E  	mov a,rc
  46  0058  0080     R  	mov ___value_1907[1],a
  47  0059              #line 47 "c:\users\tech\desktop\powerlinetransceiver\PLT\PLT.c"
  47  0059  0700     E  	mov a,rb
  47  005A  0E1F        	and a,31
  47  005B  00B7        	mov [55],a
  55  005C              #line 55 "c:\users\tech\desktop\powerlinetransceiver\PLT\PLT.c"
  55  005C  0700     E  	mov a,rb
  55  005D  0080     E  	mov ra,a
  55  005E  0700     E  	mov a,rc
  55  005F  0080     E  	mov rb,a
  55  0060  0003        	ret
  55  0061              _PLT0InputOffsetCalibration endp
  55  0061              #line 55 "c:\users\tech\desktop\powerlinetransceiver\PLT\PLT.c"
  55  0061              #pragma debug scope 1 1
  55  0061              ___pltc1vos equ [57]
  55  0061              ___pltc1c equ [56]
  55  0061              public _PLT1InputOffsetCalibration
  55  0061              #pragma debug scope 3 1
  57  0061              #line 57 "c:\users\tech\desktop\powerlinetransceiver\PLT\PLT.c"
  57  0000              _PLT1InputOffsetCalibration .section 'code'
  57  0000              _PLT1InputOffsetCalibration proc
  62  0000              #line 62 "c:\users\tech\desktop\powerlinetransceiver\PLT\PLT.c"
  62  0000  3339        	set [57].6
  63  0001              #line 63 "c:\users\tech\desktop\powerlinetransceiver\PLT\PLT.c"
  63  0001  3339        	set [57].6
  63  0002  32B9        	set [57].5
  64  0003              #line 64 "c:\users\tech\desktop\powerlinetransceiver\PLT\PLT.c"
  64  0003  1F39        	clr [57]
  65  0004              #line 65 "c:\users\tech\desktop\powerlinetransceiver\PLT\PLT.c"
  65  0004  0F01        	mov a,1
  65  0005  0080     R  	mov ___value_1918[0],a
  65  0006  1F00     R  	clr ___value_1918[1]
  65  0007  0F01        	mov a,1
  65  0008  0080     E  	mov rd,a
  65  0009  1F00     E  	clr re
  67  000A              #line 67 "c:\users\tech\desktop\powerlinetransceiver\PLT\PLT.c"
  67  000A  1F00     E  	clr rf
  67  000B  1F00     E  	clr rg
  67  000C              _L19:
  69  000C              #line 69 "c:\users\tech\desktop\powerlinetransceiver\PLT\PLT.c"
  69  000C  0700     E  	mov a,rf
  69  000D  0380     E  	addm a,rd
  69  000E  0700     E  	mov a,rg
  69  000F  1380     E  	adcm a,re
  70  0010              #line 70 "c:\users\tech\desktop\powerlinetransceiver\PLT\PLT.c"
  70  0010  0F05        	mov a,5
  70  0011  00B9        	mov [57],a
  72  0012              #line 72 "c:\users\tech\desktop\powerlinetransceiver\PLT\PLT.c"
  72  0012  3BB8        	snz [56].7
  72  0013  2800     R  	jmp _L15
  72  0014              _L24:
  72  0014  0700     E  	mov a,rd
  72  0015  0080     R  	mov _VC1OS1[0],a
"File: PLT.c         Assembler  Version HGASM0202      Page 5

  72  0016  0700     E  	mov a,re
  72  0017  0080     R  	mov _VC1OS1[1],a
  80  0018              #line 80 "c:\users\tech\desktop\powerlinetransceiver\PLT\PLT.c"
  80  0018  0F1F        	mov a,31
  80  0019  0080     R  	mov ___value_1918[0],a
  80  001A  1F00     R  	clr ___value_1918[1]
  80  001B  0F1F        	mov a,31
  80  001C  0080     E  	mov rb,a
  80  001D  1F00     E  	clr rc
  81  001E              #line 81 "c:\users\tech\desktop\powerlinetransceiver\PLT\PLT.c"
  81  001E  1F00     E  	clr rf
  81  001F  1F00     E  	clr rg
  81  0020  2800     R  	jmp _L16
  81  0021              _L15:
  67  0021              #line 67 "c:\users\tech\desktop\powerlinetransceiver\PLT\PLT.c"
  67  0021  1480     E  	inc rf
  67  0022  3D0A        	sz z
  67  0023  1480     E  	inc rg
  67  0024  0700     E  	mov a,rf
  67  0025  0C03        	xor a,3
  67  0026  0500     E  	or a,rg
  67  0027  390A        	snz z
  67  0028  2800     R  	jmp _L19
  67  0029  2800     R  	jmp _L24
  67  002A              _L20:
  81  002A              #line 81 "c:\users\tech\desktop\powerlinetransceiver\PLT\PLT.c"
  81  002A  1480     E  	inc rf
  81  002B  3D0A        	sz z
  81  002C  1480     E  	inc rg
  81  002D  0700     E  	mov a,rf
  81  002E  0C05        	xor a,5
  81  002F  0500     E  	or a,rg
  81  0030  3D0A        	sz z
  81  0031  2800     R  	jmp _L25
  81  0032              _L16:
  83  0032              #line 83 "c:\users\tech\desktop\powerlinetransceiver\PLT\PLT.c"
  83  0032  0700     E  	mov a,rb
  83  0033  0200     E  	sub a,rf
  83  0034  0080     E  	mov rb,a
  83  0035  0700     E  	mov a,rc
  83  0036  1200     E  	sbc a,rg
  83  0037  0080     E  	mov rc,a
  84  0038              #line 84 "c:\users\tech\desktop\powerlinetransceiver\PLT\PLT.c"
  84  0038  0700     E  	mov a,rb
  84  0039  0E1F        	and a,31
  84  003A  00B9        	mov [57],a
  86  003B              #line 86 "c:\users\tech\desktop\powerlinetransceiver\PLT\PLT.c"
  86  003B  3BB8        	snz [56].7
  86  003C  2800     R  	jmp _L20
  86  003D              _L25:
  86  003D  0700     E  	mov a,rb
  86  003E  0080     R  	mov _VC1OS2[0],a
  86  003F  0700     E  	mov a,rc
  86  0040  0080     R  	mov _VC1OS2[1],a
  94  0041              #line 94 "c:\users\tech\desktop\powerlinetransceiver\PLT\PLT.c"
  94  0041  0700     E  	mov a,rd
  94  0042  0380     E  	addm a,rb
  94  0043  0700     E  	mov a,re
  94  0044  1380     E  	adcm a,rc
  94  0045  0700     E  	mov a,rb
"File: PLT.c         Assembler  Version HGASM0202      Page 6

  94  0046  0080     E  	mov rd,a
  94  0047  0700     E  	mov a,rc
  94  0048  0080     E  	mov re,a
  94  0049  1A80     E  	rlc re
  94  004A  1F00     E  	clr rd
  94  004B  1A80     E  	rlc rd
  94  004C  1F00     E  	clr re
  94  004D  0700     E  	mov a,rd
  94  004E  0380     E  	addm a,rb
  94  004F  0700     E  	mov a,re
  94  0050  1380     E  	adcm a,rc
  94  0051  1A00     E  	rlca rc
  94  0052  1B80     E  	rrc rc
  94  0053  1B80     E  	rrc rb
  94  0054  0700     E  	mov a,rb
  94  0055  0080     R  	mov ___value_1918[0],a
  94  0056  0700     E  	mov a,rc
  94  0057  0080     R  	mov ___value_1918[1],a
  96  0058              #line 96 "c:\users\tech\desktop\powerlinetransceiver\PLT\PLT.c"
  96  0058  0700     E  	mov a,rb
  96  0059  0E1F        	and a,31
  96  005A  00B9        	mov [57],a
  99  005B              #line 99 "c:\users\tech\desktop\powerlinetransceiver\PLT\PLT.c"
  99  005B  0700     E  	mov a,rb
  99  005C  0080     E  	mov ra,a
  99  005D  0700     E  	mov a,rc
  99  005E  0080     E  	mov rb,a
  99  005F  0003        	ret
  99  0060              _PLT1InputOffsetCalibration endp
  99  0060              #line 99 "c:\users\tech\desktop\powerlinetransceiver\PLT\PLT.c"
  99  0060              #pragma debug scope 1 1
  99  0060              ___pltdacc equ [50]
  99  0060              ___pltda1l equ [52]
  99  0060              ___pltchyc equ [58]
  99  0060              public _PLT1Init
  99  0060              #pragma debug scope 4 1
 116  0060              #line 116 "c:\users\tech\desktop\powerlinetransceiver\PLT\PLT.c"
 116  0000              _PLT1Init .section 'code'
 116  0000              _PLT1Init proc
 118  0000              #line 118 "c:\users\tech\desktop\powerlinetransceiver\PLT\PLT.c"
 118  0000  2000     R  	call _PLT1InputOffsetCalibration
 119  0001              #line 119 "c:\users\tech\desktop\powerlinetransceiver\PLT\PLT.c"
 119  0001  3739        	clr [57].6
 120  0002              #line 120 "c:\users\tech\desktop\powerlinetransceiver\PLT\PLT.c"
 120  0002  30B2        	set [50].1
 121  0003              #line 121 "c:\users\tech\desktop\powerlinetransceiver\PLT\PLT.c"
 121  0003  0F12        	mov a,18
 121  0004  00B4        	mov [52],a
 122  0005              #line 122 "c:\users\tech\desktop\powerlinetransceiver\PLT\PLT.c"
 122  0005  3739        	clr [57].6
 122  0006  36B9        	clr [57].5
 123  0007              #line 123 "c:\users\tech\desktop\powerlinetransceiver\PLT\PLT.c"
 123  0007  1F3A        	clr [58]
 124  0008              #line 124 "c:\users\tech\desktop\powerlinetransceiver\PLT\PLT.c"
 124  0008  3438        	clr [56].0
 124  0009  34B8        	clr [56].1
 125  000A              #line 125 "c:\users\tech\desktop\powerlinetransceiver\PLT\PLT.c"
 125  000A  32BA        	set [58].5
 126  000B              #line 126 "c:\users\tech\desktop\powerlinetransceiver\PLT\PLT.c"
 126  000B  3338        	set [56].6
"File: PLT.c         Assembler  Version HGASM0202      Page 7

 126  000C  0003        	ret
 126  000D              _PLT1Init endp
 126  000D              #line 126 "c:\users\tech\desktop\powerlinetransceiver\PLT\PLT.c"
 126  000D              #pragma debug scope 1 1
 126  000D              public _PLT0Recive
 126  000D              #pragma debug scope 5 1
 130  000D              #line 130 "c:\users\tech\desktop\powerlinetransceiver\PLT\PLT.c"
 130  0000              _PLT0Recive .section 'code'
 130  0000              _PLT0Recive proc
 132  0000              #line 132 "c:\users\tech\desktop\powerlinetransceiver\PLT\PLT.c"
 132  0000  1836        	rla [54]
 132  0001  0E01        	and a,1
 132  0002  0080     E  	mov ra,a
 134  0003              #line 134 "c:\users\tech\desktop\powerlinetransceiver\PLT\PLT.c"
 134  0003  0700     E  	mov a,ra
 134  0004  0003        	ret
 134  0005              _PLT0Recive endp
 134  0005              #line 134 "c:\users\tech\desktop\powerlinetransceiver\PLT\PLT.c"
 134  0005              #pragma debug scope 1 1
 134  0005              public _PLT1Recive
 134  0005              #pragma debug scope 6 1
 135  0005              #line 135 "c:\users\tech\desktop\powerlinetransceiver\PLT\PLT.c"
 135  0000              _PLT1Recive .section 'code'
 135  0000              _PLT1Recive proc
 137  0000              #line 137 "c:\users\tech\desktop\powerlinetransceiver\PLT\PLT.c"
 137  0000  1838        	rla [56]
 137  0001  0E01        	and a,1
 137  0002  0080     E  	mov ra,a
 139  0003              #line 139 "c:\users\tech\desktop\powerlinetransceiver\PLT\PLT.c"
 139  0003  0700     E  	mov a,ra
 139  0004  0003        	ret
 139  0005              _PLT1Recive endp
 139  0005              #line 139 "c:\users\tech\desktop\powerlinetransceiver\PLT\PLT.c"
 139  0005              #pragma debug scope 1 1
 139  0005              public _PLT0AmplifierInputOffsetCalibration
 139  0005              #pragma debug scope 7 1
 144  0005              #line 144 "c:\users\tech\desktop\powerlinetransceiver\PLT\PLT.c"
 144  0000              _PLT0AmplifierInputOffsetCalibration .section 'code'
 144  0000              _PLT0AmplifierInputOffsetCalibration proc
 147  0000              #line 147 "c:\users\tech\desktop\powerlinetransceiver\PLT\PLT.c"
 147  0000  3337        	set [55].6
 148  0001              #line 148 "c:\users\tech\desktop\powerlinetransceiver\PLT\PLT.c"
 148  0001  3337        	set [55].6
 148  0002  32B7        	set [55].5
 149  0003              #line 149 "c:\users\tech\desktop\powerlinetransceiver\PLT\PLT.c"
 149  0003  1F37        	clr [55]
 150  0004              #line 150 "c:\users\tech\desktop\powerlinetransceiver\PLT\PLT.c"
 150  0004  0F01        	mov a,1
 150  0005  0080     R  	mov ___value_1943[0],a
 150  0006  1F00     R  	clr ___value_1943[1]
 155  0007              #line 155 "c:\users\tech\desktop\powerlinetransceiver\PLT\PLT.c"
 155  0007  0F01        	mov a,1
 155  0008  00B7        	mov [55],a
 157  0009              #line 157 "c:\users\tech\desktop\powerlinetransceiver\PLT\PLT.c"
 157  0009  3FB6        	sz [54].7
 157  000A  2800     R  	jmp _L37
 155  000B              #line 155 "c:\users\tech\desktop\powerlinetransceiver\PLT\PLT.c"
 155  000B  0F02        	mov a,2
 155  000C  00B7        	mov [55],a
 157  000D              #line 157 "c:\users\tech\desktop\powerlinetransceiver\PLT\PLT.c"
"File: PLT.c         Assembler  Version HGASM0202      Page 8

 157  000D  3BB6        	snz [54].7
 157  000E  2800     R  	jmp _L31
 154  000F              #line 154 "c:\users\tech\desktop\powerlinetransceiver\PLT\PLT.c"
 154  000F  0F02        	mov a,2
 154  0010  0080     E  	mov rf,a
 154  0011  1F00     E  	clr rg
 154  0012  2800     R  	jmp _L30
 154  0013              _L37:
 154  0013  0F01        	mov a,1
 154  0014  0080     E  	mov rf,a
 154  0015  1F00     E  	clr rg
 154  0016              _L30:
 154  0016  0700     E  	mov a,rf
 154  0017  0080     R  	mov _VC0OS1[0],a
 154  0018  0700     E  	mov a,rg
 154  0019  0080     R  	mov _VC0OS1[1],a
 154  001A              _L33:
 164  001A              #line 164 "c:\users\tech\desktop\powerlinetransceiver\PLT\PLT.c"
 164  001A  0F1F        	mov a,31
 164  001B  0080     R  	mov ___value_1943[0],a
 164  001C  1F00     R  	clr ___value_1943[1]
 164  001D  0F1F        	mov a,31
 164  001E  0080     E  	mov rb,a
 164  001F  1F00     E  	clr rc
 165  0020              #line 165 "c:\users\tech\desktop\powerlinetransceiver\PLT\PLT.c"
 165  0020  1F00     E  	clr rd
 165  0021  1F00     E  	clr re
 165  0022  2800     R  	jmp _L32
 165  0023              _L31:
 165  0023  0F02        	mov a,2
 165  0024  0080     R  	mov _VC0OS1[0],a
 165  0025  1F00     R  	clr _VC0OS1[1]
 154  0026              #line 154 "c:\users\tech\desktop\powerlinetransceiver\PLT\PLT.c"
 154  0026  0F02        	mov a,2
 154  0027  0080     E  	mov rf,a
 154  0028  1F00     E  	clr rg
 154  0029  2800     R  	jmp _L33
 154  002A              _L34:
 165  002A              #line 165 "c:\users\tech\desktop\powerlinetransceiver\PLT\PLT.c"
 165  002A  1480     E  	inc rd
 165  002B  3D0A        	sz z
 165  002C  1480     E  	inc re
 165  002D  0700     E  	mov a,rd
 165  002E  0C04        	xor a,4
 165  002F  0500     E  	or a,re
 165  0030  3D0A        	sz z
 165  0031  2800     R  	jmp _L39
 165  0032              _L32:
 167  0032              #line 167 "c:\users\tech\desktop\powerlinetransceiver\PLT\PLT.c"
 167  0032  0700     E  	mov a,rb
 167  0033  0200     E  	sub a,rd
 167  0034  0080     E  	mov rb,a
 167  0035  0700     E  	mov a,rc
 167  0036  1200     E  	sbc a,re
 167  0037  0080     E  	mov rc,a
 168  0038              #line 168 "c:\users\tech\desktop\powerlinetransceiver\PLT\PLT.c"
 168  0038  0700     E  	mov a,rb
 168  0039  0E1F        	and a,31
 168  003A  00B7        	mov [55],a
 170  003B              #line 170 "c:\users\tech\desktop\powerlinetransceiver\PLT\PLT.c"
"File: PLT.c         Assembler  Version HGASM0202      Page 9

 170  003B  3BB6        	snz [54].7
 170  003C  2800     R  	jmp _L34
 170  003D              _L39:
 170  003D  0700     E  	mov a,rb
 170  003E  0080     R  	mov _VC0OS2[0],a
 170  003F  0700     E  	mov a,rc
 170  0040  0080     R  	mov _VC0OS2[1],a
 177  0041              #line 177 "c:\users\tech\desktop\powerlinetransceiver\PLT\PLT.c"
 177  0041  0700     E  	mov a,rf
 177  0042  0380     E  	addm a,rb
 177  0043  0700     E  	mov a,rg
 177  0044  1380     E  	adcm a,rc
 177  0045  0700     E  	mov a,rb
 177  0046  0080     E  	mov rd,a
 177  0047  0700     E  	mov a,rc
 177  0048  0080     E  	mov re,a
 177  0049  1A80     E  	rlc re
 177  004A  1F00     E  	clr rd
 177  004B  1A80     E  	rlc rd
 177  004C  1F00     E  	clr re
 177  004D  0700     E  	mov a,rd
 177  004E  0380     E  	addm a,rb
 177  004F  0700     E  	mov a,re
 177  0050  1380     E  	adcm a,rc
 177  0051  1A00     E  	rlca rc
 177  0052  1B80     E  	rrc rc
 177  0053  1B80     E  	rrc rb
 177  0054  0700     E  	mov a,rb
 177  0055  0080     R  	mov ___value_1943[0],a
 177  0056  0700     E  	mov a,rc
 177  0057  0080     R  	mov ___value_1943[1],a
 178  0058              #line 178 "c:\users\tech\desktop\powerlinetransceiver\PLT\PLT.c"
 178  0058  0700     E  	mov a,rb
 178  0059  0E1F        	and a,31
 178  005A  00B7        	mov [55],a
 183  005B              #line 183 "c:\users\tech\desktop\powerlinetransceiver\PLT\PLT.c"
 183  005B  0700     E  	mov a,rb
 183  005C  0080     E  	mov ra,a
 183  005D  0700     E  	mov a,rc
 183  005E  0080     E  	mov rb,a
 183  005F  0003        	ret
 183  0060              _PLT0AmplifierInputOffsetCalibration endp
 183  0060              #line 183 "c:\users\tech\desktop\powerlinetransceiver\PLT\PLT.c"
 183  0060              #pragma debug scope 1 1
 183  0060              ___pltda0l equ [51]
 183  0060              public _PLT0Init
 183  0060              #pragma debug scope 8 1
 102  0060              #line 102 "c:\users\tech\desktop\powerlinetransceiver\PLT\PLT.c"
 102  0000              _PLT0Init .section 'code'
 102  0000              _PLT0Init proc
 104  0000              #line 104 "c:\users\tech\desktop\powerlinetransceiver\PLT\PLT.c"
 104  0000  2000     R  	call _PLT0InputOffsetCalibration
 105  0001              #line 105 "c:\users\tech\desktop\powerlinetransceiver\PLT\PLT.c"
 105  0001  2000     R  	call _PLT0AmplifierInputOffsetCalibration
 106  0002              #line 106 "c:\users\tech\desktop\powerlinetransceiver\PLT\PLT.c"
 106  0002  3737        	clr [55].6
 107  0003              #line 107 "c:\users\tech\desktop\powerlinetransceiver\PLT\PLT.c"
 107  0003  3032        	set [50].0
 108  0004              #line 108 "c:\users\tech\desktop\powerlinetransceiver\PLT\PLT.c"
 108  0004  0F13        	mov a,19
"File: PLT.c         Assembler  Version HGASM0202      Page 10

 108  0005  00B3        	mov [51],a
 109  0006              #line 109 "c:\users\tech\desktop\powerlinetransceiver\PLT\PLT.c"
 109  0006  3737        	clr [55].6
 109  0007  36B7        	clr [55].5
 110  0008              #line 110 "c:\users\tech\desktop\powerlinetransceiver\PLT\PLT.c"
 110  0008  1F3A        	clr [58]
 111  0009              #line 111 "c:\users\tech\desktop\powerlinetransceiver\PLT\PLT.c"
 111  0009  3436        	clr [54].0
 111  000A  34B6        	clr [54].1
 112  000B              #line 112 "c:\users\tech\desktop\powerlinetransceiver\PLT\PLT.c"
 112  000B  3336        	set [54].6
 112  000C  0003        	ret
 112  000D              _PLT0Init endp
 112  000D              #line 112 "c:\users\tech\desktop\powerlinetransceiver\PLT\PLT.c"
 112  000D              #pragma debug scope 1 1
 112  0000              @HCCINIT	.section 'data'
 146  0000              #line 146 "c:\users\tech\desktop\powerlinetransceiver\PLT\PLT.c"
 146  0000              @HCCINIT___value_1943 .section 'data'
 146  0000              ___value_1943 label byte
 146  0000              #pragma debug variable 12 7 ___value_1943 "value"
 146  0000              	db 0
 146  0000              @ROMDATA_BASE .section inpage 'code'
 146  0000              	db 0
 146  0001              @HCCINIT___value_1943 .section 'data'
 146  0001              	db 0
 146  0001              @ROMDATA_BASE .section inpage 'code'
 146  0001              	db 0
 146  0002              @HCCINIT___value_1943 .section 'data'
  60  0002              #line 60 "c:\users\tech\desktop\powerlinetransceiver\PLT\PLT.c"
  60  0000              @HCCINIT___value_1918 .section 'data'
  60  0000              ___value_1918 label byte
  60  0000              #pragma debug variable 12 3 ___value_1918 "value"
  60  0000              	db 0
  60  0001              @ROMDATA_BASE .section inpage 'code'
  60  0001              	db 0
  60  0001              @HCCINIT___value_1918 .section 'data'
  60  0001              	db 0
  60  0002              @ROMDATA_BASE .section inpage 'code'
  60  0002              	db 0
  60  0002              @HCCINIT___value_1918 .section 'data'
  14  0002              #line 14 "c:\users\tech\desktop\powerlinetransceiver\PLT\PLT.c"
  14  0000              @HCCINIT___value_1907 .section 'data'
  14  0000              ___value_1907 label byte
  14  0000              #pragma debug variable 12 2 ___value_1907 "value"
  14  0000              	db 0
  14  0002              @ROMDATA_BASE .section inpage 'code'
  14  0002              	db 0
  14  0001              @HCCINIT___value_1907 .section 'data'
  14  0001              	db 0
  14  0003              @ROMDATA_BASE .section inpage 'code'
  14  0003              	db 0
  14  0002              @HCCINIT___value_1907 .section 'data'
  14  0002              public _VC1OS2
   9  0002              #line 9 "c:\users\tech\desktop\powerlinetransceiver\PLT\PLT.c"
   9  0000              @HCCINIT_VC1OS2 .section 'data'
   9  0000              _VC1OS2 label byte
   9  0000              #pragma debug variable 12 1 _VC1OS2 "VC1OS2"
   9  0000              	db 0
   9  0003              @ROMDATA_BASE .section inpage 'code'
   9  0003              	db 0
"File: PLT.c         Assembler  Version HGASM0202      Page 11

   9  0001              @HCCINIT_VC1OS2 .section 'data'
   9  0001              	db 0
   9  0004              @ROMDATA_BASE .section inpage 'code'
   9  0004              	db 0
   9  0002              @HCCINIT_VC1OS2 .section 'data'
   9  0002              public _VC1OS1
   8  0002              #line 8 "c:\users\tech\desktop\powerlinetransceiver\PLT\PLT.c"
   8  0000              @HCCINIT_VC1OS1 .section 'data'
   8  0000              _VC1OS1 label byte
   8  0000              #pragma debug variable 12 1 _VC1OS1 "VC1OS1"
   8  0000              	db 0
   8  0004              @ROMDATA_BASE .section inpage 'code'
   8  0004              	db 0
   8  0001              @HCCINIT_VC1OS1 .section 'data'
   8  0001              	db 0
   8  0005              @ROMDATA_BASE .section inpage 'code'
   8  0005              	db 0
   8  0002              @HCCINIT_VC1OS1 .section 'data'
   8  0002              public _VC0OS2
   7  0002              #line 7 "c:\users\tech\desktop\powerlinetransceiver\PLT\PLT.c"
   7  0000              @HCCINIT_VC0OS2 .section 'data'
   7  0000              _VC0OS2 label byte
   7  0000              #pragma debug variable 12 1 _VC0OS2 "VC0OS2"
   7  0000              	db 0
   7  0005              @ROMDATA_BASE .section inpage 'code'
   7  0005              	db 0
   7  0001              @HCCINIT_VC0OS2 .section 'data'
   7  0001              	db 0
   7  0006              @ROMDATA_BASE .section inpage 'code'
   7  0006              	db 0
   7  0002              @HCCINIT_VC0OS2 .section 'data'
   7  0002              public _VC0OS1
   6  0002              #line 6 "c:\users\tech\desktop\powerlinetransceiver\PLT\PLT.c"
   6  0000              @HCCINIT_VC0OS1 .section 'data'
   6  0000              _VC0OS1 label byte
   6  0000              #pragma debug variable 12 1 _VC0OS1 "VC0OS1"
   6  0000              	db 0
   6  0006              @ROMDATA_BASE .section inpage 'code'
   6  0006              	db 0
   6  0001              @HCCINIT_VC0OS1 .section 'data'
   6  0001              	db 0
   6  0007              @ROMDATA_BASE .section inpage 'code'
   6  0007              	db 0
   6  0002              @HCCINIT_VC0OS1 .section 'data'
   6  0002              #pragma debug struct_end
   6  0002              #pragma debug struct_end
   6  0002              #pragma debug union_end
   6  0002              #pragma debug union_end
   6  0002              #pragma debug variable 43 1 ___pltdacc "__pltdacc" 1
   6  0002              #pragma debug variable 8 1 ___pltda0l "__pltda0l" 1
   6  0002              #pragma debug variable 8 1 ___pltda1l "__pltda1l" 1
   6  0002              #pragma debug struct_end
   6  0002              #pragma debug struct_end
   6  0002              #pragma debug union_end
   6  0002              #pragma debug union_end
   6  0002              #pragma debug variable 45 1 ___pltc0c "__pltc0c" 1
   6  0002              #pragma debug struct_end
   6  0002              #pragma debug struct_end
   6  0002              #pragma debug union_end
   6  0002              #pragma debug union_end
"File: PLT.c         Assembler  Version HGASM0202      Page 12

   6  0002              #pragma debug variable 47 1 ___pltc0vos "__pltc0vos" 1
   6  0002              #pragma debug struct_end
   6  0002              #pragma debug struct_end
   6  0002              #pragma debug union_end
   6  0002              #pragma debug union_end
   6  0002              #pragma debug variable 49 1 ___pltc1c "__pltc1c" 1
   6  0002              #pragma debug struct_end
   6  0002              #pragma debug struct_end
   6  0002              #pragma debug union_end
   6  0002              #pragma debug union_end
   6  0002              #pragma debug variable 51 1 ___pltc1vos "__pltc1vos" 1
   6  0002              #pragma debug struct_end
   6  0002              #pragma debug struct_end
   6  0002              #pragma debug union_end
   6  0002              #pragma debug union_end
   6  0002              #pragma debug variable 53 1 ___pltchyc "__pltchyc" 1
   6  0002              
   6  0002              ; 
   6  0002              ; Generated by holtek-gcc v3.19, Sat Aug 03 18:07:42 2024
   6  0002              ; Rebuild 718
   6  0002              ; end of file


        0 Errors, 0