"File: PLT/PLTSerialProtocol.h  Assembler  Version HGASM0202      Page 1


   1  0000              ; Generated by holtek-gcc v3.19, Sat Jun 29 23:05:00 2024
   2  0000              ; 
   3  0000              ; Configuration:
   4  0000              ;       with long instruction
   5  0000              ;       Single ROM, Multi-RAM
   6  0000              ;       bits_per_rom_unit:16
   7  0000              ;       with mp1
   8  0000              ;       with tbhp, address(0x9)
   9  0000              ;          Use tabrd-const
  10  0000              ;       
  11  0000              ; SFR address of long-instruction arch:
  12  0000              ;    mp0 = -1,1,0
  13  0000              ;    mp1 = 4,3,2
  14  0000              ;    mp2 = 14,13,12
  15  0000              ;    tbp = 9,7,8
  16  0000              ;    acc = 5
  17  0000              ;    pcl = 6
  18  0000              ;    status = 10
  19  0000              ;    bp = 11
  20  0000              ;    intc = 72
  21  0000              ;       
  22  0000              ;       
  23  0000              ; use 'tabrdc' instead of 'tabrd'
  24  0000              ;       
  25  0000              
  26  0000              #pragma translator "holtek-gcc 4.6.4" "3.19" "build 20130711"
  27  0000              ; Rebuild 718
  28  0000              
  29  0000              ir equ [2]
  30  0000              mp equ [3]
  31  0000              sbp equ [4]
  32  0000              acc equ [5]
  33  0000              bp equ [11]
  34  0000              tblp equ [7]
  35  0000              tbhp equ [9]
  36  0000              status equ [10]
  37  0000              c equ [10].0
  38  0000              ac equ [10].1
  39  0000              z equ [10].2
  40  0000              ov equ [10].3
  41  0000              cz equ [10].6
  42  0000              sc equ [10].7
  43  0000              intc equ [72]
  44  0000              
  45  0000              extern ra:byte
  46  0000              extern rb:byte
  47  0000              extern rc:byte
  48  0000              extern rd:byte
  49  0000              extern re:byte
  50  0000              extern rf:byte
  51  0000              extern rg:byte
  52  0000              extern rh:byte
  53  0000              extern _Crom2Prom:near
  54  0000              extern _Crom2PromNext:near
  55  0000              
  56  0000              RAMBANK 0 @BITDATASEC, @BITDATASEC1
  57  0000              @HCCINIT	.section 'data'
  58  0000              @HCCINIT0	.section 'data'
  59  0000              @BITDATASEC	 .section 'data'
"File: PLTSerialProtocol.ASM  Assembler  Version HGASM0202      Page 2

  60  0000              @BITDATASEC1	 .section 'data'
  61  0000              
  62  0000              #pragma debug scope 1 1
  63  0000              	extern __DELAY3:near
  64  0000              	extern __DELAYX3:near
  65  0000              	extern __DELAYX6:near
  66  0000              	extern __DELAYY5:near
  67  0000              	extern __DELAYY3:near
  68  0000              	extern _builtin_holtek_delay_2:byte
  69  0000              public _calculate_parity_and_checksum
  70  0000              #pragma debug scope 2 1

  30  0000              #line 30 "c:\users\tech\desktop\powerlinetransceiver\PLT\PLTSerialProtocol.c"
  30  0000              _calculate_parity_and_checksum .section 'code'
  30  0000              _calculate_parity_and_checksum proc
  30  0000              public _calculate_parity_and_checksum_2
  30  0000  0007[           local _calculate_parity_and_checksum_2 db 7 dup(?)	; 7,0
            00
            ]
  30  0007              #pragma debug pointer 42 7 2
  30  0007              #pragma debug pointer 42 7 2
  30  0007              #pragma debug variable 42 2 _calculate_parity_and_checksum_2+0 "data"
  30  0007              #pragma debug variable 7 2 _calculate_parity_and_checksum_2+2 "length"
  30  0007              #pragma debug variable 42 2 _calculate_parity_and_checksum_2+3 "parity"
  30  0007              #pragma debug variable 42 2 _calculate_parity_and_checksum_2+5 "checksum"
  34  0007              #line 34 "c:\users\tech\desktop\powerlinetransceiver\PLT\PLTSerialProtocol.c"
  34  0000  1F00     E  	clr rb
  34  0001  1F00     E  	clr rc
  32  0002              #line 32 "c:\users\tech\desktop\powerlinetransceiver\PLT\PLTSerialProtocol.c"
  32  0002  1F00     E  	clr ra
  31  0003              #line 31 "c:\users\tech\desktop\powerlinetransceiver\PLT\PLTSerialProtocol.c"
  31  0003  1F00     E  	clr rf
  31  0004              _L2:
  34  0004              #line 34 "c:\users\tech\desktop\powerlinetransceiver\PLT\PLTSerialProtocol.c"
  34  0004  0700     R  	mov a,_calculate_parity_and_checksum_2[2]
  34  0005  0080     E  	mov rd,a
  34  0006  1F00     E  	clr re
  34  0007  3F85        	sz acc.7
  34  0008  1F80     E  	set re
  34  0009  0700     E  	mov a,rb
  34  000A  0200     E  	sub a,rd
  34  000B  0700     E  	mov a,rc
  34  000C  1200     E  	sbc a,re
  34  000D  3B8A        	snz sc
  34  000E  2800     R  	jmp _L5
  35  000F              #line 35 "c:\users\tech\desktop\powerlinetransceiver\PLT\PLTSerialProtocol.c"
  35  000F  0700     E  	mov a,rb
  35  0010  0300     R  	add a,_calculate_parity_and_checksum_2[0]
  35  0011  0083        	mov mp,a
  35  0012  0700     E  	mov a,rc
  35  0013  1300     R  	adc a,_calculate_parity_and_checksum_2[1]
  35  0014  0084        	mov sbp,a
  35  0015  2000     E  	call _Crom2Prom
  35  0016  0080     E  	mov rd,a
  35  0017  0700     E  	mov a,rd
  35  0018  0480     E  	xorm a,rf
  36  0019              #line 36 "c:\users\tech\desktop\powerlinetransceiver\PLT\PLTSerialProtocol.c"
  36  0019  0700     E  	mov a,rd
  36  001A  0380     E  	addm a,ra
  34  001B              #line 34 "c:\users\tech\desktop\powerlinetransceiver\PLT\PLTSerialProtocol.c"
"File: PLTSerialProtocol.c  Assembler  Version HGASM0202      Page 3

  34  001B  1480     E  	inc rb
  34  001C  3D0A        	sz z
  34  001D  1480     E  	inc rc
  34  001E  2800     R  	jmp _L2
  34  001F              _L5:
  38  001F              #line 38 "c:\users\tech\desktop\powerlinetransceiver\PLT\PLTSerialProtocol.c"
  38  001F  0F01        	mov a,1
  38  0020  0680     E  	andm a,rf
  38  0021  0700     R  	mov a,_calculate_parity_and_checksum_2[3]
  38  0022  0083        	mov mp,a
  38  0023  0700     R  	mov a,_calculate_parity_and_checksum_2[4]
  38  0024  0084        	mov sbp,a
  38  0025  0700     E  	mov a,rf
  38  0026  0082        	mov ir,a
  39  0027              #line 39 "c:\users\tech\desktop\powerlinetransceiver\PLT\PLTSerialProtocol.c"
  39  0027  0700     R  	mov a,_calculate_parity_and_checksum_2[5]
  39  0028  0083        	mov mp,a
  39  0029  0700     R  	mov a,_calculate_parity_and_checksum_2[6]
  39  002A  0084        	mov sbp,a
  39  002B  0700     E  	mov a,ra
  39  002C  0082        	mov ir,a
  39  002D  0003        	ret
  39  002E              _calculate_parity_and_checksum endp
  39  002E              #line 39 "c:\users\tech\desktop\powerlinetransceiver\PLT\PLTSerialProtocol.c"
  39  002E              #pragma debug scope 1 1
  39  002E              public _PLT_SerialSend
  39  002E              #pragma debug scope 3 1
   5  002E              #line 5 "c:\users\tech\desktop\powerlinetransceiver\PLT\PLTSerialProtocol.c"
   5  0000              _PLT_SerialSend .section 'code'
   5  0000              _PLT_SerialSend proc
   5  0000              public _PLT_SerialSend_2
   5  0000  0002[           local _PLT_SerialSend_2 db 2 dup(?)	; 2,0
            00
            ]
   5  0002              #pragma debug pointer 43 7 3
   5  0002              #pragma debug pointer 43 7 3
   5  0002              #pragma debug variable 43 3 _PLT_SerialSend_2+0 "data"
   6  0002              #line 6 "c:\users\tech\desktop\powerlinetransceiver\PLT\PLTSerialProtocol.c"
   6  0000  0F08        	mov a,8
   6  0001  0080     R  	mov _frame[3],a
   6  0002  1F00     R  	clr _frame[4]
   7  0003              #line 7 "c:\users\tech\desktop\powerlinetransceiver\PLT\PLTSerialProtocol.c"
   7  0003  0700     R  	mov a,_PLT_SerialSend_2[0]
   7  0004  0080     E  	mov rb,a
   7  0005  0700     R  	mov a,_PLT_SerialSend_2[1]
   7  0006  0080     E  	mov rc,a
   7  0007  0700     E  	mov a,rb
   7  0008  0083        	mov mp,a
   7  0009  0700     E  	mov a,rc
   7  000A  0084        	mov sbp,a
   7  000B  2000     E  	call _Crom2Prom
   7  000C  0080     R  	mov _frame[5],a
   8  000D              #line 8 "c:\users\tech\desktop\powerlinetransceiver\PLT\PLTSerialProtocol.c"
   8  000D  0F01        	mov a,1
   8  000E  0300     E  	add a,rb
   8  000F  0083        	mov mp,a
   8  0010  0F00        	mov a,0
   8  0011  1300     E  	adc a,rc
   8  0012  0084        	mov sbp,a
   8  0013  2000     E  	call _Crom2Prom
"File: PLTSerialProtocol.c  Assembler  Version HGASM0202      Page 4

   8  0014  0080     R  	mov _frame[6],a
   9  0015              #line 9 "c:\users\tech\desktop\powerlinetransceiver\PLT\PLTSerialProtocol.c"
   9  0015  0F02        	mov a,2
   9  0016  0300     E  	add a,rb
   9  0017  0083        	mov mp,a
   9  0018  0F00        	mov a,0
   9  0019  1300     E  	adc a,rc
   9  001A  0084        	mov sbp,a
   9  001B  2000     E  	call _Crom2Prom
   9  001C  0080     R  	mov _frame[7],a
  10  001D              #line 10 "c:\users\tech\desktop\powerlinetransceiver\PLT\PLTSerialProtocol.c"
  10  001D  0F03        	mov a,3
  10  001E  0300     E  	add a,rb
  10  001F  0083        	mov mp,a
  10  0020  0F00        	mov a,0
  10  0021  1300     E  	adc a,rc
  10  0022  0084        	mov sbp,a
  10  0023  2000     E  	call _Crom2Prom
  10  0024  0080     R  	mov _frame[8],a
  11  0025              #line 11 "c:\users\tech\desktop\powerlinetransceiver\PLT\PLTSerialProtocol.c"
  11  0025  0F04        	mov a,4
  11  0026  0300     E  	add a,rb
  11  0027  0083        	mov mp,a
  11  0028  0F00        	mov a,0
  11  0029  1300     E  	adc a,rc
  11  002A  0084        	mov sbp,a
  11  002B  2000     E  	call _Crom2Prom
  11  002C  0080     R  	mov _frame[9],a
  12  002D              #line 12 "c:\users\tech\desktop\powerlinetransceiver\PLT\PLTSerialProtocol.c"
  12  002D  0F05        	mov a,5
  12  002E  0300     E  	add a,rb
  12  002F  0083        	mov mp,a
  12  0030  0F00        	mov a,0
  12  0031  1300     E  	adc a,rc
  12  0032  0084        	mov sbp,a
  12  0033  2000     E  	call _Crom2Prom
  12  0034  0080     R  	mov _frame[10],a
  13  0035              #line 13 "c:\users\tech\desktop\powerlinetransceiver\PLT\PLTSerialProtocol.c"
  13  0035  0F06        	mov a,6
  13  0036  0300     E  	add a,rb
  13  0037  0083        	mov mp,a
  13  0038  0F00        	mov a,0
  13  0039  1300     E  	adc a,rc
  13  003A  0084        	mov sbp,a
  13  003B  2000     E  	call _Crom2Prom
  13  003C  0080     R  	mov _frame[11],a
  14  003D              #line 14 "c:\users\tech\desktop\powerlinetransceiver\PLT\PLTSerialProtocol.c"
  14  003D  0F07        	mov a,7
  14  003E  0300     E  	add a,rb
  14  003F  0083        	mov mp,a
  14  0040  0F00        	mov a,0
  14  0041  1300     E  	adc a,rc
  14  0042  0084        	mov sbp,a
  14  0043  2000     E  	call _Crom2Prom
  14  0044  0080     R  	mov _frame[12],a
  22  0045              #line 22 "c:\users\tech\desktop\powerlinetransceiver\PLT\PLTSerialProtocol.c"
  22  0045  0F00     R  	mov a,low (offset _frame+14)
  22  0046  0080     R  	mov _calculate_parity_and_checksum_2[5],a
  22  0047  0F00     R  	mov a,high (offset _frame+14)
  22  0048  0080     R  	mov _calculate_parity_and_checksum_2[6],a
"File: PLTSerialProtocol.c  Assembler  Version HGASM0202      Page 5

  22  0049  0F00     R  	mov a,low (offset _frame+17)
  22  004A  0080     R  	mov _calculate_parity_and_checksum_2[3],a
  22  004B  0F00     R  	mov a,high (offset _frame+17)
  22  004C  0080     R  	mov _calculate_parity_and_checksum_2[4],a
  22  004D  0F08        	mov a,8
  22  004E  0080     R  	mov _calculate_parity_and_checksum_2[2],a
  22  004F  0F00     R  	mov a,low (offset _frame+5)
  22  0050  0080     R  	mov _calculate_parity_and_checksum_2[0],a
  22  0051  0F00     R  	mov a,high (offset _frame+5)
  22  0052  0080     R  	mov _calculate_parity_and_checksum_2[1],a
  22  0053  2000     R  	call _calculate_parity_and_checksum
  23  0054              #line 23 "c:\users\tech\desktop\powerlinetransceiver\PLT\PLTSerialProtocol.c"
  23  0054  0F28        	mov a,40
  23  0055  2000     E  	call _EnableInterrupt
  23  0056  0003        	ret
  23  0057              _PLT_SerialSend endp
  23  0057              #line 23 "c:\users\tech\desktop\powerlinetransceiver\PLT\PLTSerialProtocol.c"
  23  0057              #pragma debug scope 1 1
  23  0057              public _PLT_SerialInit
  23  0057              #pragma debug scope 4 1
  42  0057              #line 42 "c:\users\tech\desktop\powerlinetransceiver\PLT\PLTSerialProtocol.c"
  42  0000              _PLT_SerialInit .section 'code'
  42  0000              _PLT_SerialInit proc
  42  0000              public _PLT_SerialInit_2
  42  0000  0002[           local _PLT_SerialInit_2 db 2 dup(?)	; 2,0
            00
            ]
  42  0002              #pragma debug variable 12 4 _PLT_SerialInit_2+0 "baudrate"
  43  0002              #line 43 "c:\users\tech\desktop\powerlinetransceiver\PLT\PLTSerialProtocol.c"
  43  0000  1F00     R  	clr _frame[0]
  43  0001  0003        	ret
  43  0002              _PLT_SerialInit endp
  43  0002              #line 43 "c:\users\tech\desktop\powerlinetransceiver\PLT\PLTSerialProtocol.c"
  43  0002              #pragma debug scope 1 1
  43  0002              ___pa equ [20]
  43  0002              public _PLT_HandelSerialTransmit
  43  0002              #pragma debug scope 5 1
  50  0002              #line 50 "c:\users\tech\desktop\powerlinetransceiver\PLT\PLTSerialProtocol.c"
  50  0000              _PLT_HandelSerialTransmit .section 'code'
  50  0000              _PLT_HandelSerialTransmit proc
  50  0000  00              local _PLT_HandelSerialTransmit_2 db 1 dup(?)	; 0,1
  53  0001              #line 53 "c:\users\tech\desktop\powerlinetransceiver\PLT\PLTSerialProtocol.c"
  53  0000  0F01        	mov a,1
  53  0001  0080     R  	mov _TranferBit[0],a
  54  0002              #line 54 "c:\users\tech\desktop\powerlinetransceiver\PLT\PLTSerialProtocol.c"
  54  0002  0F0A        	mov a,10
  54  0003  0200     R  	sub a,___IndexOfBit_2000[0]
  54  0004  3B8A        	snz sc
  54  0005  2800     R  	jmp _L9
  56  0006              #line 56 "c:\users\tech\desktop\powerlinetransceiver\PLT\PLTSerialProtocol.c"
  56  0006  1F00     R  	clr _TranferBit[0]
  57  0007              #line 57 "c:\users\tech\desktop\powerlinetransceiver\PLT\PLTSerialProtocol.c"
  57  0007  1F00     R  	clr ___IndexOfBit_2000[0]
  58  0008              #line 58 "c:\users\tech\desktop\powerlinetransceiver\PLT\PLTSerialProtocol.c"
  58  0008  0F28        	mov a,40
  58  0009  2000     E  	call _DisableInterrupt
  58  000A              _L9:
  60  000A              #line 60 "c:\users\tech\desktop\powerlinetransceiver\PLT\PLTSerialProtocol.c"
  60  000A  0700     R  	mov a,___IndexOfBit_2000[0]
  60  000B  0080     R  	mov _PLT_HandelSerialTransmit_2[0],a
"File: PLTSerialProtocol.c  Assembler  Version HGASM0202      Page 6

  60  000C  0700     R  	mov a,_PLT_HandelSerialTransmit_2[0]
  60  000D  0A00        	sub a,0
  60  000E  3D0A        	sz z
  60  000F  2800     R  	jmp _L11
  60  0010  0A01        	sub a,(1)-(0)
  60  0011  3D0A        	sz z
  60  0012  2800     R  	jmp _L12
  60  0013  0700     R  	mov a,_PLT_HandelSerialTransmit_2[0]
  60  0014  0A02        	sub a,2
  60  0015  3D0A        	sz z
  60  0016  2800     R  	jmp _L12
  60  0017  0A01        	sub a,(3)-(2)
  60  0018  3D0A        	sz z
  60  0019  2800     R  	jmp _L12
  60  001A  0700     R  	mov a,_PLT_HandelSerialTransmit_2[0]
  60  001B  0A04        	sub a,4
  60  001C  3D0A        	sz z
  60  001D  2800     R  	jmp _L12
  60  001E  0A01        	sub a,(5)-(4)
  60  001F  3D0A        	sz z
  60  0020  2800     R  	jmp _L12
  60  0021  0700     R  	mov a,_PLT_HandelSerialTransmit_2[0]
  60  0022  0A06        	sub a,6
  60  0023  3D0A        	sz z
  60  0024  2800     R  	jmp _L12
  60  0025  0A01        	sub a,(7)-(6)
  60  0026  3D0A        	sz z
  60  0027  2800     R  	jmp _L12
  60  0028  0700     R  	mov a,_PLT_HandelSerialTransmit_2[0]
  60  0029  0A08        	sub a,8
  60  002A  3D0A        	sz z
  60  002B  2800     R  	jmp _L12
  60  002C  0A01        	sub a,(9)-(8)
  60  002D  3D0A        	sz z
  60  002E  2800     R  	jmp _L13
  60  002F  0700     R  	mov a,_PLT_HandelSerialTransmit_2[0]
  60  0030  0A0A        	sub a,10
  60  0031  3D0A        	sz z
  60  0032  2800     R  	jmp _L14
  60  0033  0700     R  	mov a,_PLT_HandelSerialTransmit_2[0]
  60  0034  0A0B        	sub a,11
  60  0035  390A        	snz z
  60  0036  2800     R  	jmp _L10
  60  0037  2800     R  	jmp _L43
  60  0038              _L11:
  62  0038              #line 62 "c:\users\tech\desktop\powerlinetransceiver\PLT\PLTSerialProtocol.c"
  62  0038  0700     R  	mov a,_frame[0]
  62  0039  0E01        	and a,1
  62  003A  0080     E  	mov ra,a
  62  003B  2800     R  	jmp _L42
  62  003C              _L12:
  66  003C              #line 66 "c:\users\tech\desktop\powerlinetransceiver\PLT\PLTSerialProtocol.c"
  66  003C  0700     R  	mov a,_PLT_HandelSerialTransmit_2[0]
  66  003D  0080     E  	mov rb,a
  66  003E  1F00     E  	clr rc
  66  003F  3F85        	sz acc.7
  66  0040  1F80     E  	set rc
  66  0041  0F00     R  	mov a,low (offset _frame+4)
  66  0042  0300     E  	add a,rb
  66  0043  0083        	mov mp,a
"File: PLTSerialProtocol.c  Assembler  Version HGASM0202      Page 7

  66  0044  0F00     R  	mov a,high (offset _frame+4)
  66  0045  1300     E  	adc a,rc
  66  0046  0084        	mov sbp,a
  66  0047  2000     E  	call _Crom2Prom
  66  0048  0080     E  	mov ra,a
  66  0049  0F01        	mov a,1
  66  004A  0680     E  	andm a,ra
  66  004B              _L42:
  66  004B  1100     E  	swapa ra
  66  004C  1985        	rr acc
  66  004D  0EF8        	and a,0f8h
  66  004E  0080     E  	mov ra,a
  66  004F  3594        	clr [20].3
  66  0050  0700     E  	mov a,ra
  66  0051  0594        	orm a,[20]
  67  0052              #line 67 "c:\users\tech\desktop\powerlinetransceiver\PLT\PLTSerialProtocol.c"
  67  0052  2800     R  	jmp _L10
  67  0053              _L13:
  70  0053              #line 70 "c:\users\tech\desktop\powerlinetransceiver\PLT\PLTSerialProtocol.c"
  70  0053  0700     R  	mov a,_frame[17]
  70  0054  0E01        	and a,1
  70  0055  0080     E  	mov ra,a
  70  0056  2800     R  	jmp _L42
  70  0057              _L14:
  75  0057              #line 75 "c:\users\tech\desktop\powerlinetransceiver\PLT\PLTSerialProtocol.c"
  75  0057  3194        	set [20].3
  76  0058              #line 76 "c:\users\tech\desktop\powerlinetransceiver\PLT\PLTSerialProtocol.c"
  76  0058  2800     R  	jmp _L10
  76  0059              _L43:
  78  0059              #line 78 "c:\users\tech\desktop\powerlinetransceiver\PLT\PLTSerialProtocol.c"
  78  0059  0700     R  	mov a,_frame[14]
  78  005A  0080     E  	mov rb,a
  78  005B  0700     R  	mov a,_frame[15]
  78  005C  0080     E  	mov rc,a
  78  005D  3800     E  	snz rb.0
  78  005E  2800     R  	jmp _L16
  80  005F              #line 80 "c:\users\tech\desktop\powerlinetransceiver\PLT\PLTSerialProtocol.c"
  80  005F  3194        	set [20].3
  80  0060  2800     R  	jmp _L17
  80  0061              _L16:
  84  0061              #line 84 "c:\users\tech\desktop\powerlinetransceiver\PLT\PLTSerialProtocol.c"
  84  0061  3594        	clr [20].3
  84  0062              _L17:
  86  0062              #line 86 "c:\users\tech\desktop\powerlinetransceiver\PLT\PLTSerialProtocol.c"
  86  0062  0700     E  	mov a,rb
  86  0063  0080     E  	mov rd,a
  86  0064  0700     E  	mov a,rc
  86  0065  0080     E  	mov re,a
  86  0066  340A        	clr c
  86  0067  1B80     E  	rrc re
  86  0068  1B80     E  	rrc rd
  86  0069  0700     E  	mov a,rd
  86  006A  0080     R  	mov _frame[14],a
  86  006B  0700     E  	mov a,re
  86  006C  0080     R  	mov _frame[15],a
  86  006D              _L10:
  91  006D              #line 91 "c:\users\tech\desktop\powerlinetransceiver\PLT\PLTSerialProtocol.c"
  91  006D  1400     R  	inca _PLT_HandelSerialTransmit_2[0]
  91  006E  0080     R  	mov ___IndexOfBit_2000[0],a
  91  006F  0003        	ret
"File: PLTSerialProtocol.c  Assembler  Version HGASM0202      Page 8

  91  0070              _PLT_HandelSerialTransmit endp
  91  0070              #line 91 "c:\users\tech\desktop\powerlinetransceiver\PLT\PLTSerialProtocol.c"
  91  0070              #pragma debug scope 1 1
  91  0000              @HCCINIT	.section 'data'
  52  0000              #line 52 "c:\users\tech\desktop\powerlinetransceiver\PLT\PLTSerialProtocol.c"
  52  0000              @HCCINIT___IndexOfBit_2000 .section 'data'
  52  0000              ___IndexOfBit_2000 label byte
  52  0000              #pragma debug variable 7 5 ___IndexOfBit_2000 "IndexOfBit"
  52  0000              	db 0
  52  0000              @ROMDATA_BASE .section inpage 'code'
  52  0000              	db 0
  52  0001              @HCCINIT___IndexOfBit_2000 .section 'data'

  48  0001              #line 48 "C:\Users\Tech\Desktop\PowerLineTransceiver\PLT/PLTSerialProtocol.h"
  48  0001              public _frame
  48  0000              @HCCINIT0_frame .section 'data'
  48  0000  0012[       _frame	db 18 dup(0)
            00
            ]
  48  0012              #pragma debug struct_end
  48  0012              #pragma debug struct_end
  48  0012              #pragma debug variable 44 1 _frame "frame"
  48  0012              
  48  0000              @HCCINIT .section 'data'
  30  0000              #line 30 "C:\Users\Tech\Desktop\PowerLineTransceiver\PLT/PLTSerialProtocol.h"
  30  0000              public _timerCuonter
  30  0000              @HCCINIT0_timerCuonter .section 'data'
  30  0000  0002[       _timerCuonter	db 2 dup(0)
            00
            ]
  30  0002              #pragma debug variable 12 1 _timerCuonter "timerCuonter"
  30  0002              
  30  0000              @HCCINIT .section 'data'
  30  0000              public _TranferBit
  28  0000              #line 28 "C:\Users\Tech\Desktop\PowerLineTransceiver\PLT/PLTSerialProtocol.h"
  28  0000              @HCCINIT_TranferBit .section 'data'
  28  0000              _TranferBit label byte
  28  0000              #pragma debug variable 7 1 _TranferBit "TranferBit"
  28  0000              	db 1
  28  0001              @ROMDATA_BASE .section inpage 'code'
  28  0001              	db 1
  28  0001              @HCCINIT_TranferBit .section 'data'
  28  0001              #pragma debug struct_end
  28  0001              #pragma debug struct_end
  28  0001              #pragma debug union_end
  28  0001              #pragma debug union_end
  28  0001              #pragma debug variable 46 1 ___pa "__pa" 1
  28  0001              extern _EnableInterrupt:near
  28  0001              extern _DisableInterrupt:near
  28  0001              
  28  0001              ; 
  28  0001              ; Generated by holtek-gcc v3.19, Sat Jun 29 23:05:00 2024
  28  0001              ; Rebuild 718
  28  0001              ; end of file


        0 Errors, 0