"File: PLT/PLTSerialProtocol.h  Assembler  Version HGASM0202      Page 1


   1  0000              ; Generated by holtek-gcc v3.19, Mon Aug 26 16:58:32 2024
   2  0000              ; 
   3  0000              ; Configuration:
   4  0000              ;       with long instruction
   5  0000              ;       Single ROM, Multi-RAM
   6  0000              ;       bits_per_rom_unit:16
   7  0000              ;       with mp1
   8  0000              ;       with tbhp, address(0x9)
   9  0000              ;          Use tabrd-const
  10  0000              ;       
  11  0000              ; SFR address of long-instruction arch:
  12  0000              ;    mp0 = -1,1,0
  13  0000              ;    mp1 = 4,3,2
  14  0000              ;    mp2 = 14,13,12
  15  0000              ;    tbp = 9,7,8
  16  0000              ;    acc = 5
  17  0000              ;    pcl = 6
  18  0000              ;    status = 10
  19  0000              ;    bp = 11
  20  0000              ;    intc = 72
  21  0000              ;       
  22  0000              ;       
  23  0000              ; use 'tabrdc' instead of 'tabrd'
  24  0000              ;       
  25  0000              
  26  0000              #pragma translator "holtek-gcc 4.6.4" "3.19" "build 20130711"
  27  0000              ; Rebuild 718
  28  0000              
  29  0000              ir equ [2]
  30  0000              mp equ [3]
  31  0000              sbp equ [4]
  32  0000              acc equ [5]
  33  0000              bp equ [11]
  34  0000              tblp equ [7]
  35  0000              tbhp equ [9]
  36  0000              status equ [10]
  37  0000              c equ [10].0
  38  0000              ac equ [10].1
  39  0000              z equ [10].2
  40  0000              ov equ [10].3
  41  0000              cz equ [10].6
  42  0000              sc equ [10].7
  43  0000              intc equ [72]
  44  0000              
  45  0000              extern ra:byte
  46  0000              extern rb:byte
  47  0000              extern rc:byte
  48  0000              extern rd:byte
  49  0000              extern re:byte
  50  0000              extern rf:byte
  51  0000              extern rg:byte
  52  0000              extern rh:byte
  53  0000              extern _Crom2Prom:near
  54  0000              extern _Crom2PromNext:near
  55  0000              
  56  0000              RAMBANK 0 @BITDATASEC, @BITDATASEC1
  57  0000              @HCCINIT	.section 'data'
  58  0000              @HCCINIT0	.section 'data'
  59  0000              @BITDATASEC	 .section 'data'
"File: PLTSerialProtocol.ASM  Assembler  Version HGASM0202      Page 2

  60  0000              @BITDATASEC1	 .section 'data'
  61  0000              
  62  0000              #pragma debug scope 1 1
  63  0000              	extern __DELAY3:near
  64  0000              	extern __DELAYX3:near
  65  0000              	extern __DELAYX6:near
  66  0000              	extern __DELAYY5:near
  67  0000              	extern __DELAYY3:near
  68  0000              	extern _builtin_holtek_delay_2:byte
  69  0000              public _calculate_parity_and_checksum
  70  0000              #pragma debug scope 2 1

  35  0000              #line 35 "c:\users\tech\desktop\powerlinetransceiver\PLT\PLTSerialProtocol.c"
  35  0000              _calculate_parity_and_checksum .section 'code'
  35  0000              _calculate_parity_and_checksum proc
  35  0000              public _calculate_parity_and_checksum_2
  35  0000  0007[           local _calculate_parity_and_checksum_2 db 7 dup(?)	; 7,0
            00
            ]
  35  0007              #pragma debug pointer 42 7 2
  35  0007              #pragma debug pointer 42 7 2
  35  0007              #pragma debug variable 42 2 _calculate_parity_and_checksum_2+0 "data"
  35  0007              #pragma debug variable 7 2 _calculate_parity_and_checksum_2+2 "length"
  35  0007              #pragma debug variable 42 2 _calculate_parity_and_checksum_2+3 "parity"
  35  0007              #pragma debug variable 42 2 _calculate_parity_and_checksum_2+5 "checksum"
  39  0007              #line 39 "c:\users\tech\desktop\powerlinetransceiver\PLT\PLTSerialProtocol.c"
  39  0000  1F00     E  	clr rb
  39  0001  1F00     E  	clr rc
  37  0002              #line 37 "c:\users\tech\desktop\powerlinetransceiver\PLT\PLTSerialProtocol.c"
  37  0002  1F00     E  	clr ra
  36  0003              #line 36 "c:\users\tech\desktop\powerlinetransceiver\PLT\PLTSerialProtocol.c"
  36  0003  1F00     E  	clr rf
  36  0004              _L2:
  39  0004              #line 39 "c:\users\tech\desktop\powerlinetransceiver\PLT\PLTSerialProtocol.c"
  39  0004  0700     R  	mov a,_calculate_parity_and_checksum_2[2]
  39  0005  0080     E  	mov rd,a
  39  0006  1F00     E  	clr re
  39  0007  3F85        	sz acc.7
  39  0008  1F80     E  	set re
  39  0009  0700     E  	mov a,rb
  39  000A  0200     E  	sub a,rd
  39  000B  0700     E  	mov a,rc
  39  000C  1200     E  	sbc a,re
  39  000D  3B8A        	snz sc
  39  000E  2800     R  	jmp _L5
  40  000F              #line 40 "c:\users\tech\desktop\powerlinetransceiver\PLT\PLTSerialProtocol.c"
  40  000F  0700     E  	mov a,rb
  40  0010  0300     R  	add a,_calculate_parity_and_checksum_2[0]
  40  0011  0083        	mov mp,a
  40  0012  0700     E  	mov a,rc
  40  0013  1300     R  	adc a,_calculate_parity_and_checksum_2[1]
  40  0014  0084        	mov sbp,a
  40  0015  2000     E  	call _Crom2Prom
  40  0016  0080     E  	mov rd,a
  40  0017  0700     E  	mov a,rd
  40  0018  0480     E  	xorm a,rf
  41  0019              #line 41 "c:\users\tech\desktop\powerlinetransceiver\PLT\PLTSerialProtocol.c"
  41  0019  0700     E  	mov a,rd
  41  001A  0380     E  	addm a,ra
  39  001B              #line 39 "c:\users\tech\desktop\powerlinetransceiver\PLT\PLTSerialProtocol.c"
"File: PLTSerialProtocol.c  Assembler  Version HGASM0202      Page 3

  39  001B  1480     E  	inc rb
  39  001C  3D0A        	sz z
  39  001D  1480     E  	inc rc
  39  001E  2800     R  	jmp _L2
  39  001F              _L5:
  43  001F              #line 43 "c:\users\tech\desktop\powerlinetransceiver\PLT\PLTSerialProtocol.c"
  43  001F  0F01        	mov a,1
  43  0020  0680     E  	andm a,rf
  43  0021  0700     R  	mov a,_calculate_parity_and_checksum_2[3]
  43  0022  0083        	mov mp,a
  43  0023  0700     R  	mov a,_calculate_parity_and_checksum_2[4]
  43  0024  0084        	mov sbp,a
  43  0025  0700     E  	mov a,rf
  43  0026  0082        	mov ir,a
  44  0027              #line 44 "c:\users\tech\desktop\powerlinetransceiver\PLT\PLTSerialProtocol.c"
  44  0027  0700     R  	mov a,_calculate_parity_and_checksum_2[5]
  44  0028  0083        	mov mp,a
  44  0029  0700     R  	mov a,_calculate_parity_and_checksum_2[6]
  44  002A  0084        	mov sbp,a
  44  002B  0700     E  	mov a,ra
  44  002C  0082        	mov ir,a
  44  002D  0003        	ret
  44  002E              _calculate_parity_and_checksum endp
  44  002E              #line 44 "c:\users\tech\desktop\powerlinetransceiver\PLT\PLTSerialProtocol.c"
  44  002E              #pragma debug scope 1 1
  44  002E              public _PLT_SerialSend
  44  002E              #pragma debug scope 3 1
   3  002E              #line 3 "c:\users\tech\desktop\powerlinetransceiver\PLT\PLTSerialProtocol.c"
   3  0000              _PLT_SerialSend .section 'code'
   3  0000              _PLT_SerialSend proc
   3  0000              public _PLT_SerialSend_2
   3  0000  0014[           local _PLT_SerialSend_2 db 20 dup(?)	; 4,16
            00
            ]
   3  0014              #pragma debug pointer 43 8 3
   3  0014              #pragma debug pointer 43 8 3
   3  0014              #pragma debug variable 43 3 _PLT_SerialSend_2+0 "data"
   3  0014              #pragma debug pointer 44 10 3
   3  0014              #pragma debug pointer 44 10 3
   3  0014              #pragma debug variable 44 3 _PLT_SerialSend_2+2 "frame"
   3  0014              #pragma debug variable 7 3 _PLT_SerialSend_2+13 "parity"
   3  0014              #pragma debug variable 7 3 _PLT_SerialSend_2+12 "checksum"
   3  0014              #pragma debug array 45 7 8 3
   3  0014              #pragma debug array 45 7 8 3
   3  0014              #pragma debug variable 45 3 _PLT_SerialSend_2+4 "data1"
   4  0014              #line 4 "c:\users\tech\desktop\powerlinetransceiver\PLT\PLTSerialProtocol.c"
   4  0000  1F00     R  	clr _PLT_SerialSend_2[13]
   5  0001              #line 5 "c:\users\tech\desktop\powerlinetransceiver\PLT\PLTSerialProtocol.c"
   5  0001  1F00     R  	clr _PLT_SerialSend_2[12]
   7  0002              #line 7 "c:\users\tech\desktop\powerlinetransceiver\PLT\PLTSerialProtocol.c"
   7  0002  1F00     R  	clr _PLT_SerialSend_2[4]
   7  0003  1F00     R  	clr _PLT_SerialSend_2[5]
   7  0004  1F00     R  	clr _PLT_SerialSend_2[6]
   7  0005  1F00     R  	clr _PLT_SerialSend_2[7]
   7  0006  1F00     R  	clr _PLT_SerialSend_2[8]
   7  0007  1F00     R  	clr _PLT_SerialSend_2[9]
   7  0008  1F00     R  	clr _PLT_SerialSend_2[10]
   7  0009  1F00     R  	clr _PLT_SerialSend_2[11]
  11  000A              #line 11 "c:\users\tech\desktop\powerlinetransceiver\PLT\PLTSerialProtocol.c"
  11  000A  0700     R  	mov a,_PLT_SerialSend_2[0]
"File: PLTSerialProtocol.c  Assembler  Version HGASM0202      Page 4

  11  000B  0083        	mov mp,a
  11  000C  0700     R  	mov a,_PLT_SerialSend_2[1]
  11  000D  0084        	mov sbp,a
  11  000E  2000     E  	call _Crom2Prom
  11  000F  0080     E  	mov rf,a
  11  0010  1F00     E  	clr rg
  11  0011  0F08        	mov a,8
  11  0012  0080     R  	mov _PLT_SerialSend_2[14],a
  10  0013              #line 10 "c:\users\tech\desktop\powerlinetransceiver\PLT\PLTSerialProtocol.c"
  10  0013  1F00     E  	clr ra
  11  0014              #line 11 "c:\users\tech\desktop\powerlinetransceiver\PLT\PLTSerialProtocol.c"
  11  0014  0F00     R  	mov a,low offset _PLT_SerialSend_2
  11  0015  0080     E  	mov rb,a
  11  0016  0F00     R  	mov a,high offset _PLT_SerialSend_2
  11  0017  0080     E  	mov rc,a
  11  0018  0F04        	mov a,4
  11  0019  0380     E  	addm a,rb
  11  001A  0F00        	mov a,0
  11  001B  1380     E  	adcm a,rc
  11  001C              _L8:
  11  001C              #line 11 "c:\users\tech\desktop\powerlinetransceiver\PLT\PLTSerialProtocol.c"
  11  001C  0700     E  	mov a,ra
  11  001D  0080     R  	mov _PLT_SerialSend_2[18],a
  11  001E  1F00     R  	clr _PLT_SerialSend_2[19]
  11  001F  3F85        	sz acc.7
  11  0020  1F80     R  	set _PLT_SerialSend_2[19]
  11  0021  0700     E  	mov a,rf
  11  0022  0080     E  	mov rd,a
  11  0023  0700     E  	mov a,rg
  11  0024  0080     E  	mov re,a
  11  0025  1400     E  	inca ra
  11  0026  2800     R  	jmp _LI1
  11  0027              _LI2:
  11  0027  340A        	clr c
  11  0028  3C00     E  	sz re.7
  11  0029  300A        	set c
  11  002A  1B80     E  	rrc re
  11  002B  1B80     E  	rrc rd
  11  002C              _LI1:
  11  002C  1785        	sdz acc
  11  002D  2800     R  	jmp _LI2
  11  002E  0700     E  	mov a,rd
  11  002F  0080     R  	mov _PLT_SerialSend_2[16],a
  11  0030  0700     E  	mov a,re
  11  0031  0080     R  	mov _PLT_SerialSend_2[17],a
  11  0032  0700     E  	mov a,rd
  11  0033  0E01        	and a,1
  11  0034  0080     E  	mov rh,a
  11  0035  0700     R  	mov a,_PLT_SerialSend_2[18]
  11  0036  0300     E  	add a,rb
  11  0037  0083        	mov mp,a
  11  0038  0700     R  	mov a,_PLT_SerialSend_2[19]
  11  0039  1300     E  	adc a,rc
  11  003A  0084        	mov sbp,a
  11  003B  0700     E  	mov a,rh
  11  003C  0082        	mov ir,a
  10  003D              #line 10 "c:\users\tech\desktop\powerlinetransceiver\PLT\PLTSerialProtocol.c"
  10  003D  1480     E  	inc ra
  10  003E  1780     R  	sdz _PLT_SerialSend_2[14]
  10  003F  2800     R  	jmp _L8
"File: PLTSerialProtocol.c  Assembler  Version HGASM0202      Page 5

  13  0040              #line 13 "c:\users\tech\desktop\powerlinetransceiver\PLT\PLTSerialProtocol.c"
  13  0040  1080     E  	sz _tx_busy[0]
  13  0041  2800     R  	jmp _L12
  15  0042              #line 15 "c:\users\tech\desktop\powerlinetransceiver\PLT\PLTSerialProtocol.c"
  15  0042  0F01        	mov a,1
  15  0043  0080     E  	mov _tx_busy[0],a
  16  0044              #line 16 "c:\users\tech\desktop\powerlinetransceiver\PLT\PLTSerialProtocol.c"
  16  0044  0F00     R  	mov a,low offset _PLT_SerialSend_2
  16  0045  0080     E  	mov rd,a
  16  0046  0F00     R  	mov a,high offset _PLT_SerialSend_2
  16  0047  0080     E  	mov re,a
  16  0048  0F0C        	mov a,12
  16  0049  0300     E  	add a,rd
  16  004A  0080     R  	mov _calculate_parity_and_checksum_2[5],a
  16  004B  0F00        	mov a,0
  16  004C  1300     E  	adc a,re
  16  004D  0080     R  	mov _calculate_parity_and_checksum_2[6],a
  16  004E  0F0D        	mov a,13
  16  004F  0300     E  	add a,rd
  16  0050  0080     R  	mov _calculate_parity_and_checksum_2[3],a
  16  0051  0F00        	mov a,0
  16  0052  1300     E  	adc a,re
  16  0053  0080     R  	mov _calculate_parity_and_checksum_2[4],a
  16  0054  0F08        	mov a,8
  16  0055  0080     R  	mov _calculate_parity_and_checksum_2[2],a
  16  0056  0700     E  	mov a,rb
  16  0057  0080     R  	mov _calculate_parity_and_checksum_2[0],a
  16  0058  0700     E  	mov a,rc
  16  0059  0080     R  	mov _calculate_parity_and_checksum_2[1],a
  16  005A  2000     R  	call _calculate_parity_and_checksum
  16  005B  0F08        	mov a,8
  16  005C  0080     E  	mov rh,a
  16  005D  1F00     E  	clr rd
  16  005E  1F00     E  	clr re
  19  005F              #line 19 "c:\users\tech\desktop\powerlinetransceiver\PLT\PLTSerialProtocol.c"
  19  005F  1F00     E  	clr ra
  20  0060              #line 20 "c:\users\tech\desktop\powerlinetransceiver\PLT\PLTSerialProtocol.c"
  20  0060  0F00     R  	mov a,low offset _PLT_SerialSend_2
  20  0061  0080     E  	mov rb,a
  20  0062  0F00     R  	mov a,high offset _PLT_SerialSend_2
  20  0063  0080     E  	mov rc,a
  20  0064  0F04        	mov a,4
  20  0065  0300     E  	add a,rb
  20  0066  0080     R  	mov _PLT_SerialSend_2[14],a
  20  0067  0F00        	mov a,0
  20  0068  1300     E  	adc a,rc
  20  0069  0080     R  	mov _PLT_SerialSend_2[15],a
  20  006A              _L11:
  20  006A  0700     E  	mov a,ra
  20  006B  0080     E  	mov rf,a
  20  006C  1F00     E  	clr rg
  20  006D  3F85        	sz acc.7
  20  006E  1F80     E  	set rg
  20  006F  0700     E  	mov a,rf
  20  0070  0300     R  	add a,_PLT_SerialSend_2[14]
  20  0071  0083        	mov mp,a
  20  0072  0700     E  	mov a,rg
  20  0073  1300     R  	adc a,_PLT_SerialSend_2[15]
  20  0074  0084        	mov sbp,a
  20  0075  2000     E  	call _Crom2Prom
"File: PLTSerialProtocol.c  Assembler  Version HGASM0202      Page 6

  20  0076  0080     E  	mov rb,a
  20  0077  0F01        	mov a,1
  20  0078  0680     E  	andm a,rb
  20  0079  1F00     E  	clr rc
  20  007A  3C00     E  	sz rb.7
  20  007B  1F80     E  	set rc
  20  007C  1480     E  	inc rf
  20  007D  3D0A        	sz z
  20  007E  1480     E  	inc rg
  20  007F  1400     E  	inca rf
  20  0080  2800     R  	jmp _LI3
  20  0081              _LI4:
  20  0081  340A        	clr c
  20  0082  1A80     E  	rlc rb
  20  0083  1A80     E  	rlc rc
  20  0084              _LI3:
  20  0084  1785        	sdz acc
  20  0085  2800     R  	jmp _LI4
  20  0086  0700     E  	mov a,rc
  20  0087  0580     E  	orm a,re
  20  0088  0700     E  	mov a,rb
  20  0089  0580     E  	orm a,rd
  19  008A              #line 19 "c:\users\tech\desktop\powerlinetransceiver\PLT\PLTSerialProtocol.c"
  19  008A  1480     E  	inc ra
  19  008B  1780     E  	sdz rh
  19  008C  2800     R  	jmp _L11
  23  008D              #line 23 "c:\users\tech\desktop\powerlinetransceiver\PLT\PLTSerialProtocol.c"
  23  008D  0700     R  	mov a,_PLT_SerialSend_2[13]
  23  008E  0080     E  	mov rf,a
  23  008F  1F00     E  	clr rg
  23  0090  3F85        	sz acc.7
  23  0091  1F80     E  	set rg
  23  0092  340A        	clr c
  23  0093  1A00     E  	rlca rf
  23  0094  0080     E  	mov rg,a
  23  0095  1F00     E  	clr rf
  25  0096              #line 25 "c:\users\tech\desktop\powerlinetransceiver\PLT\PLTSerialProtocol.c"
  25  0096  0700     R  	mov a,_PLT_SerialSend_2[12]
  25  0097  0080     E  	mov rb,a
  25  0098  1F00     E  	clr rc
  25  0099  3F85        	sz acc.7
  25  009A  1F80     E  	set rc
  25  009B  1100     E  	swapa rb
  25  009C  1985        	rr acc
  25  009D  0EF8        	and a,0f8h
  25  009E  0080     E  	mov rc,a
  25  009F  1F00     E  	clr rb
  23  00A0              #line 23 "c:\users\tech\desktop\powerlinetransceiver\PLT\PLTSerialProtocol.c"
  23  00A0  0700     E  	mov a,rg
  23  00A1  0580     E  	orm a,rc
  23  00A2  0700     E  	mov a,rf
  23  00A3  0580     E  	orm a,rb
  24  00A4              #line 24 "c:\users\tech\desktop\powerlinetransceiver\PLT\PLTSerialProtocol.c"
  24  00A4  0F04        	mov a,4
  24  00A5  0580     E  	orm a,rc
  24  00A6  0F00        	mov a,0
  24  00A7  0580     E  	orm a,rb
  25  00A8              #line 25 "c:\users\tech\desktop\powerlinetransceiver\PLT\PLTSerialProtocol.c"
  25  00A8  0700     E  	mov a,rc
  25  00A9  0580     E  	orm a,re
"File: PLTSerialProtocol.c  Assembler  Version HGASM0202      Page 7

  25  00AA  0700     E  	mov a,rb
  25  00AB  0580     E  	orm a,rd
  25  00AC  0700     R  	mov a,_PLT_SerialSend_2[2]
  25  00AD  0083        	mov mp,a
  25  00AE  0700     R  	mov a,_PLT_SerialSend_2[3]
  25  00AF  0084        	mov sbp,a
  25  00B0  0700     E  	mov a,rd
  25  00B1  0082        	mov ir,a
  25  00B2  1483        	inc mp
  25  00B3  0700     E  	mov a,re
  25  00B4  0082        	mov ir,a
  26  00B5              #line 26 "c:\users\tech\desktop\powerlinetransceiver\PLT\PLTSerialProtocol.c"
  26  00B5  0F2C        	mov a,44
  26  00B6  2000     E  	call _EnableInterrupt
  27  00B7              #line 27 "c:\users\tech\desktop\powerlinetransceiver\PLT\PLTSerialProtocol.c"
  27  00B7  0F01        	mov a,1
  27  00B8  0080     E  	mov ra,a
  27  00B9  1F00     E  	clr rb
  27  00BA  2800     R  	jmp _L9
  27  00BB              _L12:
  31  00BB              #line 31 "c:\users\tech\desktop\powerlinetransceiver\PLT\PLTSerialProtocol.c"
  31  00BB  1F00     E  	clr ra
  31  00BC  1F00     E  	clr rb
  31  00BD              _L9:
  31  00BD  0003        	ret
  31  00BE              _PLT_SerialSend endp
  31  00BE              #line 31 "c:\users\tech\desktop\powerlinetransceiver\PLT\PLTSerialProtocol.c"
  31  00BE              #pragma debug scope 1 1
  31  00BE              ___pbc equ [25]
  31  00BE              ___pbs0 equ [78]
  31  00BE              ___pbpu equ [26]
  31  00BE              public _PLT_SerialInit
  31  00BE              #pragma debug scope 4 1
  47  00BE              #line 47 "c:\users\tech\desktop\powerlinetransceiver\PLT\PLTSerialProtocol.c"
  47  0000              _PLT_SerialInit .section 'code'
  47  0000              _PLT_SerialInit proc
  47  0000              public _PLT_SerialInit_2
  47  0000  0002[           local _PLT_SerialInit_2 db 2 dup(?)	; 2,0
            00
            ]
  47  0002              #pragma debug variable 12 4 _PLT_SerialInit_2+0 "baudrate"
  49  0002              #line 49 "c:\users\tech\desktop\powerlinetransceiver\PLT\PLTSerialProtocol.c"
  49  0000  3499        	clr [25].1
  50  0001              #line 50 "c:\users\tech\desktop\powerlinetransceiver\PLT\PLTSerialProtocol.c"
  50  0001  354E        	clr [78].2
  51  0002              #line 51 "c:\users\tech\desktop\powerlinetransceiver\PLT\PLTSerialProtocol.c"
  51  0002  35CE        	clr [78].3
  52  0003              #line 52 "c:\users\tech\desktop\powerlinetransceiver\PLT\PLTSerialProtocol.c"
  52  0003  349A        	clr [26].1
  52  0004  0003        	ret
  52  0005              _PLT_SerialInit endp
  52  0005              #line 52 "c:\users\tech\desktop\powerlinetransceiver\PLT\PLTSerialProtocol.c"
  52  0005              #pragma debug scope 1 1
  52  0005              ___pb equ [24]
  52  0005              public _PLT_HandelSerialTransmit
  52  0005              #pragma debug scope 5 1
  61  0005              #line 61 "c:\users\tech\desktop\powerlinetransceiver\PLT\PLTSerialProtocol.c"
  61  0000              _PLT_HandelSerialTransmit .section 'code'
  61  0000              _PLT_HandelSerialTransmit proc
  63  0000              #line 63 "c:\users\tech\desktop\powerlinetransceiver\PLT\PLTSerialProtocol.c"
"File: PLTSerialProtocol.c  Assembler  Version HGASM0202      Page 8

  63  0000  0700     E  	mov a,_frame[0]
  63  0001  0083        	mov mp,a
  63  0002  0700     E  	mov a,_frame[1]
  63  0003  0084        	mov sbp,a
  63  0004  2000     E  	call _Crom2Prom
  63  0005  0080     E  	mov rb,a
  63  0006  2000     E  	call _Crom2PromNext
  63  0007  0080     E  	mov rc,a
  63  0008  3800     E  	snz rb.0
  63  0009  2800     R  	jmp _L15
  63  000A              #line 63 "c:\users\tech\desktop\powerlinetransceiver\PLT\PLTSerialProtocol.c"
  63  000A  3098        	set [24].1
  63  000B  2800     R  	jmp _L16
  63  000C              _L15:
  66  000C              #line 66 "c:\users\tech\desktop\powerlinetransceiver\PLT\PLTSerialProtocol.c"
  66  000C  3498        	clr [24].1
  67  000D              #line 67 "c:\users\tech\desktop\powerlinetransceiver\PLT\PLTSerialProtocol.c"
  67  000D  0700     E  	mov a,rb
  67  000E  0500     E  	or a,rc
  67  000F  390A        	snz z
  67  0010  2800     R  	jmp _L16
  67  0011  0F07        	mov a,7
  67  0012  0080     E  	mov ra,a
  67  0013              _L18:
  67  0013              #pragma debug scope 6 5
  67  0013              ;begin block, line: 67.-1
  70  0013              #line 70 "c:\users\tech\desktop\powerlinetransceiver\PLT\PLTSerialProtocol.c"
  70  0013              ;# 70 "c:\users\tech\desktop\powerlinetransceiver\PLT\PLTSerialProtocol.c" 1
  70  0013  0000        	nop
  70  0014  1780     E  	sdz ra
  70  0015  2800     R  	jmp _L18
  71  0016              #line 71 "c:\users\tech\desktop\powerlinetransceiver\PLT\PLTSerialProtocol.c"
  71  0016  0F2C        	mov a,44
  71  0017  2000     E  	call _DisableInterrupt
  72  0018              #line 72 "c:\users\tech\desktop\powerlinetransceiver\PLT\PLTSerialProtocol.c"
  72  0018  3098        	set [24].1
  73  0019              #line 73 "c:\users\tech\desktop\powerlinetransceiver\PLT\PLTSerialProtocol.c"
  73  0019  1F00     E  	clr _tx_busy[0]
  73  001A              _L16:
  73  001A              #pragma debug scope 5 1
  78  001A              #line 78 "c:\users\tech\desktop\powerlinetransceiver\PLT\PLTSerialProtocol.c"
  78  001A  0700     E  	mov a,_frame[0]
  78  001B  0080     E  	mov rb,a
  78  001C  0700     E  	mov a,_frame[1]
  78  001D  0080     E  	mov rc,a
  78  001E  0700     E  	mov a,rb
  78  001F  0083        	mov mp,a
  78  0020  0700     E  	mov a,rc
  78  0021  0084        	mov sbp,a
  78  0022  2000     E  	call _Crom2Prom
  78  0023  0080     E  	mov rd,a
  78  0024  2000     E  	call _Crom2PromNext
  78  0025  0080     E  	mov re,a
  78  0026  340A        	clr c
  78  0027  1B80     E  	rrc re
  78  0028  1B80     E  	rrc rd
  78  0029  0700     E  	mov a,rb
  78  002A  0083        	mov mp,a
  78  002B  0700     E  	mov a,rc
  78  002C  0084        	mov sbp,a
"File: PLTSerialProtocol.c  Assembler  Version HGASM0202      Page 9

  78  002D  0700     E  	mov a,rd
  78  002E  0082        	mov ir,a
  78  002F  1483        	inc mp
  78  0030  0700     E  	mov a,re
  78  0031  0082        	mov ir,a
  78  0032  0003        	ret
  78  0033              _PLT_HandelSerialTransmit endp
  78  0033              #line 78 "c:\users\tech\desktop\powerlinetransceiver\PLT\PLTSerialProtocol.c"
  78  0033              #pragma debug scope 1 1

  44  0033              #line 44 "C:\Users\Tech\Desktop\PowerLineTransceiver\PLT/PLTSerialProtocol.h"
  44  0033              public _timerCuonter
  44  0000              @HCCINIT0_timerCuonter .section 'data'
  44  0000  0002[       _timerCuonter	db 2 dup(0)
            00
            ]
  44  0002              #pragma debug variable 12 1 _timerCuonter "timerCuonter"
  44  0002              
  44  0000              @HCCINIT .section 'data'
  44  0000              public _txCounter
  44  0000              @HCCINIT	.section 'data'
  41  0000              #line 41 "C:\Users\Tech\Desktop\PowerLineTransceiver\PLT/PLTSerialProtocol.h"
  41  0000              @HCCINIT_txCounter .section 'data'
  41  0000              _txCounter label byte
  41  0000              #pragma debug variable 7 1 _txCounter "txCounter"
  41  0000              	db 8
  41  0000              @ROMDATA_BASE .section inpage 'code'
  41  0000              	db 8
  41  0001              @HCCINIT_txCounter .section 'data'
  41  0001              public _TranferBit
  40  0001              #line 40 "C:\Users\Tech\Desktop\PowerLineTransceiver\PLT/PLTSerialProtocol.h"
  40  0000              @HCCINIT_TranferBit .section 'data'
  40  0000              _TranferBit label byte
  40  0000              #pragma debug variable 7 1 _TranferBit "TranferBit"
  40  0000              	db 0
  40  0001              @ROMDATA_BASE .section inpage 'code'
  40  0001              	db 0
  40  0001              @HCCINIT_TranferBit .section 'data'
  40  0001              public _IndexOfBit
  22  0001              #line 22 "C:\Users\Tech\Desktop\PowerLineTransceiver\PLT/PLTSerialProtocol.h"
  22  0000              @HCCINIT_IndexOfBit .section 'data'
  22  0000              _IndexOfBit label byte
  22  0000              #pragma debug variable 7 1 _IndexOfBit "IndexOfBit"
  22  0000              	db 0
  22  0001              @ROMDATA_BASE .section inpage 'code'
  22  0001              	db 0
  22  0001              @HCCINIT_IndexOfBit .section 'data'
  22  0001              #pragma debug struct_end
  22  0001              #pragma debug struct_end
  22  0001              #pragma debug union_end
  22  0001              #pragma debug union_end
  22  0001              #pragma debug variable 47 1 ___pb "__pb" 1
  22  0001              #pragma debug struct_end
  22  0001              #pragma debug struct_end
  22  0001              #pragma debug union_end
  22  0001              #pragma debug union_end
  22  0001              #pragma debug variable 49 1 ___pbc "__pbc" 1
  22  0001              #pragma debug struct_end
  22  0001              #pragma debug struct_end
  22  0001              #pragma debug union_end
"File: PLT/PLTSerialProtocol.h  Assembler  Version HGASM0202      Page 10

  22  0001              #pragma debug union_end
  22  0001              #pragma debug variable 51 1 ___pbpu "__pbpu" 1
  22  0001              #pragma debug struct_end
  22  0001              #pragma debug struct_end
  22  0001              #pragma debug union_end
  22  0001              #pragma debug union_end
  22  0001              #pragma debug variable 53 1 ___pbs0 "__pbs0" 1
  22  0001              
  22  0001              ; output external variables
  22  0001              extern _frame:byte
  22  0001              extern _tx_busy:byte
  22  0001              extern _EnableInterrupt:near
  22  0001              extern _DisableInterrupt:near
  22  0001              
  22  0001              ; 
  22  0001              ; Generated by holtek-gcc v3.19, Mon Aug 26 16:58:32 2024
  22  0001              ; Rebuild 718
  22  0001              ; end of file


        0 Errors, 0