"File: SmokeDetector.c  Assembler  Version HGASM0202      Page 1


   1  0000              ; Generated by holtek-gcc v3.19, Sat Nov 30 17:42:17 2024
   2  0000              ; 
   3  0000              ; Configuration:
   4  0000              ;       with long instruction
   5  0000              ;       Single ROM, Multi-RAM
   6  0000              ;       bits_per_rom_unit:16
   7  0000              ;       with mp1
   8  0000              ;       with tbhp, address(0x9)
   9  0000              ;          Use tabrd-const
  10  0000              ;       
  11  0000              ; SFR address of long-instruction arch:
  12  0000              ;    mp0 = -1,1,0
  13  0000              ;    mp1 = 4,3,2
  14  0000              ;    mp2 = 14,13,12
  15  0000              ;    tbp = 9,7,8
  16  0000              ;    acc = 5
  17  0000              ;    pcl = 6
  18  0000              ;    status = 10
  19  0000              ;    bp = 11
  20  0000              ;    intc = 72
  21  0000              ;       
  22  0000              ;       
  23  0000              ; use 'tabrdc' instead of 'tabrd'
  24  0000              ;       
  25  0000              
  26  0000              #pragma translator "holtek-gcc 4.6.4" "3.19" "build 20130711"
  27  0000              ; Rebuild 718
  28  0000              
  29  0000              ir equ [2]
  30  0000              mp equ [3]
  31  0000              sbp equ [4]
  32  0000              acc equ [5]
  33  0000              bp equ [11]
  34  0000              tblp equ [7]
  35  0000              tbhp equ [9]
  36  0000              status equ [10]
  37  0000              c equ [10].0
  38  0000              ac equ [10].1
  39  0000              z equ [10].2
  40  0000              ov equ [10].3
  41  0000              cz equ [10].6
  42  0000              sc equ [10].7
  43  0000              intc equ [72]
  44  0000              
  45  0000              extern ra:byte
  46  0000              extern rb:byte
  47  0000              extern rc:byte
  48  0000              extern rd:byte
  49  0000              extern re:byte
  50  0000              extern rf:byte
  51  0000              extern rg:byte
  52  0000              extern rh:byte
  53  0000              extern _Crom2Prom:near
  54  0000              extern _Crom2PromNext:near
  55  0000              
  56  0000              RAMBANK 0 @BITDATASEC, @BITDATASEC1
  57  0000              @HCCINIT	.section 'data'
  58  0000              @HCCINIT0	.section 'data'
  59  0000              @BITDATASEC	 .section 'data'
"File: SmokeDetector.ASM  Assembler  Version HGASM0202      Page 2

  60  0000              @BITDATASEC1	 .section 'data'
  61  0000              
  62  0000              #pragma debug scope 1 1
  63  0000              	extern __DELAY3:near
  64  0000              	extern __DELAYX3:near
  65  0000              	extern __DELAYX6:near
  66  0000              	extern __DELAYY5:near
  67  0000              	extern __DELAYY3:near
  68  0000              	extern _builtin_holtek_delay_2:byte
  69  0000              ___isgdata0 equ [94]
  70  0000              ___sdpgac0 equ [33]
  71  0000              ___sdpgac1 equ [34]
  72  0000              ___sda0c equ [35]
  73  0000              ___sda1c equ [37]
  74  0000              ___sdsw equ [32]
  75  0000              public _InitOPA
  76  0000              #pragma debug scope 2 1

  24  0000              #line 24 "c:\users\tech\desktop\powerlinetransceiver\SmokeDetector\SmokeDetector.c"
  24  0000              _InitOPA .section 'code'
  24  0000              _InitOPA proc
  25  0000              #line 25 "c:\users\tech\desktop\powerlinetransceiver\SmokeDetector\SmokeDetector.c"
  25  0000  0F07        	mov a,7
  25  0001  00DE        	mov [94],a
  26  0002              #line 26 "c:\users\tech\desktop\powerlinetransceiver\SmokeDetector\SmokeDetector.c"
  26  0002  0F14        	mov a,20
  26  0003  00A1        	mov [33],a
  27  0004              #line 27 "c:\users\tech\desktop\powerlinetransceiver\SmokeDetector\SmokeDetector.c"
  27  0004  0F19        	mov a,25
  27  0005  00A2        	mov [34],a
  28  0006              #line 28 "c:\users\tech\desktop\powerlinetransceiver\SmokeDetector\SmokeDetector.c"
  28  0006  0F43        	mov a,67
  28  0007  00A3        	mov [35],a
  29  0008              #line 29 "c:\users\tech\desktop\powerlinetransceiver\SmokeDetector\SmokeDetector.c"
  29  0008  0F43        	mov a,67
  29  0009  00A5        	mov [37],a
  30  000A              #line 30 "c:\users\tech\desktop\powerlinetransceiver\SmokeDetector\SmokeDetector.c"
  30  000A  0F77        	mov a,119
  30  000B  00A0        	mov [32],a
  30  000C  0003        	ret
  30  000D              _InitOPA endp
  30  000D              #line 30 "c:\users\tech\desktop\powerlinetransceiver\SmokeDetector\SmokeDetector.c"
  30  000D              #pragma debug scope 1 1
  30  000D              ___isgenc equ [93]
  30  000D              ___isgdata1 equ [95]
  30  000D              public _InitISINK
  30  000D              #pragma debug scope 3 1
  35  000D              #line 35 "c:\users\tech\desktop\powerlinetransceiver\SmokeDetector\SmokeDetector.c"
  35  0000              _InitISINK .section 'code'
  35  0000              _InitISINK proc
  36  0000              #line 36 "c:\users\tech\desktop\powerlinetransceiver\SmokeDetector\SmokeDetector.c"
  36  0000  33DD        	set [93].7
  37  0001              #line 37 "c:\users\tech\desktop\powerlinetransceiver\SmokeDetector\SmokeDetector.c"
  37  0001  305D        	set [93].0
  38  0002              #line 38 "c:\users\tech\desktop\powerlinetransceiver\SmokeDetector\SmokeDetector.c"
  38  0002  0F01        	mov a,1
  38  0003  00DE        	mov [94],a
  40  0004              #line 40 "c:\users\tech\desktop\powerlinetransceiver\SmokeDetector\SmokeDetector.c"
  40  0004  1F00     E  	clr ra
  40  0005  3CDD        	sz [93].1
"File: SmokeDetector.c  Assembler  Version HGASM0202      Page 3

  40  0006  1480     E  	inc ra
  40  0007  0700     E  	mov a,ra
  40  0008  0380     E  	addm a,ra
  40  0009  34DD        	clr [93].1
  40  000A  0700     E  	mov a,ra
  40  000B  05DD        	orm a,[93]
  41  000C              #line 41 "c:\users\tech\desktop\powerlinetransceiver\SmokeDetector\SmokeDetector.c"
  41  000C  305F        	set [95].0
  41  000D  0003        	ret
  41  000E              _InitISINK endp
  41  000E              #line 41 "c:\users\tech\desktop\powerlinetransceiver\SmokeDetector\SmokeDetector.c"
  41  000E              #pragma debug scope 1 1
  41  000E              ___sda0vos equ [36]
  41  000E              public _CalibrateOPA0
  41  000E              #pragma debug scope 4 1
  47  000E              #line 47 "c:\users\tech\desktop\powerlinetransceiver\SmokeDetector\SmokeDetector.c"
  47  0000              _CalibrateOPA0 .section 'code'
  47  0000              _CalibrateOPA0 proc
  51  0000              #line 51 "c:\users\tech\desktop\powerlinetransceiver\SmokeDetector\SmokeDetector.c"
  51  0000  1FA4        	set [36]
  51  0001              _L8:
  56  0001              #line 56 "c:\users\tech\desktop\powerlinetransceiver\SmokeDetector\SmokeDetector.c"
  56  0001              ;# 56 "c:\users\tech\desktop\powerlinetransceiver\SmokeDetector\SmokeDetector.c" 1
  56  0001              	IF 2000>263690
  56  0001              ;# 56 "c:\users\tech\desktop\powerlinetransceiver\SmokeDetector\SmokeDetector.c" 1
  56  0001              	ERRMESSAGE 'the value 2000of the argument exceeds the maxinum 263690'
  56  0001              	ENDIF
  56  0001              ;# 56 "c:\users\tech\desktop\powerlinetransceiver\SmokeDetector\SmokeDetector.c" 1
  56  0001              	IF 2000<0
  56  0001              ;# 56 "c:\users\tech\desktop\powerlinetransceiver\SmokeDetector\SmokeDetector.c" 1
  56  0001              	ERRMESSAGE 'the value 2000 of the argument exceeds the mininum 0'
  56  0001              	ENDIF
  56  0001              ;# 56 "c:\users\tech\desktop\powerlinetransceiver\SmokeDetector\SmokeDetector.c" 1
  56  0001              	IF 2000==0
  56  0001              ;# 56 "c:\users\tech\desktop\powerlinetransceiver\SmokeDetector\SmokeDetector.c" 1
  56  0001              	JMP $
  56  0001              	ENDIF
  56  0001              ;# 56 "c:\users\tech\desktop\powerlinetransceiver\SmokeDetector\SmokeDetector.c" 1
  56  0001              	IF 2000==1
  56  0001              ;# 56 "c:\users\tech\desktop\powerlinetransceiver\SmokeDetector\SmokeDetector.c" 1
  56  0001              	NOP
  56  0001              	ENDIF
  56  0001              ;# 56 "c:\users\tech\desktop\powerlinetransceiver\SmokeDetector\SmokeDetector.c" 1
  56  0001              	IF 2000==2
  56  0001              ;# 56 "c:\users\tech\desktop\powerlinetransceiver\SmokeDetector\SmokeDetector.c" 1
  56  0001              	NOP
  56  0001              ;# 56 "c:\users\tech\desktop\powerlinetransceiver\SmokeDetector\SmokeDetector.c" 1
  56  0001              	NOP
  56  0001              	ENDIF
  56  0001              ;# 56 "c:\users\tech\desktop\powerlinetransceiver\SmokeDetector\SmokeDetector.c" 1
  56  0001              	IF 2000==3
  56  0001              ;# 56 "c:\users\tech\desktop\powerlinetransceiver\SmokeDetector\SmokeDetector.c" 1
  56  0001              	NOP
  56  0001              ;# 56 "c:\users\tech\desktop\powerlinetransceiver\SmokeDetector\SmokeDetector.c" 1
  56  0001              	NOP
  56  0001              ;# 56 "c:\users\tech\desktop\powerlinetransceiver\SmokeDetector\SmokeDetector.c" 1
  56  0001              	NOP
  56  0001              	ENDIF
  56  0001              ;# 56 "c:\users\tech\desktop\powerlinetransceiver\SmokeDetector\SmokeDetector.c" 1
  56  0001              	IF (2000<8) AND (2000>3)
"File: SmokeDetector.c  Assembler  Version HGASM0202      Page 4

  56  0001              ;# 56 "c:\users\tech\desktop\powerlinetransceiver\SmokeDetector\SmokeDetector.c" 1
  56  0001              	CALL __DELAY3 + 7 -2000
  56  0001              	ENDIF
  56  0001              ;# 56 "c:\users\tech\desktop\powerlinetransceiver\SmokeDetector\SmokeDetector.c" 1
  56  0001              	IF (2000< 0404h) AND (2000>7)
  56  0001              ;# 56 "c:\users\tech\desktop\powerlinetransceiver\SmokeDetector\SmokeDetector.c" 1
  56  0001              	MOV A,2000/4-1
  56  0001              ;# 56 "c:\users\tech\desktop\powerlinetransceiver\SmokeDetector\SmokeDetector.c" 1
  56  0001              	CALL __DELAYX3 + 3 -(2000 MOD 4)
  56  0001              	ENDIF
  56  0001              ;# 56 "c:\users\tech\desktop\powerlinetransceiver\SmokeDetector\SmokeDetector.c" 1
  56  0001              	IF (2000< 0x40B) AND (2000> 0403h)
  56  0001              ;# 56 "c:\users\tech\desktop\powerlinetransceiver\SmokeDetector\SmokeDetector.c" 1
  56  0001              	MOV A,0 
  56  0001              ;# 56 "c:\users\tech\desktop\powerlinetransceiver\SmokeDetector\SmokeDetector.c" 1
  56  0001              	CALL __DELAYX6 + 0x40a -2000
  56  0001              	ENDIF
  56  0001              ;# 56 "c:\users\tech\desktop\powerlinetransceiver\SmokeDetector\SmokeDetector.c" 1
  56  0001              	IF (2000 >= 0x40b) AND ((((2000-9)%0402h)/4+1)>256)
  56  0001              ;# 56 "c:\users\tech\desktop\powerlinetransceiver\SmokeDetector\SmokeDetector.c" 1
  56  0001              	MOV A,(2000-9)/0402h
  56  0001              ;# 56 "c:\users\tech\desktop\powerlinetransceiver\SmokeDetector\SmokeDetector.c" 1
  56  0001              	MOV _builtin_holtek_delay_2,A
  56  0001              ;# 56 "c:\users\tech\desktop\powerlinetransceiver\SmokeDetector\SmokeDetector.c" 1
  56  0001              	MOV A,0
  56  0001              ;# 56 "c:\users\tech\desktop\powerlinetransceiver\SmokeDetector\SmokeDetector.c" 1
  56  0001              	CALL __DELAYY5 +5- (((2000-9)%0402h)%6)
  56  0001              	ENDIF
  56  0001              ;# 56 "c:\users\tech\desktop\powerlinetransceiver\SmokeDetector\SmokeDetector.c" 1
  56  0001              	IF (2000 >= 0x40b) AND ((((2000-9)%0402h)/4+1)<=256)
  56  0001              ;# 56 "c:\users\tech\desktop\powerlinetransceiver\SmokeDetector\SmokeDetector.c" 1
  56  0001  0F01        	MOV A,(2000-9)/0402h
  56  0002              ;# 56 "c:\users\tech\desktop\powerlinetransceiver\SmokeDetector\SmokeDetector.c" 1
  56  0002  0080     E  	MOV _builtin_holtek_delay_2,A
  56  0003              ;# 56 "c:\users\tech\desktop\powerlinetransceiver\SmokeDetector\SmokeDetector.c" 1
  56  0003  0FF2        	MOV A,((2000-9)%0402h)/4+1
  56  0004              ;# 56 "c:\users\tech\desktop\powerlinetransceiver\SmokeDetector\SmokeDetector.c" 1
  56  0004  2000     E  	CALL __DELAYY3 +3-(((2000-9)%0402h)%4)
  56  0005              	ENDIF
  53  0005              #line 53 "c:\users\tech\desktop\powerlinetransceiver\SmokeDetector\SmokeDetector.c"
  53  0005  3AA3        	snz [35].5
  53  0006  2800     R  	jmp _L11
  55  0007              #line 55 "c:\users\tech\desktop\powerlinetransceiver\SmokeDetector\SmokeDetector.c"
  55  0007  15A4        	dec [36]
  55  0008  2800     R  	jmp _L8
  55  0009              _L11:
  58  0009              #line 58 "c:\users\tech\desktop\powerlinetransceiver\SmokeDetector\SmokeDetector.c"
  58  0009  0724        	mov a,[36]
  58  000A  0E3F        	and a,63
  58  000B  0080     E  	mov ra,a
  59  000C              #line 59 "c:\users\tech\desktop\powerlinetransceiver\SmokeDetector\SmokeDetector.c"
  59  000C  0FC0        	mov a,192
  59  000D  00A4        	mov [36],a
  59  000E              _L9:
  64  000E              #line 64 "c:\users\tech\desktop\powerlinetransceiver\SmokeDetector\SmokeDetector.c"
  64  000E              ;# 64 "c:\users\tech\desktop\powerlinetransceiver\SmokeDetector\SmokeDetector.c" 1
  64  000E              	IF 2000>263690
  64  000E              ;# 64 "c:\users\tech\desktop\powerlinetransceiver\SmokeDetector\SmokeDetector.c" 1
  64  000E              	ERRMESSAGE 'the value 2000of the argument exceeds the maxinum 263690'
  64  000E              	ENDIF
"File: SmokeDetector.c  Assembler  Version HGASM0202      Page 5

  64  000E              ;# 64 "c:\users\tech\desktop\powerlinetransceiver\SmokeDetector\SmokeDetector.c" 1
  64  000E              	IF 2000<0
  64  000E              ;# 64 "c:\users\tech\desktop\powerlinetransceiver\SmokeDetector\SmokeDetector.c" 1
  64  000E              	ERRMESSAGE 'the value 2000 of the argument exceeds the mininum 0'
  64  000E              	ENDIF
  64  000E              ;# 64 "c:\users\tech\desktop\powerlinetransceiver\SmokeDetector\SmokeDetector.c" 1
  64  000E              	IF 2000==0
  64  000E              ;# 64 "c:\users\tech\desktop\powerlinetransceiver\SmokeDetector\SmokeDetector.c" 1
  64  000E              	JMP $
  64  000E              	ENDIF
  64  000E              ;# 64 "c:\users\tech\desktop\powerlinetransceiver\SmokeDetector\SmokeDetector.c" 1
  64  000E              	IF 2000==1
  64  000E              ;# 64 "c:\users\tech\desktop\powerlinetransceiver\SmokeDetector\SmokeDetector.c" 1
  64  000E              	NOP
  64  000E              	ENDIF
  64  000E              ;# 64 "c:\users\tech\desktop\powerlinetransceiver\SmokeDetector\SmokeDetector.c" 1
  64  000E              	IF 2000==2
  64  000E              ;# 64 "c:\users\tech\desktop\powerlinetransceiver\SmokeDetector\SmokeDetector.c" 1
  64  000E              	NOP
  64  000E              ;# 64 "c:\users\tech\desktop\powerlinetransceiver\SmokeDetector\SmokeDetector.c" 1
  64  000E              	NOP
  64  000E              	ENDIF
  64  000E              ;# 64 "c:\users\tech\desktop\powerlinetransceiver\SmokeDetector\SmokeDetector.c" 1
  64  000E              	IF 2000==3
  64  000E              ;# 64 "c:\users\tech\desktop\powerlinetransceiver\SmokeDetector\SmokeDetector.c" 1
  64  000E              	NOP
  64  000E              ;# 64 "c:\users\tech\desktop\powerlinetransceiver\SmokeDetector\SmokeDetector.c" 1
  64  000E              	NOP
  64  000E              ;# 64 "c:\users\tech\desktop\powerlinetransceiver\SmokeDetector\SmokeDetector.c" 1
  64  000E              	NOP
  64  000E              	ENDIF
  64  000E              ;# 64 "c:\users\tech\desktop\powerlinetransceiver\SmokeDetector\SmokeDetector.c" 1
  64  000E              	IF (2000<8) AND (2000>3)
  64  000E              ;# 64 "c:\users\tech\desktop\powerlinetransceiver\SmokeDetector\SmokeDetector.c" 1
  64  000E              	CALL __DELAY3 + 7 -2000
  64  000E              	ENDIF
  64  000E              ;# 64 "c:\users\tech\desktop\powerlinetransceiver\SmokeDetector\SmokeDetector.c" 1
  64  000E              	IF (2000< 0404h) AND (2000>7)
  64  000E              ;# 64 "c:\users\tech\desktop\powerlinetransceiver\SmokeDetector\SmokeDetector.c" 1
  64  000E              	MOV A,2000/4-1
  64  000E              ;# 64 "c:\users\tech\desktop\powerlinetransceiver\SmokeDetector\SmokeDetector.c" 1
  64  000E              	CALL __DELAYX3 + 3 -(2000 MOD 4)
  64  000E              	ENDIF
  64  000E              ;# 64 "c:\users\tech\desktop\powerlinetransceiver\SmokeDetector\SmokeDetector.c" 1
  64  000E              	IF (2000< 0x40B) AND (2000> 0403h)
  64  000E              ;# 64 "c:\users\tech\desktop\powerlinetransceiver\SmokeDetector\SmokeDetector.c" 1
  64  000E              	MOV A,0 
  64  000E              ;# 64 "c:\users\tech\desktop\powerlinetransceiver\SmokeDetector\SmokeDetector.c" 1
  64  000E              	CALL __DELAYX6 + 0x40a -2000
  64  000E              	ENDIF
  64  000E              ;# 64 "c:\users\tech\desktop\powerlinetransceiver\SmokeDetector\SmokeDetector.c" 1
  64  000E              	IF (2000 >= 0x40b) AND ((((2000-9)%0402h)/4+1)>256)
  64  000E              ;# 64 "c:\users\tech\desktop\powerlinetransceiver\SmokeDetector\SmokeDetector.c" 1
  64  000E              	MOV A,(2000-9)/0402h
  64  000E              ;# 64 "c:\users\tech\desktop\powerlinetransceiver\SmokeDetector\SmokeDetector.c" 1
  64  000E              	MOV _builtin_holtek_delay_2,A
  64  000E              ;# 64 "c:\users\tech\desktop\powerlinetransceiver\SmokeDetector\SmokeDetector.c" 1
  64  000E              	MOV A,0
  64  000E              ;# 64 "c:\users\tech\desktop\powerlinetransceiver\SmokeDetector\SmokeDetector.c" 1
  64  000E              	CALL __DELAYY5 +5- (((2000-9)%0402h)%6)
"File: SmokeDetector.c  Assembler  Version HGASM0202      Page 6

  64  000E              	ENDIF
  64  000E              ;# 64 "c:\users\tech\desktop\powerlinetransceiver\SmokeDetector\SmokeDetector.c" 1
  64  000E              	IF (2000 >= 0x40b) AND ((((2000-9)%0402h)/4+1)<=256)
  64  000E              ;# 64 "c:\users\tech\desktop\powerlinetransceiver\SmokeDetector\SmokeDetector.c" 1
  64  000E  0F01        	MOV A,(2000-9)/0402h
  64  000F              ;# 64 "c:\users\tech\desktop\powerlinetransceiver\SmokeDetector\SmokeDetector.c" 1
  64  000F  0080     E  	MOV _builtin_holtek_delay_2,A
  64  0010              ;# 64 "c:\users\tech\desktop\powerlinetransceiver\SmokeDetector\SmokeDetector.c" 1
  64  0010  0FF2        	MOV A,((2000-9)%0402h)/4+1
  64  0011              ;# 64 "c:\users\tech\desktop\powerlinetransceiver\SmokeDetector\SmokeDetector.c" 1
  64  0011  2000     E  	CALL __DELAYY3 +3-(((2000-9)%0402h)%4)
  64  0012              	ENDIF
  61  0012              #line 61 "c:\users\tech\desktop\powerlinetransceiver\SmokeDetector\SmokeDetector.c"
  61  0012  3EA3        	sz [35].5
  61  0013  2800     R  	jmp _L12
  63  0014              #line 63 "c:\users\tech\desktop\powerlinetransceiver\SmokeDetector\SmokeDetector.c"
  63  0014  14A4        	inc [36]
  63  0015  2800     R  	jmp _L9
  63  0016              _L12:
  66  0016              #line 66 "c:\users\tech\desktop\powerlinetransceiver\SmokeDetector\SmokeDetector.c"
  66  0016  0724        	mov a,[36]
  66  0017  0E3F        	and a,63
  66  0018  0080     E  	mov rb,a
  67  0019              #line 67 "c:\users\tech\desktop\powerlinetransceiver\SmokeDetector\SmokeDetector.c"
  67  0019  0700     E  	mov a,rb
  67  001A  0380     E  	addm a,ra
  67  001B  1B80     E  	rrc ra
  67  001C  0700     E  	mov a,ra
  67  001D  00A4        	mov [36],a
  67  001E  0003        	ret
  67  001F              _CalibrateOPA0 endp
  67  001F              #line 67 "c:\users\tech\desktop\powerlinetransceiver\SmokeDetector\SmokeDetector.c"
  67  001F              #pragma debug scope 1 1
  67  001F              ___sda1vos equ [38]
  67  001F              public _CalibrateOPA1
  67  001F              #pragma debug scope 5 1
  74  001F              #line 74 "c:\users\tech\desktop\powerlinetransceiver\SmokeDetector\SmokeDetector.c"
  74  0000              _CalibrateOPA1 .section 'code'
  74  0000              _CalibrateOPA1 proc
  78  0000              #line 78 "c:\users\tech\desktop\powerlinetransceiver\SmokeDetector\SmokeDetector.c"
  78  0000  1FA6        	set [38]
  78  0001              _L18:
  83  0001              #line 83 "c:\users\tech\desktop\powerlinetransceiver\SmokeDetector\SmokeDetector.c"
  83  0001              ;# 83 "c:\users\tech\desktop\powerlinetransceiver\SmokeDetector\SmokeDetector.c" 1
  83  0001              	IF 2000>263690
  83  0001              ;# 83 "c:\users\tech\desktop\powerlinetransceiver\SmokeDetector\SmokeDetector.c" 1
  83  0001              	ERRMESSAGE 'the value 2000of the argument exceeds the maxinum 263690'
  83  0001              	ENDIF
  83  0001              ;# 83 "c:\users\tech\desktop\powerlinetransceiver\SmokeDetector\SmokeDetector.c" 1
  83  0001              	IF 2000<0
  83  0001              ;# 83 "c:\users\tech\desktop\powerlinetransceiver\SmokeDetector\SmokeDetector.c" 1
  83  0001              	ERRMESSAGE 'the value 2000 of the argument exceeds the mininum 0'
  83  0001              	ENDIF
  83  0001              ;# 83 "c:\users\tech\desktop\powerlinetransceiver\SmokeDetector\SmokeDetector.c" 1
  83  0001              	IF 2000==0
  83  0001              ;# 83 "c:\users\tech\desktop\powerlinetransceiver\SmokeDetector\SmokeDetector.c" 1
  83  0001              	JMP $
  83  0001              	ENDIF
  83  0001              ;# 83 "c:\users\tech\desktop\powerlinetransceiver\SmokeDetector\SmokeDetector.c" 1
  83  0001              	IF 2000==1
"File: SmokeDetector.c  Assembler  Version HGASM0202      Page 7

  83  0001              ;# 83 "c:\users\tech\desktop\powerlinetransceiver\SmokeDetector\SmokeDetector.c" 1
  83  0001              	NOP
  83  0001              	ENDIF
  83  0001              ;# 83 "c:\users\tech\desktop\powerlinetransceiver\SmokeDetector\SmokeDetector.c" 1
  83  0001              	IF 2000==2
  83  0001              ;# 83 "c:\users\tech\desktop\powerlinetransceiver\SmokeDetector\SmokeDetector.c" 1
  83  0001              	NOP
  83  0001              ;# 83 "c:\users\tech\desktop\powerlinetransceiver\SmokeDetector\SmokeDetector.c" 1
  83  0001              	NOP
  83  0001              	ENDIF
  83  0001              ;# 83 "c:\users\tech\desktop\powerlinetransceiver\SmokeDetector\SmokeDetector.c" 1
  83  0001              	IF 2000==3
  83  0001              ;# 83 "c:\users\tech\desktop\powerlinetransceiver\SmokeDetector\SmokeDetector.c" 1
  83  0001              	NOP
  83  0001              ;# 83 "c:\users\tech\desktop\powerlinetransceiver\SmokeDetector\SmokeDetector.c" 1
  83  0001              	NOP
  83  0001              ;# 83 "c:\users\tech\desktop\powerlinetransceiver\SmokeDetector\SmokeDetector.c" 1
  83  0001              	NOP
  83  0001              	ENDIF
  83  0001              ;# 83 "c:\users\tech\desktop\powerlinetransceiver\SmokeDetector\SmokeDetector.c" 1
  83  0001              	IF (2000<8) AND (2000>3)
  83  0001              ;# 83 "c:\users\tech\desktop\powerlinetransceiver\SmokeDetector\SmokeDetector.c" 1
  83  0001              	CALL __DELAY3 + 7 -2000
  83  0001              	ENDIF
  83  0001              ;# 83 "c:\users\tech\desktop\powerlinetransceiver\SmokeDetector\SmokeDetector.c" 1
  83  0001              	IF (2000< 0404h) AND (2000>7)
  83  0001              ;# 83 "c:\users\tech\desktop\powerlinetransceiver\SmokeDetector\SmokeDetector.c" 1
  83  0001              	MOV A,2000/4-1
  83  0001              ;# 83 "c:\users\tech\desktop\powerlinetransceiver\SmokeDetector\SmokeDetector.c" 1
  83  0001              	CALL __DELAYX3 + 3 -(2000 MOD 4)
  83  0001              	ENDIF
  83  0001              ;# 83 "c:\users\tech\desktop\powerlinetransceiver\SmokeDetector\SmokeDetector.c" 1
  83  0001              	IF (2000< 0x40B) AND (2000> 0403h)
  83  0001              ;# 83 "c:\users\tech\desktop\powerlinetransceiver\SmokeDetector\SmokeDetector.c" 1
  83  0001              	MOV A,0 
  83  0001              ;# 83 "c:\users\tech\desktop\powerlinetransceiver\SmokeDetector\SmokeDetector.c" 1
  83  0001              	CALL __DELAYX6 + 0x40a -2000
  83  0001              	ENDIF
  83  0001              ;# 83 "c:\users\tech\desktop\powerlinetransceiver\SmokeDetector\SmokeDetector.c" 1
  83  0001              	IF (2000 >= 0x40b) AND ((((2000-9)%0402h)/4+1)>256)
  83  0001              ;# 83 "c:\users\tech\desktop\powerlinetransceiver\SmokeDetector\SmokeDetector.c" 1
  83  0001              	MOV A,(2000-9)/0402h
  83  0001              ;# 83 "c:\users\tech\desktop\powerlinetransceiver\SmokeDetector\SmokeDetector.c" 1
  83  0001              	MOV _builtin_holtek_delay_2,A
  83  0001              ;# 83 "c:\users\tech\desktop\powerlinetransceiver\SmokeDetector\SmokeDetector.c" 1
  83  0001              	MOV A,0
  83  0001              ;# 83 "c:\users\tech\desktop\powerlinetransceiver\SmokeDetector\SmokeDetector.c" 1
  83  0001              	CALL __DELAYY5 +5- (((2000-9)%0402h)%6)
  83  0001              	ENDIF
  83  0001              ;# 83 "c:\users\tech\desktop\powerlinetransceiver\SmokeDetector\SmokeDetector.c" 1
  83  0001              	IF (2000 >= 0x40b) AND ((((2000-9)%0402h)/4+1)<=256)
  83  0001              ;# 83 "c:\users\tech\desktop\powerlinetransceiver\SmokeDetector\SmokeDetector.c" 1
  83  0001  0F01        	MOV A,(2000-9)/0402h
  83  0002              ;# 83 "c:\users\tech\desktop\powerlinetransceiver\SmokeDetector\SmokeDetector.c" 1
  83  0002  0080     E  	MOV _builtin_holtek_delay_2,A
  83  0003              ;# 83 "c:\users\tech\desktop\powerlinetransceiver\SmokeDetector\SmokeDetector.c" 1
  83  0003  0FF2        	MOV A,((2000-9)%0402h)/4+1
  83  0004              ;# 83 "c:\users\tech\desktop\powerlinetransceiver\SmokeDetector\SmokeDetector.c" 1
  83  0004  2000     E  	CALL __DELAYY3 +3-(((2000-9)%0402h)%4)
  83  0005              	ENDIF
"File: SmokeDetector.c  Assembler  Version HGASM0202      Page 8

  80  0005              #line 80 "c:\users\tech\desktop\powerlinetransceiver\SmokeDetector\SmokeDetector.c"
  80  0005  3AA5        	snz [37].5
  80  0006  2800     R  	jmp _L20
  82  0007              #line 82 "c:\users\tech\desktop\powerlinetransceiver\SmokeDetector\SmokeDetector.c"
  82  0007  15A6        	dec [38]
  82  0008  2800     R  	jmp _L18
  82  0009              _L20:
  85  0009              #line 85 "c:\users\tech\desktop\powerlinetransceiver\SmokeDetector\SmokeDetector.c"
  85  0009  0726        	mov a,[38]
  85  000A  0E3F        	and a,63
  85  000B  0080     E  	mov ra,a
  86  000C              #line 86 "c:\users\tech\desktop\powerlinetransceiver\SmokeDetector\SmokeDetector.c"
  86  000C  0FC0        	mov a,192
  86  000D  00A6        	mov [38],a
  86  000E              _L19:
  91  000E              #line 91 "c:\users\tech\desktop\powerlinetransceiver\SmokeDetector\SmokeDetector.c"
  91  000E              ;# 91 "c:\users\tech\desktop\powerlinetransceiver\SmokeDetector\SmokeDetector.c" 1
  91  000E              	IF 2000>263690
  91  000E              ;# 91 "c:\users\tech\desktop\powerlinetransceiver\SmokeDetector\SmokeDetector.c" 1
  91  000E              	ERRMESSAGE 'the value 2000of the argument exceeds the maxinum 263690'
  91  000E              	ENDIF
  91  000E              ;# 91 "c:\users\tech\desktop\powerlinetransceiver\SmokeDetector\SmokeDetector.c" 1
  91  000E              	IF 2000<0
  91  000E              ;# 91 "c:\users\tech\desktop\powerlinetransceiver\SmokeDetector\SmokeDetector.c" 1
  91  000E              	ERRMESSAGE 'the value 2000 of the argument exceeds the mininum 0'
  91  000E              	ENDIF
  91  000E              ;# 91 "c:\users\tech\desktop\powerlinetransceiver\SmokeDetector\SmokeDetector.c" 1
  91  000E              	IF 2000==0
  91  000E              ;# 91 "c:\users\tech\desktop\powerlinetransceiver\SmokeDetector\SmokeDetector.c" 1
  91  000E              	JMP $
  91  000E              	ENDIF
  91  000E              ;# 91 "c:\users\tech\desktop\powerlinetransceiver\SmokeDetector\SmokeDetector.c" 1
  91  000E              	IF 2000==1
  91  000E              ;# 91 "c:\users\tech\desktop\powerlinetransceiver\SmokeDetector\SmokeDetector.c" 1
  91  000E              	NOP
  91  000E              	ENDIF
  91  000E              ;# 91 "c:\users\tech\desktop\powerlinetransceiver\SmokeDetector\SmokeDetector.c" 1
  91  000E              	IF 2000==2
  91  000E              ;# 91 "c:\users\tech\desktop\powerlinetransceiver\SmokeDetector\SmokeDetector.c" 1
  91  000E              	NOP
  91  000E              ;# 91 "c:\users\tech\desktop\powerlinetransceiver\SmokeDetector\SmokeDetector.c" 1
  91  000E              	NOP
  91  000E              	ENDIF
  91  000E              ;# 91 "c:\users\tech\desktop\powerlinetransceiver\SmokeDetector\SmokeDetector.c" 1
  91  000E              	IF 2000==3
  91  000E              ;# 91 "c:\users\tech\desktop\powerlinetransceiver\SmokeDetector\SmokeDetector.c" 1
  91  000E              	NOP
  91  000E              ;# 91 "c:\users\tech\desktop\powerlinetransceiver\SmokeDetector\SmokeDetector.c" 1
  91  000E              	NOP
  91  000E              ;# 91 "c:\users\tech\desktop\powerlinetransceiver\SmokeDetector\SmokeDetector.c" 1
  91  000E              	NOP
  91  000E              	ENDIF
  91  000E              ;# 91 "c:\users\tech\desktop\powerlinetransceiver\SmokeDetector\SmokeDetector.c" 1
  91  000E              	IF (2000<8) AND (2000>3)
  91  000E              ;# 91 "c:\users\tech\desktop\powerlinetransceiver\SmokeDetector\SmokeDetector.c" 1
  91  000E              	CALL __DELAY3 + 7 -2000
  91  000E              	ENDIF
  91  000E              ;# 91 "c:\users\tech\desktop\powerlinetransceiver\SmokeDetector\SmokeDetector.c" 1
  91  000E              	IF (2000< 0404h) AND (2000>7)
  91  000E              ;# 91 "c:\users\tech\desktop\powerlinetransceiver\SmokeDetector\SmokeDetector.c" 1
"File: SmokeDetector.c  Assembler  Version HGASM0202      Page 9

  91  000E              	MOV A,2000/4-1
  91  000E              ;# 91 "c:\users\tech\desktop\powerlinetransceiver\SmokeDetector\SmokeDetector.c" 1
  91  000E              	CALL __DELAYX3 + 3 -(2000 MOD 4)
  91  000E              	ENDIF
  91  000E              ;# 91 "c:\users\tech\desktop\powerlinetransceiver\SmokeDetector\SmokeDetector.c" 1
  91  000E              	IF (2000< 0x40B) AND (2000> 0403h)
  91  000E              ;# 91 "c:\users\tech\desktop\powerlinetransceiver\SmokeDetector\SmokeDetector.c" 1
  91  000E              	MOV A,0 
  91  000E              ;# 91 "c:\users\tech\desktop\powerlinetransceiver\SmokeDetector\SmokeDetector.c" 1
  91  000E              	CALL __DELAYX6 + 0x40a -2000
  91  000E              	ENDIF
  91  000E              ;# 91 "c:\users\tech\desktop\powerlinetransceiver\SmokeDetector\SmokeDetector.c" 1
  91  000E              	IF (2000 >= 0x40b) AND ((((2000-9)%0402h)/4+1)>256)
  91  000E              ;# 91 "c:\users\tech\desktop\powerlinetransceiver\SmokeDetector\SmokeDetector.c" 1
  91  000E              	MOV A,(2000-9)/0402h
  91  000E              ;# 91 "c:\users\tech\desktop\powerlinetransceiver\SmokeDetector\SmokeDetector.c" 1
  91  000E              	MOV _builtin_holtek_delay_2,A
  91  000E              ;# 91 "c:\users\tech\desktop\powerlinetransceiver\SmokeDetector\SmokeDetector.c" 1
  91  000E              	MOV A,0
  91  000E              ;# 91 "c:\users\tech\desktop\powerlinetransceiver\SmokeDetector\SmokeDetector.c" 1
  91  000E              	CALL __DELAYY5 +5- (((2000-9)%0402h)%6)
  91  000E              	ENDIF
  91  000E              ;# 91 "c:\users\tech\desktop\powerlinetransceiver\SmokeDetector\SmokeDetector.c" 1
  91  000E              	IF (2000 >= 0x40b) AND ((((2000-9)%0402h)/4+1)<=256)
  91  000E              ;# 91 "c:\users\tech\desktop\powerlinetransceiver\SmokeDetector\SmokeDetector.c" 1
  91  000E  0F01        	MOV A,(2000-9)/0402h
  91  000F              ;# 91 "c:\users\tech\desktop\powerlinetransceiver\SmokeDetector\SmokeDetector.c" 1
  91  000F  0080     E  	MOV _builtin_holtek_delay_2,A
  91  0010              ;# 91 "c:\users\tech\desktop\powerlinetransceiver\SmokeDetector\SmokeDetector.c" 1
  91  0010  0FF2        	MOV A,((2000-9)%0402h)/4+1
  91  0011              ;# 91 "c:\users\tech\desktop\powerlinetransceiver\SmokeDetector\SmokeDetector.c" 1
  91  0011  2000     E  	CALL __DELAYY3 +3-(((2000-9)%0402h)%4)
  91  0012              	ENDIF
  88  0012              #line 88 "c:\users\tech\desktop\powerlinetransceiver\SmokeDetector\SmokeDetector.c"
  88  0012  3EA5        	sz [37].5
  88  0013  2800     R  	jmp _L21
  90  0014              #line 90 "c:\users\tech\desktop\powerlinetransceiver\SmokeDetector\SmokeDetector.c"
  90  0014  14A6        	inc [38]
  90  0015  2800     R  	jmp _L19
  90  0016              _L21:
  93  0016              #line 93 "c:\users\tech\desktop\powerlinetransceiver\SmokeDetector\SmokeDetector.c"
  93  0016  0726        	mov a,[38]
  93  0017  0E3F        	and a,63
  93  0018  0080     E  	mov rb,a
  94  0019              #line 94 "c:\users\tech\desktop\powerlinetransceiver\SmokeDetector\SmokeDetector.c"
  94  0019  0700     E  	mov a,rb
  94  001A  0380     E  	addm a,ra
  94  001B  1B80     E  	rrc ra
  94  001C  0700     E  	mov a,ra
  94  001D  00A6        	mov [38],a
  94  001E  0003        	ret
  94  001F              _CalibrateOPA1 endp
  94  001F              #line 94 "c:\users\tech\desktop\powerlinetransceiver\SmokeDetector\SmokeDetector.c"
  94  001F              #pragma debug scope 1 1
  94  001F              public _TriggerAlarm
  94  001F              #pragma debug scope 6 1
 139  001F              #line 139 "c:\users\tech\desktop\powerlinetransceiver\SmokeDetector\SmokeDetector.c"
 139  0000              _TriggerAlarm .section 'code'
 139  0000              _TriggerAlarm proc
 139  0000  0003        	ret
"File: SmokeDetector.c  Assembler  Version HGASM0202      Page 10

 139  0001              _TriggerAlarm endp
 139  0001              #line 139 "c:\users\tech\desktop\powerlinetransceiver\SmokeDetector\SmokeDetector.c"
 139  0001              #pragma debug scope 1 1
 139  0001              public _ResetAlarm
 139  0001              #pragma debug scope 7 1
 147  0001              #line 147 "c:\users\tech\desktop\powerlinetransceiver\SmokeDetector\SmokeDetector.c"
 147  0000              _ResetAlarm .section 'code'
 147  0000              _ResetAlarm proc
 147  0000  0003        	ret
 147  0001              _ResetAlarm endp
 147  0001              #line 147 "c:\users\tech\desktop\powerlinetransceiver\SmokeDetector\SmokeDetector.c"
 147  0001              #pragma debug scope 1 1
 147  0001              public _ISINK0_ON
 147  0001              #pragma debug scope 8 1
 158  0001              #line 158 "c:\users\tech\desktop\powerlinetransceiver\SmokeDetector\SmokeDetector.c"
 158  0000              _ISINK0_ON .section 'code'
 158  0000              _ISINK0_ON proc
 159  0000              #line 159 "c:\users\tech\desktop\powerlinetransceiver\SmokeDetector\SmokeDetector.c"
 159  0000  0F07        	mov a,7
 159  0001  00DE        	mov [94],a
 160  0002              #line 160 "c:\users\tech\desktop\powerlinetransceiver\SmokeDetector\SmokeDetector.c"
 160  0002  33DD        	set [93].7
 161  0003              #line 161 "c:\users\tech\desktop\powerlinetransceiver\SmokeDetector\SmokeDetector.c"
 161  0003  305D        	set [93].0
 161  0004  0003        	ret
 161  0005              _ISINK0_ON endp
 161  0005              #line 161 "c:\users\tech\desktop\powerlinetransceiver\SmokeDetector\SmokeDetector.c"
 161  0005              #pragma debug scope 1 1
 161  0005              public _ISINK1_ON
 161  0005              #pragma debug scope 9 1
 171  0005              #line 171 "c:\users\tech\desktop\powerlinetransceiver\SmokeDetector\SmokeDetector.c"
 171  0000              _ISINK1_ON .section 'code'
 171  0000              _ISINK1_ON proc
 172  0000              #line 172 "c:\users\tech\desktop\powerlinetransceiver\SmokeDetector\SmokeDetector.c"
 172  0000  0F01        	mov a,1
 172  0001  00DF        	mov [95],a
 173  0002              #line 173 "c:\users\tech\desktop\powerlinetransceiver\SmokeDetector\SmokeDetector.c"
 173  0002  33DD        	set [93].7
 174  0003              #line 174 "c:\users\tech\desktop\powerlinetransceiver\SmokeDetector\SmokeDetector.c"
 174  0003  30DD        	set [93].1
 174  0004  0003        	ret
 174  0005              _ISINK1_ON endp
 174  0005              #line 174 "c:\users\tech\desktop\powerlinetransceiver\SmokeDetector\SmokeDetector.c"
 174  0005              #pragma debug scope 1 1
 174  0005              public _ISINK0_OFF
 174  0005              #pragma debug scope 10 1
 184  0005              #line 184 "c:\users\tech\desktop\powerlinetransceiver\SmokeDetector\SmokeDetector.c"
 184  0000              _ISINK0_OFF .section 'code'
 184  0000              _ISINK0_OFF proc
 185  0000              #line 185 "c:\users\tech\desktop\powerlinetransceiver\SmokeDetector\SmokeDetector.c"
 185  0000  37DD        	clr [93].7
 186  0001              #line 186 "c:\users\tech\desktop\powerlinetransceiver\SmokeDetector\SmokeDetector.c"
 186  0001  345D        	clr [93].0
 186  0002  0003        	ret
 186  0003              _ISINK0_OFF endp
 186  0003              #line 186 "c:\users\tech\desktop\powerlinetransceiver\SmokeDetector\SmokeDetector.c"
 186  0003              #pragma debug scope 1 1
 186  0003              public _ISINK1_OFF
 186  0003              #pragma debug scope 11 1
 196  0003              #line 196 "c:\users\tech\desktop\powerlinetransceiver\SmokeDetector\SmokeDetector.c"
"File: SmokeDetector.c  Assembler  Version HGASM0202      Page 11

 196  0000              _ISINK1_OFF .section 'code'
 196  0000              _ISINK1_OFF proc
 197  0000              #line 197 "c:\users\tech\desktop\powerlinetransceiver\SmokeDetector\SmokeDetector.c"
 197  0000  37DD        	clr [93].7
 198  0001              #line 198 "c:\users\tech\desktop\powerlinetransceiver\SmokeDetector\SmokeDetector.c"
 198  0001  34DD        	clr [93].1
 198  0002  0003        	ret
 198  0003              _ISINK1_OFF endp
 198  0003              #line 198 "c:\users\tech\desktop\powerlinetransceiver\SmokeDetector\SmokeDetector.c"
 198  0003              #pragma debug scope 1 1
 198  0003              public _OPA_ON
 198  0003              #pragma debug scope 12 1
 208  0003              #line 208 "c:\users\tech\desktop\powerlinetransceiver\SmokeDetector\SmokeDetector.c"
 208  0000              _OPA_ON .section 'code'
 208  0000              _OPA_ON proc
 209  0000              #line 209 "c:\users\tech\desktop\powerlinetransceiver\SmokeDetector\SmokeDetector.c"
 209  0000  3323        	set [35].6
 210  0001              #line 210 "c:\users\tech\desktop\powerlinetransceiver\SmokeDetector\SmokeDetector.c"
 210  0001  3325        	set [37].6
 211  0002              #line 211 "c:\users\tech\desktop\powerlinetransceiver\SmokeDetector\SmokeDetector.c"
 211  0002  3020        	set [32].0
 211  0003  0003        	ret
 211  0004              _OPA_ON endp
 211  0004              #line 211 "c:\users\tech\desktop\powerlinetransceiver\SmokeDetector\SmokeDetector.c"
 211  0004              #pragma debug scope 1 1
 211  0004              public _InitSmokeDetection
 211  0004              #pragma debug scope 13 1
 100  0004              #line 100 "c:\users\tech\desktop\powerlinetransceiver\SmokeDetector\SmokeDetector.c"
 100  0000              _InitSmokeDetection .section 'code'
 100  0000              _InitSmokeDetection proc
 101  0000              #line 101 "c:\users\tech\desktop\powerlinetransceiver\SmokeDetector\SmokeDetector.c"
 101  0000  2000     R  	call _InitOPA
 102  0001              #line 102 "c:\users\tech\desktop\powerlinetransceiver\SmokeDetector\SmokeDetector.c"
 102  0001  2000     R  	call _CalibrateOPA0
 103  0002              #line 103 "c:\users\tech\desktop\powerlinetransceiver\SmokeDetector\SmokeDetector.c"
 103  0002  2000     R  	call _CalibrateOPA1
 104  0003              #line 104 "c:\users\tech\desktop\powerlinetransceiver\SmokeDetector\SmokeDetector.c"
 104  0003  2000     R  	call _OPA_ON
 104  0004  0003        	ret
 104  0005              _InitSmokeDetection endp
 104  0005              #line 104 "c:\users\tech\desktop\powerlinetransceiver\SmokeDetector\SmokeDetector.c"
 104  0005              #pragma debug scope 1 1
 104  0005              public _OPA_OFF
 104  0005              #pragma debug scope 14 1
 221  0005              #line 221 "c:\users\tech\desktop\powerlinetransceiver\SmokeDetector\SmokeDetector.c"
 221  0000              _OPA_OFF .section 'code'
 221  0000              _OPA_OFF proc
 222  0000              #line 222 "c:\users\tech\desktop\powerlinetransceiver\SmokeDetector\SmokeDetector.c"
 222  0000  3723        	clr [35].6
 223  0001              #line 223 "c:\users\tech\desktop\powerlinetransceiver\SmokeDetector\SmokeDetector.c"
 223  0001  3725        	clr [37].6
 224  0002              #line 224 "c:\users\tech\desktop\powerlinetransceiver\SmokeDetector\SmokeDetector.c"
 224  0002  3420        	clr [32].0
 224  0003  0003        	ret
 224  0004              _OPA_OFF endp
 224  0004              #line 224 "c:\users\tech\desktop\powerlinetransceiver\SmokeDetector\SmokeDetector.c"
 224  0004              #pragma debug scope 1 1
 224  0004              public _CheckSmokeLevel
 224  0004              #pragma debug scope 15 1
 110  0004              #line 110 "c:\users\tech\desktop\powerlinetransceiver\SmokeDetector\SmokeDetector.c"
"File: SmokeDetector.c  Assembler  Version HGASM0202      Page 12

 110  0000              _CheckSmokeLevel .section 'code'
 110  0000              _CheckSmokeLevel proc
 110  0000              public _CheckSmokeLevel_2
 110  0000  0002[           local _CheckSmokeLevel_2 db 2 dup(?)	; 2,0
            00
            ]
 110  0002              #pragma debug pointer 42 12 15
 110  0002              #pragma debug pointer 42 12 15
 110  0002              #pragma debug variable 42 15 _CheckSmokeLevel_2+0 "smokeLevel"
 112  0002              #line 112 "c:\users\tech\desktop\powerlinetransceiver\SmokeDetector\SmokeDetector.c"
 112  0000  2000     R  	call _OPA_ON
 113  0001              #line 113 "c:\users\tech\desktop\powerlinetransceiver\SmokeDetector\SmokeDetector.c"
 113  0001  2000     R  	call _ISINK0_ON
 114  0002              #line 114 "c:\users\tech\desktop\powerlinetransceiver\SmokeDetector\SmokeDetector.c"
 114  0002              ;# 114 "c:\users\tech\desktop\powerlinetransceiver\SmokeDetector\SmokeDetector.c" 1
 114  0002              	IF 1000>263690
 114  0002              ;# 114 "c:\users\tech\desktop\powerlinetransceiver\SmokeDetector\SmokeDetector.c" 1
 114  0002              	ERRMESSAGE 'the value 1000of the argument exceeds the maxinum 263690'
 114  0002              	ENDIF
 114  0002              ;# 114 "c:\users\tech\desktop\powerlinetransceiver\SmokeDetector\SmokeDetector.c" 1
 114  0002              	IF 1000<0
 114  0002              ;# 114 "c:\users\tech\desktop\powerlinetransceiver\SmokeDetector\SmokeDetector.c" 1
 114  0002              	ERRMESSAGE 'the value 1000 of the argument exceeds the mininum 0'
 114  0002              	ENDIF
 114  0002              ;# 114 "c:\users\tech\desktop\powerlinetransceiver\SmokeDetector\SmokeDetector.c" 1
 114  0002              	IF 1000==0
 114  0002              ;# 114 "c:\users\tech\desktop\powerlinetransceiver\SmokeDetector\SmokeDetector.c" 1
 114  0002              	JMP $
 114  0002              	ENDIF
 114  0002              ;# 114 "c:\users\tech\desktop\powerlinetransceiver\SmokeDetector\SmokeDetector.c" 1
 114  0002              	IF 1000==1
 114  0002              ;# 114 "c:\users\tech\desktop\powerlinetransceiver\SmokeDetector\SmokeDetector.c" 1
 114  0002              	NOP
 114  0002              	ENDIF
 114  0002              ;# 114 "c:\users\tech\desktop\powerlinetransceiver\SmokeDetector\SmokeDetector.c" 1
 114  0002              	IF 1000==2
 114  0002              ;# 114 "c:\users\tech\desktop\powerlinetransceiver\SmokeDetector\SmokeDetector.c" 1
 114  0002              	NOP
 114  0002              ;# 114 "c:\users\tech\desktop\powerlinetransceiver\SmokeDetector\SmokeDetector.c" 1
 114  0002              	NOP
 114  0002              	ENDIF
 114  0002              ;# 114 "c:\users\tech\desktop\powerlinetransceiver\SmokeDetector\SmokeDetector.c" 1
 114  0002              	IF 1000==3
 114  0002              ;# 114 "c:\users\tech\desktop\powerlinetransceiver\SmokeDetector\SmokeDetector.c" 1
 114  0002              	NOP
 114  0002              ;# 114 "c:\users\tech\desktop\powerlinetransceiver\SmokeDetector\SmokeDetector.c" 1
 114  0002              	NOP
 114  0002              ;# 114 "c:\users\tech\desktop\powerlinetransceiver\SmokeDetector\SmokeDetector.c" 1
 114  0002              	NOP
 114  0002              	ENDIF
 114  0002              ;# 114 "c:\users\tech\desktop\powerlinetransceiver\SmokeDetector\SmokeDetector.c" 1
 114  0002              	IF (1000<8) AND (1000>3)
 114  0002              ;# 114 "c:\users\tech\desktop\powerlinetransceiver\SmokeDetector\SmokeDetector.c" 1
 114  0002              	CALL __DELAY3 + 7 -1000
 114  0002              	ENDIF
 114  0002              ;# 114 "c:\users\tech\desktop\powerlinetransceiver\SmokeDetector\SmokeDetector.c" 1
 114  0002              	IF (1000< 0404h) AND (1000>7)
 114  0002              ;# 114 "c:\users\tech\desktop\powerlinetransceiver\SmokeDetector\SmokeDetector.c" 1
 114  0002  0FF9        	MOV A,1000/4-1
 114  0003              ;# 114 "c:\users\tech\desktop\powerlinetransceiver\SmokeDetector\SmokeDetector.c" 1
"File: SmokeDetector.c  Assembler  Version HGASM0202      Page 13

 114  0003  2000     E  	CALL __DELAYX3 + 3 -(1000 MOD 4)
 114  0004              	ENDIF
 114  0004              ;# 114 "c:\users\tech\desktop\powerlinetransceiver\SmokeDetector\SmokeDetector.c" 1
 114  0004              	IF (1000< 0x40B) AND (1000> 0403h)
 114  0004              ;# 114 "c:\users\tech\desktop\powerlinetransceiver\SmokeDetector\SmokeDetector.c" 1
 114  0004              	MOV A,0 
 114  0004              ;# 114 "c:\users\tech\desktop\powerlinetransceiver\SmokeDetector\SmokeDetector.c" 1
 114  0004              	CALL __DELAYX6 + 0x40a -1000
 114  0004              	ENDIF
 114  0004              ;# 114 "c:\users\tech\desktop\powerlinetransceiver\SmokeDetector\SmokeDetector.c" 1
 114  0004              	IF (1000 >= 0x40b) AND ((((1000-9)%0402h)/4+1)>256)
 114  0004              ;# 114 "c:\users\tech\desktop\powerlinetransceiver\SmokeDetector\SmokeDetector.c" 1
 114  0004              	MOV A,(1000-9)/0402h
 114  0004              ;# 114 "c:\users\tech\desktop\powerlinetransceiver\SmokeDetector\SmokeDetector.c" 1
 114  0004              	MOV _builtin_holtek_delay_2,A
 114  0004              ;# 114 "c:\users\tech\desktop\powerlinetransceiver\SmokeDetector\SmokeDetector.c" 1
 114  0004              	MOV A,0
 114  0004              ;# 114 "c:\users\tech\desktop\powerlinetransceiver\SmokeDetector\SmokeDetector.c" 1
 114  0004              	CALL __DELAYY5 +5- (((1000-9)%0402h)%6)
 114  0004              	ENDIF
 114  0004              ;# 114 "c:\users\tech\desktop\powerlinetransceiver\SmokeDetector\SmokeDetector.c" 1
 114  0004              	IF (1000 >= 0x40b) AND ((((1000-9)%0402h)/4+1)<=256)
 114  0004              ;# 114 "c:\users\tech\desktop\powerlinetransceiver\SmokeDetector\SmokeDetector.c" 1
 114  0004              	MOV A,(1000-9)/0402h
 114  0004              ;# 114 "c:\users\tech\desktop\powerlinetransceiver\SmokeDetector\SmokeDetector.c" 1
 114  0004              	MOV _builtin_holtek_delay_2,A
 114  0004              ;# 114 "c:\users\tech\desktop\powerlinetransceiver\SmokeDetector\SmokeDetector.c" 1
 114  0004              	MOV A,((1000-9)%0402h)/4+1
 114  0004              ;# 114 "c:\users\tech\desktop\powerlinetransceiver\SmokeDetector\SmokeDetector.c" 1
 114  0004              	CALL __DELAYY3 +3-(((1000-9)%0402h)%4)
 114  0004              	ENDIF
 115  0004              #line 115 "c:\users\tech\desktop\powerlinetransceiver\SmokeDetector\SmokeDetector.c"
 115  0004  0F05        	mov a,5
 115  0005  2000     E  	call _ReadADC
 115  0006  0700     R  	mov a,_CheckSmokeLevel_2[0]
 115  0007  0083        	mov mp,a
 115  0008  0700     R  	mov a,_CheckSmokeLevel_2[1]
 115  0009  0084        	mov sbp,a
 115  000A  0700     E  	mov a,ra
 115  000B  0082        	mov ir,a
 115  000C  1483        	inc mp
 115  000D  0700     E  	mov a,rb
 115  000E  0082        	mov ir,a
 116  000F              #line 116 "c:\users\tech\desktop\powerlinetransceiver\SmokeDetector\SmokeDetector.c"
 116  000F              ;# 116 "c:\users\tech\desktop\powerlinetransceiver\SmokeDetector\SmokeDetector.c" 1
 116  000F              	IF 1000>263690
 116  000F              ;# 116 "c:\users\tech\desktop\powerlinetransceiver\SmokeDetector\SmokeDetector.c" 1
 116  000F              	ERRMESSAGE 'the value 1000of the argument exceeds the maxinum 263690'
 116  000F              	ENDIF
 116  000F              ;# 116 "c:\users\tech\desktop\powerlinetransceiver\SmokeDetector\SmokeDetector.c" 1
 116  000F              	IF 1000<0
 116  000F              ;# 116 "c:\users\tech\desktop\powerlinetransceiver\SmokeDetector\SmokeDetector.c" 1
 116  000F              	ERRMESSAGE 'the value 1000 of the argument exceeds the mininum 0'
 116  000F              	ENDIF
 116  000F              ;# 116 "c:\users\tech\desktop\powerlinetransceiver\SmokeDetector\SmokeDetector.c" 1
 116  000F              	IF 1000==0
 116  000F              ;# 116 "c:\users\tech\desktop\powerlinetransceiver\SmokeDetector\SmokeDetector.c" 1
 116  000F              	JMP $
 116  000F              	ENDIF
 116  000F              ;# 116 "c:\users\tech\desktop\powerlinetransceiver\SmokeDetector\SmokeDetector.c" 1
"File: SmokeDetector.c  Assembler  Version HGASM0202      Page 14

 116  000F              	IF 1000==1
 116  000F              ;# 116 "c:\users\tech\desktop\powerlinetransceiver\SmokeDetector\SmokeDetector.c" 1
 116  000F              	NOP
 116  000F              	ENDIF
 116  000F              ;# 116 "c:\users\tech\desktop\powerlinetransceiver\SmokeDetector\SmokeDetector.c" 1
 116  000F              	IF 1000==2
 116  000F              ;# 116 "c:\users\tech\desktop\powerlinetransceiver\SmokeDetector\SmokeDetector.c" 1
 116  000F              	NOP
 116  000F              ;# 116 "c:\users\tech\desktop\powerlinetransceiver\SmokeDetector\SmokeDetector.c" 1
 116  000F              	NOP
 116  000F              	ENDIF
 116  000F              ;# 116 "c:\users\tech\desktop\powerlinetransceiver\SmokeDetector\SmokeDetector.c" 1
 116  000F              	IF 1000==3
 116  000F              ;# 116 "c:\users\tech\desktop\powerlinetransceiver\SmokeDetector\SmokeDetector.c" 1
 116  000F              	NOP
 116  000F              ;# 116 "c:\users\tech\desktop\powerlinetransceiver\SmokeDetector\SmokeDetector.c" 1
 116  000F              	NOP
 116  000F              ;# 116 "c:\users\tech\desktop\powerlinetransceiver\SmokeDetector\SmokeDetector.c" 1
 116  000F              	NOP
 116  000F              	ENDIF
 116  000F              ;# 116 "c:\users\tech\desktop\powerlinetransceiver\SmokeDetector\SmokeDetector.c" 1
 116  000F              	IF (1000<8) AND (1000>3)
 116  000F              ;# 116 "c:\users\tech\desktop\powerlinetransceiver\SmokeDetector\SmokeDetector.c" 1
 116  000F              	CALL __DELAY3 + 7 -1000
 116  000F              	ENDIF
 116  000F              ;# 116 "c:\users\tech\desktop\powerlinetransceiver\SmokeDetector\SmokeDetector.c" 1
 116  000F              	IF (1000< 0404h) AND (1000>7)
 116  000F              ;# 116 "c:\users\tech\desktop\powerlinetransceiver\SmokeDetector\SmokeDetector.c" 1
 116  000F  0FF9        	MOV A,1000/4-1
 116  0010              ;# 116 "c:\users\tech\desktop\powerlinetransceiver\SmokeDetector\SmokeDetector.c" 1
 116  0010  2000     E  	CALL __DELAYX3 + 3 -(1000 MOD 4)
 116  0011              	ENDIF
 116  0011              ;# 116 "c:\users\tech\desktop\powerlinetransceiver\SmokeDetector\SmokeDetector.c" 1
 116  0011              	IF (1000< 0x40B) AND (1000> 0403h)
 116  0011              ;# 116 "c:\users\tech\desktop\powerlinetransceiver\SmokeDetector\SmokeDetector.c" 1
 116  0011              	MOV A,0 
 116  0011              ;# 116 "c:\users\tech\desktop\powerlinetransceiver\SmokeDetector\SmokeDetector.c" 1
 116  0011              	CALL __DELAYX6 + 0x40a -1000
 116  0011              	ENDIF
 116  0011              ;# 116 "c:\users\tech\desktop\powerlinetransceiver\SmokeDetector\SmokeDetector.c" 1
 116  0011              	IF (1000 >= 0x40b) AND ((((1000-9)%0402h)/4+1)>256)
 116  0011              ;# 116 "c:\users\tech\desktop\powerlinetransceiver\SmokeDetector\SmokeDetector.c" 1
 116  0011              	MOV A,(1000-9)/0402h
 116  0011              ;# 116 "c:\users\tech\desktop\powerlinetransceiver\SmokeDetector\SmokeDetector.c" 1
 116  0011              	MOV _builtin_holtek_delay_2,A
 116  0011              ;# 116 "c:\users\tech\desktop\powerlinetransceiver\SmokeDetector\SmokeDetector.c" 1
 116  0011              	MOV A,0
 116  0011              ;# 116 "c:\users\tech\desktop\powerlinetransceiver\SmokeDetector\SmokeDetector.c" 1
 116  0011              	CALL __DELAYY5 +5- (((1000-9)%0402h)%6)
 116  0011              	ENDIF
 116  0011              ;# 116 "c:\users\tech\desktop\powerlinetransceiver\SmokeDetector\SmokeDetector.c" 1
 116  0011              	IF (1000 >= 0x40b) AND ((((1000-9)%0402h)/4+1)<=256)
 116  0011              ;# 116 "c:\users\tech\desktop\powerlinetransceiver\SmokeDetector\SmokeDetector.c" 1
 116  0011              	MOV A,(1000-9)/0402h
 116  0011              ;# 116 "c:\users\tech\desktop\powerlinetransceiver\SmokeDetector\SmokeDetector.c" 1
 116  0011              	MOV _builtin_holtek_delay_2,A
 116  0011              ;# 116 "c:\users\tech\desktop\powerlinetransceiver\SmokeDetector\SmokeDetector.c" 1
 116  0011              	MOV A,((1000-9)%0402h)/4+1
 116  0011              ;# 116 "c:\users\tech\desktop\powerlinetransceiver\SmokeDetector\SmokeDetector.c" 1
 116  0011              	CALL __DELAYY3 +3-(((1000-9)%0402h)%4)
"File: SmokeDetector.c  Assembler  Version HGASM0202      Page 15

 116  0011              	ENDIF
 117  0011              #line 117 "c:\users\tech\desktop\powerlinetransceiver\SmokeDetector\SmokeDetector.c"
 117  0011              ;# 117 "c:\users\tech\desktop\powerlinetransceiver\SmokeDetector\SmokeDetector.c" 1
 117  0011              	IF 1000>263690
 117  0011              ;# 117 "c:\users\tech\desktop\powerlinetransceiver\SmokeDetector\SmokeDetector.c" 1
 117  0011              	ERRMESSAGE 'the value 1000of the argument exceeds the maxinum 263690'
 117  0011              	ENDIF
 117  0011              ;# 117 "c:\users\tech\desktop\powerlinetransceiver\SmokeDetector\SmokeDetector.c" 1
 117  0011              	IF 1000<0
 117  0011              ;# 117 "c:\users\tech\desktop\powerlinetransceiver\SmokeDetector\SmokeDetector.c" 1
 117  0011              	ERRMESSAGE 'the value 1000 of the argument exceeds the mininum 0'
 117  0011              	ENDIF
 117  0011              ;# 117 "c:\users\tech\desktop\powerlinetransceiver\SmokeDetector\SmokeDetector.c" 1
 117  0011              	IF 1000==0
 117  0011              ;# 117 "c:\users\tech\desktop\powerlinetransceiver\SmokeDetector\SmokeDetector.c" 1
 117  0011              	JMP $
 117  0011              	ENDIF
 117  0011              ;# 117 "c:\users\tech\desktop\powerlinetransceiver\SmokeDetector\SmokeDetector.c" 1
 117  0011              	IF 1000==1
 117  0011              ;# 117 "c:\users\tech\desktop\powerlinetransceiver\SmokeDetector\SmokeDetector.c" 1
 117  0011              	NOP
 117  0011              	ENDIF
 117  0011              ;# 117 "c:\users\tech\desktop\powerlinetransceiver\SmokeDetector\SmokeDetector.c" 1
 117  0011              	IF 1000==2
 117  0011              ;# 117 "c:\users\tech\desktop\powerlinetransceiver\SmokeDetector\SmokeDetector.c" 1
 117  0011              	NOP
 117  0011              ;# 117 "c:\users\tech\desktop\powerlinetransceiver\SmokeDetector\SmokeDetector.c" 1
 117  0011              	NOP
 117  0011              	ENDIF
 117  0011              ;# 117 "c:\users\tech\desktop\powerlinetransceiver\SmokeDetector\SmokeDetector.c" 1
 117  0011              	IF 1000==3
 117  0011              ;# 117 "c:\users\tech\desktop\powerlinetransceiver\SmokeDetector\SmokeDetector.c" 1
 117  0011              	NOP
 117  0011              ;# 117 "c:\users\tech\desktop\powerlinetransceiver\SmokeDetector\SmokeDetector.c" 1
 117  0011              	NOP
 117  0011              ;# 117 "c:\users\tech\desktop\powerlinetransceiver\SmokeDetector\SmokeDetector.c" 1
 117  0011              	NOP
 117  0011              	ENDIF
 117  0011              ;# 117 "c:\users\tech\desktop\powerlinetransceiver\SmokeDetector\SmokeDetector.c" 1
 117  0011              	IF (1000<8) AND (1000>3)
 117  0011              ;# 117 "c:\users\tech\desktop\powerlinetransceiver\SmokeDetector\SmokeDetector.c" 1
 117  0011              	CALL __DELAY3 + 7 -1000
 117  0011              	ENDIF
 117  0011              ;# 117 "c:\users\tech\desktop\powerlinetransceiver\SmokeDetector\SmokeDetector.c" 1
 117  0011              	IF (1000< 0404h) AND (1000>7)
 117  0011              ;# 117 "c:\users\tech\desktop\powerlinetransceiver\SmokeDetector\SmokeDetector.c" 1
 117  0011  0FF9        	MOV A,1000/4-1
 117  0012              ;# 117 "c:\users\tech\desktop\powerlinetransceiver\SmokeDetector\SmokeDetector.c" 1
 117  0012  2000     E  	CALL __DELAYX3 + 3 -(1000 MOD 4)
 117  0013              	ENDIF
 117  0013              ;# 117 "c:\users\tech\desktop\powerlinetransceiver\SmokeDetector\SmokeDetector.c" 1
 117  0013              	IF (1000< 0x40B) AND (1000> 0403h)
 117  0013              ;# 117 "c:\users\tech\desktop\powerlinetransceiver\SmokeDetector\SmokeDetector.c" 1
 117  0013              	MOV A,0 
 117  0013              ;# 117 "c:\users\tech\desktop\powerlinetransceiver\SmokeDetector\SmokeDetector.c" 1
 117  0013              	CALL __DELAYX6 + 0x40a -1000
 117  0013              	ENDIF
 117  0013              ;# 117 "c:\users\tech\desktop\powerlinetransceiver\SmokeDetector\SmokeDetector.c" 1
 117  0013              	IF (1000 >= 0x40b) AND ((((1000-9)%0402h)/4+1)>256)
 117  0013              ;# 117 "c:\users\tech\desktop\powerlinetransceiver\SmokeDetector\SmokeDetector.c" 1
"File: SmokeDetector.c  Assembler  Version HGASM0202      Page 16

 117  0013              	MOV A,(1000-9)/0402h
 117  0013              ;# 117 "c:\users\tech\desktop\powerlinetransceiver\SmokeDetector\SmokeDetector.c" 1
 117  0013              	MOV _builtin_holtek_delay_2,A
 117  0013              ;# 117 "c:\users\tech\desktop\powerlinetransceiver\SmokeDetector\SmokeDetector.c" 1
 117  0013              	MOV A,0
 117  0013              ;# 117 "c:\users\tech\desktop\powerlinetransceiver\SmokeDetector\SmokeDetector.c" 1
 117  0013              	CALL __DELAYY5 +5- (((1000-9)%0402h)%6)
 117  0013              	ENDIF
 117  0013              ;# 117 "c:\users\tech\desktop\powerlinetransceiver\SmokeDetector\SmokeDetector.c" 1
 117  0013              	IF (1000 >= 0x40b) AND ((((1000-9)%0402h)/4+1)<=256)
 117  0013              ;# 117 "c:\users\tech\desktop\powerlinetransceiver\SmokeDetector\SmokeDetector.c" 1
 117  0013              	MOV A,(1000-9)/0402h
 117  0013              ;# 117 "c:\users\tech\desktop\powerlinetransceiver\SmokeDetector\SmokeDetector.c" 1
 117  0013              	MOV _builtin_holtek_delay_2,A
 117  0013              ;# 117 "c:\users\tech\desktop\powerlinetransceiver\SmokeDetector\SmokeDetector.c" 1
 117  0013              	MOV A,((1000-9)%0402h)/4+1
 117  0013              ;# 117 "c:\users\tech\desktop\powerlinetransceiver\SmokeDetector\SmokeDetector.c" 1
 117  0013              	CALL __DELAYY3 +3-(((1000-9)%0402h)%4)
 117  0013              	ENDIF
 118  0013              #line 118 "c:\users\tech\desktop\powerlinetransceiver\SmokeDetector\SmokeDetector.c"
 118  0013  2000     R  	call _ISINK0_OFF
 119  0014              #line 119 "c:\users\tech\desktop\powerlinetransceiver\SmokeDetector\SmokeDetector.c"
 119  0014  2000     R  	call _OPA_OFF
 120  0015              #line 120 "c:\users\tech\desktop\powerlinetransceiver\SmokeDetector\SmokeDetector.c"
 120  0015              ;# 120 "c:\users\tech\desktop\powerlinetransceiver\SmokeDetector\SmokeDetector.c" 1
 120  0015              	IF 1000>263690
 120  0015              ;# 120 "c:\users\tech\desktop\powerlinetransceiver\SmokeDetector\SmokeDetector.c" 1
 120  0015              	ERRMESSAGE 'the value 1000of the argument exceeds the maxinum 263690'
 120  0015              	ENDIF
 120  0015              ;# 120 "c:\users\tech\desktop\powerlinetransceiver\SmokeDetector\SmokeDetector.c" 1
 120  0015              	IF 1000<0
 120  0015              ;# 120 "c:\users\tech\desktop\powerlinetransceiver\SmokeDetector\SmokeDetector.c" 1
 120  0015              	ERRMESSAGE 'the value 1000 of the argument exceeds the mininum 0'
 120  0015              	ENDIF
 120  0015              ;# 120 "c:\users\tech\desktop\powerlinetransceiver\SmokeDetector\SmokeDetector.c" 1
 120  0015              	IF 1000==0
 120  0015              ;# 120 "c:\users\tech\desktop\powerlinetransceiver\SmokeDetector\SmokeDetector.c" 1
 120  0015              	JMP $
 120  0015              	ENDIF
 120  0015              ;# 120 "c:\users\tech\desktop\powerlinetransceiver\SmokeDetector\SmokeDetector.c" 1
 120  0015              	IF 1000==1
 120  0015              ;# 120 "c:\users\tech\desktop\powerlinetransceiver\SmokeDetector\SmokeDetector.c" 1
 120  0015              	NOP
 120  0015              	ENDIF
 120  0015              ;# 120 "c:\users\tech\desktop\powerlinetransceiver\SmokeDetector\SmokeDetector.c" 1
 120  0015              	IF 1000==2
 120  0015              ;# 120 "c:\users\tech\desktop\powerlinetransceiver\SmokeDetector\SmokeDetector.c" 1
 120  0015              	NOP
 120  0015              ;# 120 "c:\users\tech\desktop\powerlinetransceiver\SmokeDetector\SmokeDetector.c" 1
 120  0015              	NOP
 120  0015              	ENDIF
 120  0015              ;# 120 "c:\users\tech\desktop\powerlinetransceiver\SmokeDetector\SmokeDetector.c" 1
 120  0015              	IF 1000==3
 120  0015              ;# 120 "c:\users\tech\desktop\powerlinetransceiver\SmokeDetector\SmokeDetector.c" 1
 120  0015              	NOP
 120  0015              ;# 120 "c:\users\tech\desktop\powerlinetransceiver\SmokeDetector\SmokeDetector.c" 1
 120  0015              	NOP
 120  0015              ;# 120 "c:\users\tech\desktop\powerlinetransceiver\SmokeDetector\SmokeDetector.c" 1
 120  0015              	NOP
 120  0015              	ENDIF
"File: SmokeDetector.c  Assembler  Version HGASM0202      Page 17

 120  0015              ;# 120 "c:\users\tech\desktop\powerlinetransceiver\SmokeDetector\SmokeDetector.c" 1
 120  0015              	IF (1000<8) AND (1000>3)
 120  0015              ;# 120 "c:\users\tech\desktop\powerlinetransceiver\SmokeDetector\SmokeDetector.c" 1
 120  0015              	CALL __DELAY3 + 7 -1000
 120  0015              	ENDIF
 120  0015              ;# 120 "c:\users\tech\desktop\powerlinetransceiver\SmokeDetector\SmokeDetector.c" 1
 120  0015              	IF (1000< 0404h) AND (1000>7)
 120  0015              ;# 120 "c:\users\tech\desktop\powerlinetransceiver\SmokeDetector\SmokeDetector.c" 1
 120  0015  0FF9        	MOV A,1000/4-1
 120  0016              ;# 120 "c:\users\tech\desktop\powerlinetransceiver\SmokeDetector\SmokeDetector.c" 1
 120  0016  2000     E  	CALL __DELAYX3 + 3 -(1000 MOD 4)
 120  0017              	ENDIF
 120  0017              ;# 120 "c:\users\tech\desktop\powerlinetransceiver\SmokeDetector\SmokeDetector.c" 1
 120  0017              	IF (1000< 0x40B) AND (1000> 0403h)
 120  0017              ;# 120 "c:\users\tech\desktop\powerlinetransceiver\SmokeDetector\SmokeDetector.c" 1
 120  0017              	MOV A,0 
 120  0017              ;# 120 "c:\users\tech\desktop\powerlinetransceiver\SmokeDetector\SmokeDetector.c" 1
 120  0017              	CALL __DELAYX6 + 0x40a -1000
 120  0017              	ENDIF
 120  0017              ;# 120 "c:\users\tech\desktop\powerlinetransceiver\SmokeDetector\SmokeDetector.c" 1
 120  0017              	IF (1000 >= 0x40b) AND ((((1000-9)%0402h)/4+1)>256)
 120  0017              ;# 120 "c:\users\tech\desktop\powerlinetransceiver\SmokeDetector\SmokeDetector.c" 1
 120  0017              	MOV A,(1000-9)/0402h
 120  0017              ;# 120 "c:\users\tech\desktop\powerlinetransceiver\SmokeDetector\SmokeDetector.c" 1
 120  0017              	MOV _builtin_holtek_delay_2,A
 120  0017              ;# 120 "c:\users\tech\desktop\powerlinetransceiver\SmokeDetector\SmokeDetector.c" 1
 120  0017              	MOV A,0
 120  0017              ;# 120 "c:\users\tech\desktop\powerlinetransceiver\SmokeDetector\SmokeDetector.c" 1
 120  0017              	CALL __DELAYY5 +5- (((1000-9)%0402h)%6)
 120  0017              	ENDIF
 120  0017              ;# 120 "c:\users\tech\desktop\powerlinetransceiver\SmokeDetector\SmokeDetector.c" 1
 120  0017              	IF (1000 >= 0x40b) AND ((((1000-9)%0402h)/4+1)<=256)
 120  0017              ;# 120 "c:\users\tech\desktop\powerlinetransceiver\SmokeDetector\SmokeDetector.c" 1
 120  0017              	MOV A,(1000-9)/0402h
 120  0017              ;# 120 "c:\users\tech\desktop\powerlinetransceiver\SmokeDetector\SmokeDetector.c" 1
 120  0017              	MOV _builtin_holtek_delay_2,A
 120  0017              ;# 120 "c:\users\tech\desktop\powerlinetransceiver\SmokeDetector\SmokeDetector.c" 1
 120  0017              	MOV A,((1000-9)%0402h)/4+1
 120  0017              ;# 120 "c:\users\tech\desktop\powerlinetransceiver\SmokeDetector\SmokeDetector.c" 1
 120  0017              	CALL __DELAYY3 +3-(((1000-9)%0402h)%4)
 120  0017              	ENDIF
 121  0017              #line 121 "c:\users\tech\desktop\powerlinetransceiver\SmokeDetector\SmokeDetector.c"
 121  0017              ;# 121 "c:\users\tech\desktop\powerlinetransceiver\SmokeDetector\SmokeDetector.c" 1
 121  0017  0001        	clr wdt
 122  0018              #line 122 "c:\users\tech\desktop\powerlinetransceiver\SmokeDetector\SmokeDetector.c"
 122  0018              ;# 122 "c:\users\tech\desktop\powerlinetransceiver\SmokeDetector\SmokeDetector.c" 1
 122  0018              	IF 20000>263690
 122  0018              ;# 122 "c:\users\tech\desktop\powerlinetransceiver\SmokeDetector\SmokeDetector.c" 1
 122  0018              	ERRMESSAGE 'the value 20000of the argument exceeds the maxinum 263690'
 122  0018              	ENDIF
 122  0018              ;# 122 "c:\users\tech\desktop\powerlinetransceiver\SmokeDetector\SmokeDetector.c" 1
 122  0018              	IF 20000<0
 122  0018              ;# 122 "c:\users\tech\desktop\powerlinetransceiver\SmokeDetector\SmokeDetector.c" 1
 122  0018              	ERRMESSAGE 'the value 20000 of the argument exceeds the mininum 0'
 122  0018              	ENDIF
 122  0018              ;# 122 "c:\users\tech\desktop\powerlinetransceiver\SmokeDetector\SmokeDetector.c" 1
 122  0018              	IF 20000==0
 122  0018              ;# 122 "c:\users\tech\desktop\powerlinetransceiver\SmokeDetector\SmokeDetector.c" 1
 122  0018              	JMP $
 122  0018              	ENDIF
"File: SmokeDetector.c  Assembler  Version HGASM0202      Page 18

 122  0018              ;# 122 "c:\users\tech\desktop\powerlinetransceiver\SmokeDetector\SmokeDetector.c" 1
 122  0018              	IF 20000==1
 122  0018              ;# 122 "c:\users\tech\desktop\powerlinetransceiver\SmokeDetector\SmokeDetector.c" 1
 122  0018              	NOP
 122  0018              	ENDIF
 122  0018              ;# 122 "c:\users\tech\desktop\powerlinetransceiver\SmokeDetector\SmokeDetector.c" 1
 122  0018              	IF 20000==2
 122  0018              ;# 122 "c:\users\tech\desktop\powerlinetransceiver\SmokeDetector\SmokeDetector.c" 1
 122  0018              	NOP
 122  0018              ;# 122 "c:\users\tech\desktop\powerlinetransceiver\SmokeDetector\SmokeDetector.c" 1
 122  0018              	NOP
 122  0018              	ENDIF
 122  0018              ;# 122 "c:\users\tech\desktop\powerlinetransceiver\SmokeDetector\SmokeDetector.c" 1
 122  0018              	IF 20000==3
 122  0018              ;# 122 "c:\users\tech\desktop\powerlinetransceiver\SmokeDetector\SmokeDetector.c" 1
 122  0018              	NOP
 122  0018              ;# 122 "c:\users\tech\desktop\powerlinetransceiver\SmokeDetector\SmokeDetector.c" 1
 122  0018              	NOP
 122  0018              ;# 122 "c:\users\tech\desktop\powerlinetransceiver\SmokeDetector\SmokeDetector.c" 1
 122  0018              	NOP
 122  0018              	ENDIF
 122  0018              ;# 122 "c:\users\tech\desktop\powerlinetransceiver\SmokeDetector\SmokeDetector.c" 1
 122  0018              	IF (20000<8) AND (20000>3)
 122  0018              ;# 122 "c:\users\tech\desktop\powerlinetransceiver\SmokeDetector\SmokeDetector.c" 1
 122  0018              	CALL __DELAY3 + 7 -20000
 122  0018              	ENDIF
 122  0018              ;# 122 "c:\users\tech\desktop\powerlinetransceiver\SmokeDetector\SmokeDetector.c" 1
 122  0018              	IF (20000< 0404h) AND (20000>7)
 122  0018              ;# 122 "c:\users\tech\desktop\powerlinetransceiver\SmokeDetector\SmokeDetector.c" 1
 122  0018              	MOV A,20000/4-1
 122  0018              ;# 122 "c:\users\tech\desktop\powerlinetransceiver\SmokeDetector\SmokeDetector.c" 1
 122  0018              	CALL __DELAYX3 + 3 -(20000 MOD 4)
 122  0018              	ENDIF
 122  0018              ;# 122 "c:\users\tech\desktop\powerlinetransceiver\SmokeDetector\SmokeDetector.c" 1
 122  0018              	IF (20000< 0x40B) AND (20000> 0403h)
 122  0018              ;# 122 "c:\users\tech\desktop\powerlinetransceiver\SmokeDetector\SmokeDetector.c" 1
 122  0018              	MOV A,0 
 122  0018              ;# 122 "c:\users\tech\desktop\powerlinetransceiver\SmokeDetector\SmokeDetector.c" 1
 122  0018              	CALL __DELAYX6 + 0x40a -20000
 122  0018              	ENDIF
 122  0018              ;# 122 "c:\users\tech\desktop\powerlinetransceiver\SmokeDetector\SmokeDetector.c" 1
 122  0018              	IF (20000 >= 0x40b) AND ((((20000-9)%0402h)/4+1)>256)
 122  0018              ;# 122 "c:\users\tech\desktop\powerlinetransceiver\SmokeDetector\SmokeDetector.c" 1
 122  0018              	MOV A,(20000-9)/0402h
 122  0018              ;# 122 "c:\users\tech\desktop\powerlinetransceiver\SmokeDetector\SmokeDetector.c" 1
 122  0018              	MOV _builtin_holtek_delay_2,A
 122  0018              ;# 122 "c:\users\tech\desktop\powerlinetransceiver\SmokeDetector\SmokeDetector.c" 1
 122  0018              	MOV A,0
 122  0018              ;# 122 "c:\users\tech\desktop\powerlinetransceiver\SmokeDetector\SmokeDetector.c" 1
 122  0018              	CALL __DELAYY5 +5- (((20000-9)%0402h)%6)
 122  0018              	ENDIF
 122  0018              ;# 122 "c:\users\tech\desktop\powerlinetransceiver\SmokeDetector\SmokeDetector.c" 1
 122  0018              	IF (20000 >= 0x40b) AND ((((20000-9)%0402h)/4+1)<=256)
 122  0018              ;# 122 "c:\users\tech\desktop\powerlinetransceiver\SmokeDetector\SmokeDetector.c" 1
 122  0018  0F13        	MOV A,(20000-9)/0402h
 122  0019              ;# 122 "c:\users\tech\desktop\powerlinetransceiver\SmokeDetector\SmokeDetector.c" 1
 122  0019  0080     E  	MOV _builtin_holtek_delay_2,A
 122  001A              ;# 122 "c:\users\tech\desktop\powerlinetransceiver\SmokeDetector\SmokeDetector.c" 1
 122  001A  0F7D        	MOV A,((20000-9)%0402h)/4+1
 122  001B              ;# 122 "c:\users\tech\desktop\powerlinetransceiver\SmokeDetector\SmokeDetector.c" 1
"File: SmokeDetector.c  Assembler  Version HGASM0202      Page 19

 122  001B  2000     E  	CALL __DELAYY3 +3-(((20000-9)%0402h)%4)
 122  001C              	ENDIF
 123  001C              #line 123 "c:\users\tech\desktop\powerlinetransceiver\SmokeDetector\SmokeDetector.c"
 123  001C              ;# 123 "c:\users\tech\desktop\powerlinetransceiver\SmokeDetector\SmokeDetector.c" 1
 123  001C  0001        	clr wdt
 124  001D              #line 124 "c:\users\tech\desktop\powerlinetransceiver\SmokeDetector\SmokeDetector.c"
 124  001D              ;# 124 "c:\users\tech\desktop\powerlinetransceiver\SmokeDetector\SmokeDetector.c" 1
 124  001D              	IF 20000>263690
 124  001D              ;# 124 "c:\users\tech\desktop\powerlinetransceiver\SmokeDetector\SmokeDetector.c" 1
 124  001D              	ERRMESSAGE 'the value 20000of the argument exceeds the maxinum 263690'
 124  001D              	ENDIF
 124  001D              ;# 124 "c:\users\tech\desktop\powerlinetransceiver\SmokeDetector\SmokeDetector.c" 1
 124  001D              	IF 20000<0
 124  001D              ;# 124 "c:\users\tech\desktop\powerlinetransceiver\SmokeDetector\SmokeDetector.c" 1
 124  001D              	ERRMESSAGE 'the value 20000 of the argument exceeds the mininum 0'
 124  001D              	ENDIF
 124  001D              ;# 124 "c:\users\tech\desktop\powerlinetransceiver\SmokeDetector\SmokeDetector.c" 1
 124  001D              	IF 20000==0
 124  001D              ;# 124 "c:\users\tech\desktop\powerlinetransceiver\SmokeDetector\SmokeDetector.c" 1
 124  001D              	JMP $
 124  001D              	ENDIF
 124  001D              ;# 124 "c:\users\tech\desktop\powerlinetransceiver\SmokeDetector\SmokeDetector.c" 1
 124  001D              	IF 20000==1
 124  001D              ;# 124 "c:\users\tech\desktop\powerlinetransceiver\SmokeDetector\SmokeDetector.c" 1
 124  001D              	NOP
 124  001D              	ENDIF
 124  001D              ;# 124 "c:\users\tech\desktop\powerlinetransceiver\SmokeDetector\SmokeDetector.c" 1
 124  001D              	IF 20000==2
 124  001D              ;# 124 "c:\users\tech\desktop\powerlinetransceiver\SmokeDetector\SmokeDetector.c" 1
 124  001D              	NOP
 124  001D              ;# 124 "c:\users\tech\desktop\powerlinetransceiver\SmokeDetector\SmokeDetector.c" 1
 124  001D              	NOP
 124  001D              	ENDIF
 124  001D              ;# 124 "c:\users\tech\desktop\powerlinetransceiver\SmokeDetector\SmokeDetector.c" 1
 124  001D              	IF 20000==3
 124  001D              ;# 124 "c:\users\tech\desktop\powerlinetransceiver\SmokeDetector\SmokeDetector.c" 1
 124  001D              	NOP
 124  001D              ;# 124 "c:\users\tech\desktop\powerlinetransceiver\SmokeDetector\SmokeDetector.c" 1
 124  001D              	NOP
 124  001D              ;# 124 "c:\users\tech\desktop\powerlinetransceiver\SmokeDetector\SmokeDetector.c" 1
 124  001D              	NOP
 124  001D              	ENDIF
 124  001D              ;# 124 "c:\users\tech\desktop\powerlinetransceiver\SmokeDetector\SmokeDetector.c" 1
 124  001D              	IF (20000<8) AND (20000>3)
 124  001D              ;# 124 "c:\users\tech\desktop\powerlinetransceiver\SmokeDetector\SmokeDetector.c" 1
 124  001D              	CALL __DELAY3 + 7 -20000
 124  001D              	ENDIF
 124  001D              ;# 124 "c:\users\tech\desktop\powerlinetransceiver\SmokeDetector\SmokeDetector.c" 1
 124  001D              	IF (20000< 0404h) AND (20000>7)
 124  001D              ;# 124 "c:\users\tech\desktop\powerlinetransceiver\SmokeDetector\SmokeDetector.c" 1
 124  001D              	MOV A,20000/4-1
 124  001D              ;# 124 "c:\users\tech\desktop\powerlinetransceiver\SmokeDetector\SmokeDetector.c" 1
 124  001D              	CALL __DELAYX3 + 3 -(20000 MOD 4)
 124  001D              	ENDIF
 124  001D              ;# 124 "c:\users\tech\desktop\powerlinetransceiver\SmokeDetector\SmokeDetector.c" 1
 124  001D              	IF (20000< 0x40B) AND (20000> 0403h)
 124  001D              ;# 124 "c:\users\tech\desktop\powerlinetransceiver\SmokeDetector\SmokeDetector.c" 1
 124  001D              	MOV A,0 
 124  001D              ;# 124 "c:\users\tech\desktop\powerlinetransceiver\SmokeDetector\SmokeDetector.c" 1
 124  001D              	CALL __DELAYX6 + 0x40a -20000
"File: SmokeDetector.c  Assembler  Version HGASM0202      Page 20

 124  001D              	ENDIF
 124  001D              ;# 124 "c:\users\tech\desktop\powerlinetransceiver\SmokeDetector\SmokeDetector.c" 1
 124  001D              	IF (20000 >= 0x40b) AND ((((20000-9)%0402h)/4+1)>256)
 124  001D              ;# 124 "c:\users\tech\desktop\powerlinetransceiver\SmokeDetector\SmokeDetector.c" 1
 124  001D              	MOV A,(20000-9)/0402h
 124  001D              ;# 124 "c:\users\tech\desktop\powerlinetransceiver\SmokeDetector\SmokeDetector.c" 1
 124  001D              	MOV _builtin_holtek_delay_2,A
 124  001D              ;# 124 "c:\users\tech\desktop\powerlinetransceiver\SmokeDetector\SmokeDetector.c" 1
 124  001D              	MOV A,0
 124  001D              ;# 124 "c:\users\tech\desktop\powerlinetransceiver\SmokeDetector\SmokeDetector.c" 1
 124  001D              	CALL __DELAYY5 +5- (((20000-9)%0402h)%6)
 124  001D              	ENDIF
 124  001D              ;# 124 "c:\users\tech\desktop\powerlinetransceiver\SmokeDetector\SmokeDetector.c" 1
 124  001D              	IF (20000 >= 0x40b) AND ((((20000-9)%0402h)/4+1)<=256)
 124  001D              ;# 124 "c:\users\tech\desktop\powerlinetransceiver\SmokeDetector\SmokeDetector.c" 1
 124  001D  0F13        	MOV A,(20000-9)/0402h
 124  001E              ;# 124 "c:\users\tech\desktop\powerlinetransceiver\SmokeDetector\SmokeDetector.c" 1
 124  001E  0080     E  	MOV _builtin_holtek_delay_2,A
 124  001F              ;# 124 "c:\users\tech\desktop\powerlinetransceiver\SmokeDetector\SmokeDetector.c" 1
 124  001F  0F7D        	MOV A,((20000-9)%0402h)/4+1
 124  0020              ;# 124 "c:\users\tech\desktop\powerlinetransceiver\SmokeDetector\SmokeDetector.c" 1
 124  0020  2000     E  	CALL __DELAYY3 +3-(((20000-9)%0402h)%4)
 124  0021              	ENDIF
 125  0021              #line 125 "c:\users\tech\desktop\powerlinetransceiver\SmokeDetector\SmokeDetector.c"
 125  0021  0F01        	mov a,1
 125  0022  0080     E  	mov ra,a
 125  0023  0700     R  	mov a,_CheckSmokeLevel_2[0]
 125  0024  0083        	mov mp,a
 125  0025  0700     R  	mov a,_CheckSmokeLevel_2[1]
 125  0026  0084        	mov sbp,a
 125  0027  2000     E  	call _Crom2Prom
 125  0028  0080     E  	mov rb,a
 125  0029  2000     E  	call _Crom2PromNext
 125  002A  0080     E  	mov rc,a
 125  002B  0FA0        	mov a,160
 125  002C  0200     E  	sub a,rb
 125  002D  0F0F        	mov a,15
 125  002E  1200     E  	sbc a,rc
 125  002F  380A        	snz c
 125  0030  2800     R  	jmp _L32
 125  0031              #line 125 "c:\users\tech\desktop\powerlinetransceiver\SmokeDetector\SmokeDetector.c"
 125  0031  1F00     E  	clr ra
 125  0032              _L32:
 135  0032              #line 135 "c:\users\tech\desktop\powerlinetransceiver\SmokeDetector\SmokeDetector.c"
 135  0032  0700     E  	mov a,ra
 135  0033  0003        	ret
 135  0034              _CheckSmokeLevel endp
 135  0034              #line 135 "c:\users\tech\desktop\powerlinetransceiver\SmokeDetector\SmokeDetector.c"
 135  0034              #pragma debug scope 1 1
 135  0034              public _SmokeDitectionOFF
 135  0034              #pragma debug scope 16 1
 234  0034              #line 234 "c:\users\tech\desktop\powerlinetransceiver\SmokeDetector\SmokeDetector.c"
 234  0000              _SmokeDitectionOFF .section 'code'
 234  0000              _SmokeDitectionOFF proc
 237  0000              #line 237 "c:\users\tech\desktop\powerlinetransceiver\SmokeDetector\SmokeDetector.c"
 237  0000  2000     R  	call _ISINK0_OFF
 238  0001              #line 238 "c:\users\tech\desktop\powerlinetransceiver\SmokeDetector\SmokeDetector.c"
 238  0001  2000     R  	call _ISINK1_OFF
 239  0002              #line 239 "c:\users\tech\desktop\powerlinetransceiver\SmokeDetector\SmokeDetector.c"
 239  0002  2000     R  	call _OPA_OFF
"File: SmokeDetector.c  Assembler  Version HGASM0202      Page 21

 239  0003  0003        	ret
 239  0004              _SmokeDitectionOFF endp
 239  0004              #line 239 "c:\users\tech\desktop\powerlinetransceiver\SmokeDetector\SmokeDetector.c"
 239  0004              #pragma debug scope 1 1
 239  0004              #pragma debug struct_end
 239  0004              #pragma debug struct_end
 239  0004              #pragma debug union_end
 239  0004              #pragma debug union_end
 239  0004              #pragma debug variable 44 1 ___sdsw "__sdsw" 1
 239  0004              #pragma debug struct_end
 239  0004              #pragma debug struct_end
 239  0004              #pragma debug union_end
 239  0004              #pragma debug union_end
 239  0004              #pragma debug variable 46 1 ___sdpgac0 "__sdpgac0" 1
 239  0004              #pragma debug struct_end
 239  0004              #pragma debug struct_end
 239  0004              #pragma debug union_end
 239  0004              #pragma debug union_end
 239  0004              #pragma debug variable 48 1 ___sdpgac1 "__sdpgac1" 1
 239  0004              #pragma debug struct_end
 239  0004              #pragma debug struct_end
 239  0004              #pragma debug union_end
 239  0004              #pragma debug union_end
 239  0004              #pragma debug variable 50 1 ___sda0c "__sda0c" 1
 239  0004              #pragma debug struct_end
 239  0004              #pragma debug struct_end
 239  0004              #pragma debug union_end
 239  0004              #pragma debug union_end
 239  0004              #pragma debug variable 52 1 ___sda0vos "__sda0vos" 1
 239  0004              #pragma debug struct_end
 239  0004              #pragma debug struct_end
 239  0004              #pragma debug union_end
 239  0004              #pragma debug union_end
 239  0004              #pragma debug variable 54 1 ___sda1c "__sda1c" 1
 239  0004              #pragma debug struct_end
 239  0004              #pragma debug struct_end
 239  0004              #pragma debug union_end
 239  0004              #pragma debug union_end
 239  0004              #pragma debug variable 56 1 ___sda1vos "__sda1vos" 1
 239  0004              #pragma debug struct_end
 239  0004              #pragma debug struct_end
 239  0004              #pragma debug union_end
 239  0004              #pragma debug union_end
 239  0004              #pragma debug variable 58 1 ___isgenc "__isgenc" 1
 239  0004              #pragma debug variable 8 1 ___isgdata0 "__isgdata0" 1
 239  0004              #pragma debug variable 8 1 ___isgdata1 "__isgdata1" 1
 239  0004              extern _ReadADC:near
 239  0004              
 239  0004              ; 
 239  0004              ; Generated by holtek-gcc v3.19, Sat Nov 30 17:42:17 2024
 239  0004              ; Rebuild 718
 239  0004              ; end of file


        0 Errors, 0