"File: SmokeDetector.c  Assembler  Version HGASM0202      Page 1


   1  0000              ; Generated by holtek-gcc v3.19, Mon Sep 16 17:32:17 2024
   2  0000              ; 
   3  0000              ; Configuration:
   4  0000              ;       with long instruction
   5  0000              ;       Single ROM, Multi-RAM
   6  0000              ;       bits_per_rom_unit:16
   7  0000              ;       with mp1
   8  0000              ;       with tbhp, address(0x9)
   9  0000              ;          Use tabrd-const
  10  0000              ;       
  11  0000              ; SFR address of long-instruction arch:
  12  0000              ;    mp0 = -1,1,0
  13  0000              ;    mp1 = 4,3,2
  14  0000              ;    mp2 = 14,13,12
  15  0000              ;    tbp = 9,7,8
  16  0000              ;    acc = 5
  17  0000              ;    pcl = 6
  18  0000              ;    status = 10
  19  0000              ;    bp = 11
  20  0000              ;    intc = 72
  21  0000              ;       
  22  0000              ;       
  23  0000              ; use 'tabrdc' instead of 'tabrd'
  24  0000              ;       
  25  0000              
  26  0000              #pragma translator "holtek-gcc 4.6.4" "3.19" "build 20130711"
  27  0000              ; Rebuild 718
  28  0000              
  29  0000              ir equ [2]
  30  0000              mp equ [3]
  31  0000              sbp equ [4]
  32  0000              acc equ [5]
  33  0000              bp equ [11]
  34  0000              tblp equ [7]
  35  0000              tbhp equ [9]
  36  0000              status equ [10]
  37  0000              c equ [10].0
  38  0000              ac equ [10].1
  39  0000              z equ [10].2
  40  0000              ov equ [10].3
  41  0000              cz equ [10].6
  42  0000              sc equ [10].7
  43  0000              intc equ [72]
  44  0000              
  45  0000              extern ra:byte
  46  0000              extern rb:byte
  47  0000              extern rc:byte
  48  0000              extern rd:byte
  49  0000              extern re:byte
  50  0000              extern rf:byte
  51  0000              extern rg:byte
  52  0000              extern rh:byte
  53  0000              extern _Crom2Prom:near
  54  0000              extern _Crom2PromNext:near
  55  0000              
  56  0000              RAMBANK 0 @BITDATASEC, @BITDATASEC1
  57  0000              @HCCINIT	.section 'data'
  58  0000              @HCCINIT0	.section 'data'
  59  0000              @BITDATASEC	 .section 'data'
"File: SmokeDetector.ASM  Assembler  Version HGASM0202      Page 2

  60  0000              @BITDATASEC1	 .section 'data'
  61  0000              
  62  0000              #pragma debug scope 1 1
  63  0000              	extern __DELAY3:near
  64  0000              	extern __DELAYX3:near
  65  0000              	extern __DELAYX6:near
  66  0000              	extern __DELAYY5:near
  67  0000              	extern __DELAYY3:near
  68  0000              	extern _builtin_holtek_delay_2:byte
  69  0000              ___sda0c equ [35]
  70  0000              ___sdsw equ [32]
  71  0000              ___sda0vos equ [36]
  72  0000              ___sdpgac0 equ [33]
  73  0000              ___sda1c equ [37]
  74  0000              ___sda1vos equ [38]
  75  0000              ___sdpgac1 equ [34]
  76  0000              public _InitOPA
  77  0000              #pragma debug scope 2 1

  24  0000              #line 24 "c:\users\tech\desktop\powerlinetransceiver\SmokeDetector\SmokeDetector.c"
  24  0000              _InitOPA .section 'code'
  24  0000              _InitOPA proc
  27  0000              #line 27 "c:\users\tech\desktop\powerlinetransceiver\SmokeDetector\SmokeDetector.c"
  27  0000  3323        	set [35].6
  28  0001              #line 28 "c:\users\tech\desktop\powerlinetransceiver\SmokeDetector\SmokeDetector.c"
  28  0001  30A3        	set [35].1
  29  0002              #line 29 "c:\users\tech\desktop\powerlinetransceiver\SmokeDetector\SmokeDetector.c"
  29  0002  3023        	set [35].0
  32  0003              #line 32 "c:\users\tech\desktop\powerlinetransceiver\SmokeDetector\SmokeDetector.c"
  32  0003  3020        	set [32].0
  33  0004              #line 33 "c:\users\tech\desktop\powerlinetransceiver\SmokeDetector\SmokeDetector.c"
  33  0004  34A0        	clr [32].1
  34  0005              #line 34 "c:\users\tech\desktop\powerlinetransceiver\SmokeDetector\SmokeDetector.c"
  34  0005  3520        	clr [32].2
  42  0006              #line 42 "c:\users\tech\desktop\powerlinetransceiver\SmokeDetector\SmokeDetector.c"
  42  0006  35A0        	clr [32].3
  43  0007              #line 43 "c:\users\tech\desktop\powerlinetransceiver\SmokeDetector\SmokeDetector.c"
  43  0007  3620        	clr [32].4
  46  0008              #line 46 "c:\users\tech\desktop\powerlinetransceiver\SmokeDetector\SmokeDetector.c"
  46  0008  37A4        	clr [36].7
  47  0009              #line 47 "c:\users\tech\desktop\powerlinetransceiver\SmokeDetector\SmokeDetector.c"
  47  0009  3724        	clr [36].6
  50  000A              #line 50 "c:\users\tech\desktop\powerlinetransceiver\SmokeDetector\SmokeDetector.c"
  50  000A  0F3F        	mov a,63
  50  000B  05A1        	orm a,[33]
  56  000C              #line 56 "c:\users\tech\desktop\powerlinetransceiver\SmokeDetector\SmokeDetector.c"
  56  000C  3325        	set [37].6
  57  000D              #line 57 "c:\users\tech\desktop\powerlinetransceiver\SmokeDetector\SmokeDetector.c"
  57  000D  30A5        	set [37].1
  58  000E              #line 58 "c:\users\tech\desktop\powerlinetransceiver\SmokeDetector\SmokeDetector.c"
  58  000E  3025        	set [37].0
  61  000F              #line 61 "c:\users\tech\desktop\powerlinetransceiver\SmokeDetector\SmokeDetector.c"
  61  000F  32A0        	set [32].5
  62  0010              #line 62 "c:\users\tech\desktop\powerlinetransceiver\SmokeDetector\SmokeDetector.c"
  62  0010  3320        	set [32].6
  65  0011              #line 65 "c:\users\tech\desktop\powerlinetransceiver\SmokeDetector\SmokeDetector.c"
  65  0011  37A6        	clr [38].7
  66  0012              #line 66 "c:\users\tech\desktop\powerlinetransceiver\SmokeDetector\SmokeDetector.c"
  66  0012  3726        	clr [38].6
  69  0013              #line 69 "c:\users\tech\desktop\powerlinetransceiver\SmokeDetector\SmokeDetector.c"
"File: SmokeDetector.c  Assembler  Version HGASM0202      Page 3

  69  0013  3022        	set [34].0
  70  0014              #line 70 "c:\users\tech\desktop\powerlinetransceiver\SmokeDetector\SmokeDetector.c"
  70  0014  3722        	clr [34].6
  71  0015              #line 71 "c:\users\tech\desktop\powerlinetransceiver\SmokeDetector\SmokeDetector.c"
  71  0015  0722        	mov a,[34]
  71  0016  0E80        	and a,128
  71  0017  0080     E  	mov ra,a
  71  0018  37A2        	clr [34].7
  71  0019  0700     E  	mov a,ra
  71  001A  05A2        	orm a,[34]
  74  001B              #line 74 "c:\users\tech\desktop\powerlinetransceiver\SmokeDetector\SmokeDetector.c"
  74  001B  33A6        	set [38].7
  75  001C              #line 75 "c:\users\tech\desktop\powerlinetransceiver\SmokeDetector\SmokeDetector.c"
  75  001C  3326        	set [38].6
  75  001D  0003        	ret
  75  001E              _InitOPA endp
  75  001E              #line 75 "c:\users\tech\desktop\powerlinetransceiver\SmokeDetector\SmokeDetector.c"
  75  001E              #pragma debug scope 1 1
  75  001E              ___isgenc equ [93]
  75  001E              ___isgdata0 equ [94]
  75  001E              ___isgdata1 equ [95]
  75  001E              public _InitISINK
  75  001E              #pragma debug scope 3 1
  82  001E              #line 82 "c:\users\tech\desktop\powerlinetransceiver\SmokeDetector\SmokeDetector.c"
  82  0000              _InitISINK .section 'code'
  82  0000              _InitISINK proc
  83  0000              #line 83 "c:\users\tech\desktop\powerlinetransceiver\SmokeDetector\SmokeDetector.c"
  83  0000  33DD        	set [93].7
  85  0001              #line 85 "c:\users\tech\desktop\powerlinetransceiver\SmokeDetector\SmokeDetector.c"
  85  0001  305D        	set [93].0
  86  0002              #line 86 "c:\users\tech\desktop\powerlinetransceiver\SmokeDetector\SmokeDetector.c"
  86  0002  1F5E        	clr [94]
  90  0003              #line 90 "c:\users\tech\desktop\powerlinetransceiver\SmokeDetector\SmokeDetector.c"
  90  0003  1F00     E  	clr ra
  90  0004  3CDD        	sz [93].1
  90  0005  1480     E  	inc ra
  90  0006  0700     E  	mov a,ra
  90  0007  0380     E  	addm a,ra
  90  0008  34DD        	clr [93].1
  90  0009  0700     E  	mov a,ra
  90  000A  05DD        	orm a,[93]
  91  000B              #line 91 "c:\users\tech\desktop\powerlinetransceiver\SmokeDetector\SmokeDetector.c"
  91  000B  305F        	set [95].0
  91  000C  0003        	ret
  91  000D              _InitISINK endp
  91  000D              #line 91 "c:\users\tech\desktop\powerlinetransceiver\SmokeDetector\SmokeDetector.c"
  91  000D              #pragma debug scope 1 1
  91  000D              public _CalibrateOPA0
  91  000D              #pragma debug scope 4 1
 104  000D              #line 104 "c:\users\tech\desktop\powerlinetransceiver\SmokeDetector\SmokeDetector.c"
 104  0000              _CalibrateOPA0 .section 'code'
 104  0000              _CalibrateOPA0 proc
 109  0000              #line 109 "c:\users\tech\desktop\powerlinetransceiver\SmokeDetector\SmokeDetector.c"
 109  0000  33A4        	set [36].7
 110  0001              #line 110 "c:\users\tech\desktop\powerlinetransceiver\SmokeDetector\SmokeDetector.c"
 110  0001  3324        	set [36].6
 113  0002              #line 113 "c:\users\tech\desktop\powerlinetransceiver\SmokeDetector\SmokeDetector.c"
 113  0002  35A0        	clr [32].3
 114  0003              #line 114 "c:\users\tech\desktop\powerlinetransceiver\SmokeDetector\SmokeDetector.c"
 114  0003  3220        	set [32].4
"File: SmokeDetector.c  Assembler  Version HGASM0202      Page 4

 114  0004              _L5:
 118  0004              #line 118 "c:\users\tech\desktop\powerlinetransceiver\SmokeDetector\SmokeDetector.c"
 118  0004  3AA3        	snz [35].5
 118  0005  2800     R  	jmp _L5
 118  0006  1F00     E  	clr ra
 118  0007              _L7:
 122  0007              #line 122 "c:\users\tech\desktop\powerlinetransceiver\SmokeDetector\SmokeDetector.c"
 122  0007  0700     E  	mov a,ra
 122  0008  05A4        	orm a,[36]
 124  0009              #line 124 "c:\users\tech\desktop\powerlinetransceiver\SmokeDetector\SmokeDetector.c"
 124  0009  3EA3        	sz [35].5
 124  000A  2800     R  	jmp _L12
 120  000B              #line 120 "c:\users\tech\desktop\powerlinetransceiver\SmokeDetector\SmokeDetector.c"
 120  000B  1480     E  	inc ra
 120  000C  0700     E  	mov a,ra
 120  000D  0A40        	sub a,64
 120  000E  390A        	snz z
 120  000F  2800     R  	jmp _L7
 120  0010  2800     R  	jmp _L6
 120  0011              _L12:
 120  0011  0700     E  	mov a,ra
 120  0012  0080     E  	mov rb,a
 120  0013              _L6:
 132  0013              #line 132 "c:\users\tech\desktop\powerlinetransceiver\SmokeDetector\SmokeDetector.c"
 132  0013  0F3F        	mov a,63
 132  0014  05A4        	orm a,[36]
 132  0015              _L9:
 133  0015              #line 133 "c:\users\tech\desktop\powerlinetransceiver\SmokeDetector\SmokeDetector.c"
 133  0015  3EA3        	sz [35].5
 133  0016  2800     R  	jmp _L9
 133  0017  0F3F        	mov a,63
 133  0018  0080     E  	mov ra,a
 133  0019              _L11:
 137  0019              #line 137 "c:\users\tech\desktop\powerlinetransceiver\SmokeDetector\SmokeDetector.c"
 137  0019  0700     E  	mov a,ra
 137  001A  0E3F        	and a,63
 137  001B  0080     E  	mov rc,a
 137  001C  0700     E  	mov a,rc
 137  001D  05A4        	orm a,[36]
 138  001E              #line 138 "c:\users\tech\desktop\powerlinetransceiver\SmokeDetector\SmokeDetector.c"
 138  001E  3EA3        	sz [35].5
 138  001F  2800     R  	jmp _L10
 146  0020              #line 146 "c:\users\tech\desktop\powerlinetransceiver\SmokeDetector\SmokeDetector.c"
 146  0020  0700     E  	mov a,rb
 146  0021  0380     E  	addm a,ra
 146  0022  1B80     E  	rrc ra
 147  0023              #line 147 "c:\users\tech\desktop\powerlinetransceiver\SmokeDetector\SmokeDetector.c"
 147  0023  0F3F        	mov a,63
 147  0024  0680     E  	andm a,ra
 147  0025  0700     E  	mov a,ra
 147  0026  05A4        	orm a,[36]
 150  0027              #line 150 "c:\users\tech\desktop\powerlinetransceiver\SmokeDetector\SmokeDetector.c"
 150  0027  31A0        	set [32].3
 151  0028              #line 151 "c:\users\tech\desktop\powerlinetransceiver\SmokeDetector\SmokeDetector.c"
 151  0028  3620        	clr [32].4
 151  0029  2800     R  	jmp _L18
 151  002A              _L10:
 135  002A              #line 135 "c:\users\tech\desktop\powerlinetransceiver\SmokeDetector\SmokeDetector.c"
 135  002A  1580     E  	dec ra
 143  002B              #line 143 "c:\users\tech\desktop\powerlinetransceiver\SmokeDetector\SmokeDetector.c"
"File: SmokeDetector.c  Assembler  Version HGASM0202      Page 5

 143  002B  2800     R  	jmp _L11
 143  002C              _L18:
 143  002C  0003        	ret
 143  002D              _CalibrateOPA0 endp
 143  002D              #line 143 "c:\users\tech\desktop\powerlinetransceiver\SmokeDetector\SmokeDetector.c"
 143  002D              #pragma debug scope 1 1
 143  002D              public _CalibrateOPA1
 143  002D              #pragma debug scope 5 1
 157  002D              #line 157 "c:\users\tech\desktop\powerlinetransceiver\SmokeDetector\SmokeDetector.c"
 157  0000              _CalibrateOPA1 .section 'code'
 157  0000              _CalibrateOPA1 proc
 162  0000              #line 162 "c:\users\tech\desktop\powerlinetransceiver\SmokeDetector\SmokeDetector.c"
 162  0000  33A6        	set [38].7
 163  0001              #line 163 "c:\users\tech\desktop\powerlinetransceiver\SmokeDetector\SmokeDetector.c"
 163  0001  3326        	set [38].6
 166  0002              #line 166 "c:\users\tech\desktop\powerlinetransceiver\SmokeDetector\SmokeDetector.c"
 166  0002  35A0        	clr [32].3
 167  0003              #line 167 "c:\users\tech\desktop\powerlinetransceiver\SmokeDetector\SmokeDetector.c"
 167  0003  3220        	set [32].4
 173  0004              #line 173 "c:\users\tech\desktop\powerlinetransceiver\SmokeDetector\SmokeDetector.c"
 173  0004  1F00     E  	clr ra
 173  0005              _L21:
 175  0005              #line 175 "c:\users\tech\desktop\powerlinetransceiver\SmokeDetector\SmokeDetector.c"
 175  0005  0700     E  	mov a,ra
 175  0006  05A6        	orm a,[38]
 177  0007              #line 177 "c:\users\tech\desktop\powerlinetransceiver\SmokeDetector\SmokeDetector.c"
 177  0007  3EA5        	sz [37].5
 177  0008  2800     R  	jmp _L24
 173  0009              #line 173 "c:\users\tech\desktop\powerlinetransceiver\SmokeDetector\SmokeDetector.c"
 173  0009  1480     E  	inc ra
 173  000A  0700     E  	mov a,ra
 173  000B  0A40        	sub a,64
 173  000C  390A        	snz z
 173  000D  2800     R  	jmp _L21
 173  000E  2800     R  	jmp _L20
 173  000F              _L24:
 173  000F  0700     E  	mov a,ra
 173  0010  0080     E  	mov rb,a
 173  0011              _L20:
 185  0011              #line 185 "c:\users\tech\desktop\powerlinetransceiver\SmokeDetector\SmokeDetector.c"
 185  0011  0F3F        	mov a,63
 185  0012  05A6        	orm a,[38]
 188  0013              #line 188 "c:\users\tech\desktop\powerlinetransceiver\SmokeDetector\SmokeDetector.c"
 188  0013  0F3F        	mov a,63
 188  0014  0080     E  	mov ra,a
 188  0015              _L23:
 190  0015              #line 190 "c:\users\tech\desktop\powerlinetransceiver\SmokeDetector\SmokeDetector.c"
 190  0015  0700     E  	mov a,ra
 190  0016  0E3F        	and a,63
 190  0017  0080     E  	mov rc,a
 190  0018  0700     E  	mov a,rc
 190  0019  05A6        	orm a,[38]
 191  001A              #line 191 "c:\users\tech\desktop\powerlinetransceiver\SmokeDetector\SmokeDetector.c"
 191  001A  3EA5        	sz [37].5
 191  001B  2800     R  	jmp _L22
 199  001C              #line 199 "c:\users\tech\desktop\powerlinetransceiver\SmokeDetector\SmokeDetector.c"
 199  001C  0700     E  	mov a,rb
 199  001D  0380     E  	addm a,ra
 199  001E  1B80     E  	rrc ra
 200  001F              #line 200 "c:\users\tech\desktop\powerlinetransceiver\SmokeDetector\SmokeDetector.c"
"File: SmokeDetector.c  Assembler  Version HGASM0202      Page 6

 200  001F  0F3F        	mov a,63
 200  0020  0680     E  	andm a,ra
 200  0021  0700     E  	mov a,ra
 200  0022  05A6        	orm a,[38]
 203  0023              #line 203 "c:\users\tech\desktop\powerlinetransceiver\SmokeDetector\SmokeDetector.c"
 203  0023  31A0        	set [32].3
 204  0024              #line 204 "c:\users\tech\desktop\powerlinetransceiver\SmokeDetector\SmokeDetector.c"
 204  0024  3620        	clr [32].4
 204  0025  2800     R  	jmp _L29
 204  0026              _L22:
 188  0026              #line 188 "c:\users\tech\desktop\powerlinetransceiver\SmokeDetector\SmokeDetector.c"
 188  0026  1580     E  	dec ra
 196  0027              #line 196 "c:\users\tech\desktop\powerlinetransceiver\SmokeDetector\SmokeDetector.c"
 196  0027  2800     R  	jmp _L23
 196  0028              _L29:
 196  0028  0003        	ret
 196  0029              _CalibrateOPA1 endp
 196  0029              #line 196 "c:\users\tech\desktop\powerlinetransceiver\SmokeDetector\SmokeDetector.c"
 196  0029              #pragma debug scope 1 1
 196  0029              public _InitSmokeDetection
 196  0029              #pragma debug scope 6 1
 209  0029              #line 209 "c:\users\tech\desktop\powerlinetransceiver\SmokeDetector\SmokeDetector.c"
 209  0000              _InitSmokeDetection .section 'code'
 209  0000              _InitSmokeDetection proc
 212  0000              #line 212 "c:\users\tech\desktop\powerlinetransceiver\SmokeDetector\SmokeDetector.c"
 212  0000  2000     R  	call _CalibrateOPA0
 216  0001              #line 216 "c:\users\tech\desktop\powerlinetransceiver\SmokeDetector\SmokeDetector.c"
 216  0001  2000     R  	call _CalibrateOPA1
 218  0002              #line 218 "c:\users\tech\desktop\powerlinetransceiver\SmokeDetector\SmokeDetector.c"
 218  0002  2000     R  	call _InitOPA
 219  0003              #line 219 "c:\users\tech\desktop\powerlinetransceiver\SmokeDetector\SmokeDetector.c"
 219  0003  2000     R  	call _InitISINK
 220  0004              #line 220 "c:\users\tech\desktop\powerlinetransceiver\SmokeDetector\SmokeDetector.c"
 220  0004  2000     E  	call _ADCInit
 220  0005  0003        	ret
 220  0006              _InitSmokeDetection endp
 220  0006              #line 220 "c:\users\tech\desktop\powerlinetransceiver\SmokeDetector\SmokeDetector.c"
 220  0006              #pragma debug scope 1 1
 220  0006              public _CheckSmokeLevel
 220  0006              #pragma debug scope 7 1
 225  0006              #line 225 "c:\users\tech\desktop\powerlinetransceiver\SmokeDetector\SmokeDetector.c"
 225  0000              _CheckSmokeLevel .section 'code'
 225  0000              _CheckSmokeLevel proc
 229  0000              #line 229 "c:\users\tech\desktop\powerlinetransceiver\SmokeDetector\SmokeDetector.c"
 229  0000  0F06        	mov a,6
 229  0001  2000     E  	call _ReadADC
 229  0002  0003        	ret
 229  0003              _CheckSmokeLevel endp
 229  0003              #line 229 "c:\users\tech\desktop\powerlinetransceiver\SmokeDetector\SmokeDetector.c"
 229  0003              #pragma debug scope 1 1
 229  0003              public _TriggerAlarm
 229  0003              #pragma debug scope 8 1
 242  0003              #line 242 "c:\users\tech\desktop\powerlinetransceiver\SmokeDetector\SmokeDetector.c"
 242  0000              _TriggerAlarm .section 'code'
 242  0000              _TriggerAlarm proc
 242  0000  0003        	ret
 242  0001              _TriggerAlarm endp
 242  0001              #line 242 "c:\users\tech\desktop\powerlinetransceiver\SmokeDetector\SmokeDetector.c"
 242  0001              #pragma debug scope 1 1
 242  0001              public _ResetAlarm
"File: SmokeDetector.c  Assembler  Version HGASM0202      Page 7

 242  0001              #pragma debug scope 9 1
 248  0001              #line 248 "c:\users\tech\desktop\powerlinetransceiver\SmokeDetector\SmokeDetector.c"
 248  0000              _ResetAlarm .section 'code'
 248  0000              _ResetAlarm proc
 248  0000  0003        	ret
 248  0001              _ResetAlarm endp
 248  0001              #line 248 "c:\users\tech\desktop\powerlinetransceiver\SmokeDetector\SmokeDetector.c"
 248  0001              #pragma debug scope 1 1
 248  0001              #pragma debug struct_end
 248  0001              #pragma debug struct_end
 248  0001              #pragma debug union_end
 248  0001              #pragma debug union_end
 248  0001              #pragma debug variable 43 1 ___sdsw "__sdsw" 1
 248  0001              #pragma debug struct_end
 248  0001              #pragma debug struct_end
 248  0001              #pragma debug union_end
 248  0001              #pragma debug union_end
 248  0001              #pragma debug variable 45 1 ___sdpgac0 "__sdpgac0" 1
 248  0001              #pragma debug struct_end
 248  0001              #pragma debug struct_end
 248  0001              #pragma debug union_end
 248  0001              #pragma debug union_end
 248  0001              #pragma debug variable 47 1 ___sdpgac1 "__sdpgac1" 1
 248  0001              #pragma debug struct_end
 248  0001              #pragma debug struct_end
 248  0001              #pragma debug union_end
 248  0001              #pragma debug union_end
 248  0001              #pragma debug variable 49 1 ___sda0c "__sda0c" 1
 248  0001              #pragma debug struct_end
 248  0001              #pragma debug struct_end
 248  0001              #pragma debug union_end
 248  0001              #pragma debug union_end
 248  0001              #pragma debug variable 51 1 ___sda0vos "__sda0vos" 1
 248  0001              #pragma debug struct_end
 248  0001              #pragma debug struct_end
 248  0001              #pragma debug union_end
 248  0001              #pragma debug union_end
 248  0001              #pragma debug variable 53 1 ___sda1c "__sda1c" 1
 248  0001              #pragma debug struct_end
 248  0001              #pragma debug struct_end
 248  0001              #pragma debug union_end
 248  0001              #pragma debug union_end
 248  0001              #pragma debug variable 55 1 ___sda1vos "__sda1vos" 1
 248  0001              #pragma debug struct_end
 248  0001              #pragma debug struct_end
 248  0001              #pragma debug union_end
 248  0001              #pragma debug union_end
 248  0001              #pragma debug variable 57 1 ___isgenc "__isgenc" 1
 248  0001              #pragma debug variable 8 1 ___isgdata0 "__isgdata0" 1
 248  0001              #pragma debug variable 8 1 ___isgdata1 "__isgdata1" 1
 248  0001              extern _ADCInit:near
 248  0001              extern _ReadADC:near
 248  0001              
 248  0001              ; 
 248  0001              ; Generated by holtek-gcc v3.19, Mon Sep 16 17:32:17 2024
 248  0001              ; Rebuild 718
 248  0001              ; end of file


        0 Errors, 0