"File: UART.c        Assembler  Version HGASM0202      Page 1


   1  0000              ; Generated by holtek-gcc v3.19, Mon Nov 18 18:09:10 2024
   2  0000              ; 
   3  0000              ; Configuration:
   4  0000              ;       with long instruction
   5  0000              ;       Single ROM, Multi-RAM
   6  0000              ;       bits_per_rom_unit:16
   7  0000              ;       with mp1
   8  0000              ;       with tbhp, address(0x9)
   9  0000              ;          Use tabrd-const
  10  0000              ;       
  11  0000              ; SFR address of long-instruction arch:
  12  0000              ;    mp0 = -1,1,0
  13  0000              ;    mp1 = 4,3,2
  14  0000              ;    mp2 = 14,13,12
  15  0000              ;    tbp = 9,7,8
  16  0000              ;    acc = 5
  17  0000              ;    pcl = 6
  18  0000              ;    status = 10
  19  0000              ;    bp = 11
  20  0000              ;    intc = 72
  21  0000              ;       
  22  0000              ;       
  23  0000              ; use 'tabrdc' instead of 'tabrd'
  24  0000              ;       
  25  0000              
  26  0000              #pragma translator "holtek-gcc 4.6.4" "3.19" "build 20130711"
  27  0000              ; Rebuild 718
  28  0000              
  29  0000              ir equ [2]
  30  0000              mp equ [3]
  31  0000              sbp equ [4]
  32  0000              acc equ [5]
  33  0000              bp equ [11]
  34  0000              tblp equ [7]
  35  0000              tbhp equ [9]
  36  0000              status equ [10]
  37  0000              c equ [10].0
  38  0000              ac equ [10].1
  39  0000              z equ [10].2
  40  0000              ov equ [10].3
  41  0000              cz equ [10].6
  42  0000              sc equ [10].7
  43  0000              intc equ [72]
  44  0000              
  45  0000              extern ra:byte
  46  0000              extern rb:byte
  47  0000              extern rc:byte
  48  0000              extern rd:byte
  49  0000              extern re:byte
  50  0000              extern rf:byte
  51  0000              extern rg:byte
  52  0000              extern rh:byte
  53  0000              extern _Crom2Prom:near
  54  0000              extern _Crom2PromNext:near
  55  0000              
  56  0000              RAMBANK 0 @BITDATASEC, @BITDATASEC1
  57  0000              @HCCINIT	.section 'data'
  58  0000              @HCCINIT0	.section 'data'
  59  0000              @BITDATASEC	 .section 'data'
"File: UART.ASM      Assembler  Version HGASM0202      Page 2

  60  0000              @BITDATASEC1	 .section 'data'
  61  0000              
  62  0000              #pragma debug scope 1 1
  63  0000              	extern __DELAY3:near
  64  0000              	extern __DELAYX3:near
  65  0000              	extern __DELAYX6:near
  66  0000              	extern __DELAYY5:near
  67  0000              	extern __DELAYY3:near
  68  0000              	extern _builtin_holtek_delay_2:byte
  69  0000              ___simc0 equ [65]
  70  0000              ___uucr2 equ [67]
  71  0000              ___ubrg equ [69]
  72  0000              ___uucr1 equ [66]
  73  0000              public _UART_Init
  74  0000              #pragma debug scope 2 1

  25  0000              #line 25 "c:\users\tech\desktop\powerlinetransceiver\UART\UART.c"
  25  0000              _UART_Init .section 'code'
  25  0000              _UART_Init proc
  25  0000              public _UART_Init_2
  25  0000  0002[           local _UART_Init_2 db 2 dup(?)	; 2,0
            00
            ]
  25  0002              #pragma debug variable 12 2 _UART_Init_2+0 "baudrate"
  26  0002              #line 26 "c:\users\tech\desktop\powerlinetransceiver\UART\UART.c"
  26  0000  3241        	set [65].4
  27  0001              #line 27 "c:\users\tech\desktop\powerlinetransceiver\UART\UART.c"
  27  0001  36C3        	clr [67].5
  28  0002              #line 28 "c:\users\tech\desktop\powerlinetransceiver\UART\UART.c"
  28  0002  0700     R  	mov a,_UART_Init_2[1]
  28  0003  0080     E  	mov _builtin_holtek_mant1[1],a
  28  0004  0700     R  	mov a,_UART_Init_2[0]
  28  0005  0080     E  	mov _builtin_holtek_mant1[0],a
  28  0006  3400     E  	clr _builtin_holtek_signs.0
  28  0007  2000     E  	call _builtin_holtek_uitod
  28  0008  0700     E  	mov a,_builtin_holtek_mant12p[0]
  28  0009  0080     E  	mov rg,a
  28  000A  0700     E  	mov a,_builtin_holtek_mant1[2]
  28  000B  0080     E  	mov rf,a
  28  000C  0700     E  	mov a,_builtin_holtek_mant1[1]
  28  000D  0080     E  	mov re,a
  28  000E  0700     E  	mov a,_builtin_holtek_mant1[0]
  28  000F  0080     E  	mov rd,a
  28  0010  0700     E  	mov a,rg
  28  0011  0080     E  	mov _builtin_holtek_mant12p[0],a
  28  0012  0700     E  	mov a,rf
  28  0013  0080     E  	mov _builtin_holtek_mant1[2],a
  28  0014  0700     E  	mov a,re
  28  0015  0080     E  	mov _builtin_holtek_mant1[1],a
  28  0016  0700     E  	mov a,rd
  28  0017  0080     E  	mov _builtin_holtek_mant1[0],a
  28  0018  0F42        	mov a,66
  28  0019  0080     E  	mov _builtin_holtek_mant12p[1],a
  28  001A  0F80        	mov a,128
  28  001B  0080     E  	mov _builtin_holtek_mant2[2],a
  28  001C  0F00        	mov a,0
  28  001D  0080     E  	mov _builtin_holtek_mant2[1],a
  28  001E  0F00        	mov a,0
  28  001F  0080     E  	mov _builtin_holtek_mant2[0],a
  28  0020  2000     E  	call _builtin_holtek_dtmul
"File: UART.c        Assembler  Version HGASM0202      Page 3

  28  0021  0700     E  	mov a,_builtin_holtek_mant12p[0]
  28  0022  0080     E  	mov rh,a
  28  0023  0700     E  	mov a,_builtin_holtek_mant1[2]
  28  0024  0080     E  	mov rg,a
  28  0025  0700     E  	mov a,_builtin_holtek_mant1[1]
  28  0026  0080     E  	mov rf,a
  28  0027  0700     E  	mov a,_builtin_holtek_mant1[0]
  28  0028  0080     E  	mov re,a
  28  0029  1F00     E  	clr ra
  28  002A  0F24        	mov a,36
  28  002B  0080     E  	mov rb,a
  28  002C  0F74        	mov a,116
  28  002D  0080     E  	mov rc,a
  28  002E  0F4A        	mov a,74
  28  002F  0080     E  	mov rd,a
  28  0030  0700     E  	mov a,rd
  28  0031  0080     E  	mov _builtin_holtek_mant12p[0],a
  28  0032  0700     E  	mov a,rc
  28  0033  0080     E  	mov _builtin_holtek_mant1[2],a
  28  0034  0700     E  	mov a,rb
  28  0035  0080     E  	mov _builtin_holtek_mant1[1],a
  28  0036  0700     E  	mov a,ra
  28  0037  0080     E  	mov _builtin_holtek_mant1[0],a
  28  0038  0700     E  	mov a,rh
  28  0039  0080     E  	mov _builtin_holtek_mant12p[1],a
  28  003A  0700     E  	mov a,rg
  28  003B  0080     E  	mov _builtin_holtek_mant2[2],a
  28  003C  0700     E  	mov a,rf
  28  003D  0080     E  	mov _builtin_holtek_mant2[1],a
  28  003E  0700     E  	mov a,re
  28  003F  0080     E  	mov _builtin_holtek_mant2[0],a
  28  0040  2000     E  	call _builtin_holtek_dtdiv
  28  0041  0700     E  	mov a,_builtin_holtek_mant12p[0]
  28  0042  0080     E  	mov rh,a
  28  0043  0700     E  	mov a,_builtin_holtek_mant1[2]
  28  0044  0080     E  	mov rg,a
  28  0045  0700     E  	mov a,_builtin_holtek_mant1[1]
  28  0046  0080     E  	mov rf,a
  28  0047  0700     E  	mov a,_builtin_holtek_mant1[0]
  28  0048  0080     E  	mov re,a
  28  0049  0700     E  	mov a,rh
  28  004A  0080     E  	mov _builtin_holtek_mant12p[0],a
  28  004B  0700     E  	mov a,rg
  28  004C  0080     E  	mov _builtin_holtek_mant1[2],a
  28  004D  0700     E  	mov a,rf
  28  004E  0080     E  	mov _builtin_holtek_mant1[1],a
  28  004F  0700     E  	mov a,re
  28  0050  0080     E  	mov _builtin_holtek_mant1[0],a
  28  0051  0F3F        	mov a,63
  28  0052  0080     E  	mov _builtin_holtek_mant12p[1],a
  28  0053  0F80        	mov a,128
  28  0054  0080     E  	mov _builtin_holtek_mant2[2],a
  28  0055  0F00        	mov a,0
  28  0056  0080     E  	mov _builtin_holtek_mant2[1],a
  28  0057  0F00        	mov a,0
  28  0058  0080     E  	mov _builtin_holtek_mant2[0],a
  28  0059  2000     E  	call _builtin_holtek_dtsub
  28  005A  0700     E  	mov a,_builtin_holtek_mant12p[0]
  28  005B  0080     E  	mov rg,a
  28  005C  0700     E  	mov a,_builtin_holtek_mant1[2]
"File: UART.c        Assembler  Version HGASM0202      Page 4

  28  005D  0080     E  	mov rf,a
  28  005E  0700     E  	mov a,_builtin_holtek_mant1[1]
  28  005F  0080     E  	mov re,a
  28  0060  0700     E  	mov a,_builtin_holtek_mant1[0]
  28  0061  0080     E  	mov rd,a
  28  0062  0700     E  	mov a,rg
  28  0063  0080     E  	mov _builtin_holtek_mant12p[0],a
  28  0064  0700     E  	mov a,rf
  28  0065  0080     E  	mov _builtin_holtek_mant1[2],a
  28  0066  0700     E  	mov a,re
  28  0067  0080     E  	mov _builtin_holtek_mant1[1],a
  28  0068  0700     E  	mov a,rd
  28  0069  0080     E  	mov _builtin_holtek_mant1[0],a
  28  006A  2000     E  	call _builtin_holtek_dtol
  28  006B  0700     E  	mov a,_builtin_holtek_mant12p[0]
  28  006C  0080     E  	mov rg,a
  28  006D  0700     E  	mov a,_builtin_holtek_mant1[2]
  28  006E  0080     E  	mov rf,a
  28  006F  0700     E  	mov a,_builtin_holtek_mant1[1]
  28  0070  0080     E  	mov re,a
  28  0071  0700     E  	mov a,_builtin_holtek_mant1[0]
  28  0072  0080     E  	mov rd,a
  29  0073              #line 29 "c:\users\tech\desktop\powerlinetransceiver\UART\UART.c"
  29  0073  0700     E  	mov a,rd
  29  0074  00C5        	mov [69],a
  30  0075              #line 30 "c:\users\tech\desktop\powerlinetransceiver\UART\UART.c"
  30  0075  33C2        	set [66].7
  31  0076              #line 31 "c:\users\tech\desktop\powerlinetransceiver\UART\UART.c"
  31  0076  3742        	clr [66].6
  32  0077              #line 32 "c:\users\tech\desktop\powerlinetransceiver\UART\UART.c"
  32  0077  36C2        	clr [66].5
  33  0078              #line 33 "c:\users\tech\desktop\powerlinetransceiver\UART\UART.c"
  33  0078  3242        	set [66].4
  34  0079              #line 34 "c:\users\tech\desktop\powerlinetransceiver\UART\UART.c"
  34  0079  35C2        	clr [66].3
  35  007A              #line 35 "c:\users\tech\desktop\powerlinetransceiver\UART\UART.c"
  35  007A  33C3        	set [67].7
  36  007B              #line 36 "c:\users\tech\desktop\powerlinetransceiver\UART\UART.c"
  36  007B  3343        	set [67].6
  37  007C              #line 37 "c:\users\tech\desktop\powerlinetransceiver\UART\UART.c"
  37  007C  34C3        	clr [67].1
  38  007D              #line 38 "c:\users\tech\desktop\powerlinetransceiver\UART\UART.c"
  38  007D  3443        	clr [67].0
  39  007E              #line 39 "c:\users\tech\desktop\powerlinetransceiver\UART\UART.c"
  39  007E  3143        	set [67].2
  39  007F  0003        	ret
  39  0080              _UART_Init endp
  39  0080              #line 39 "c:\users\tech\desktop\powerlinetransceiver\UART\UART.c"
  39  0080              #pragma debug scope 1 1
  39  0080              ___uusr equ [70]
  39  0080              ___utxr_rxr equ [68]
  39  0080              public _UART_Transmit
  39  0080              #pragma debug scope 3 1
  48  0080              #line 48 "c:\users\tech\desktop\powerlinetransceiver\UART\UART.c"
  48  0000              _UART_Transmit .section 'code'
  48  0000              _UART_Transmit proc
  48  0000  00              local _UART_Transmit_2 db 1 dup(?)	; 0,1
  48  0000  0080     R  	mov _UART_Transmit_2[0],a
  48  0001              #pragma debug variable 7 3 _UART_Transmit_2+0 "data"
  48  0001              _L4:
"File: UART.c        Assembler  Version HGASM0202      Page 5

  50  0001              #line 50 "c:\users\tech\desktop\powerlinetransceiver\UART\UART.c"
  50  0001  3846        	snz [70].0
  50  0002  2800     R  	jmp _L4
  51  0003              #line 51 "c:\users\tech\desktop\powerlinetransceiver\UART\UART.c"
  51  0003  0700     R  	mov a,_UART_Transmit_2[0]
  51  0004  00C4        	mov [68],a
  51  0005  0003        	ret
  51  0006              _UART_Transmit endp
  51  0006              #line 51 "c:\users\tech\desktop\powerlinetransceiver\UART\UART.c"
  51  0006              #pragma debug scope 1 1
  51  0006              public _UART_StringTransmit
  51  0006              #pragma debug scope 4 1
  54  0006              #line 54 "c:\users\tech\desktop\powerlinetransceiver\UART\UART.c"
  54  0000              _UART_StringTransmit .section 'code'
  54  0000              _UART_StringTransmit proc
  54  0000              public _UART_StringTransmit_2
  54  0000  0003[           local _UART_StringTransmit_2 db 3 dup(?)	; 3,0
            00
            ]
  54  0003              #pragma debug pointer 42 7 4
  54  0003              #pragma debug pointer 42 7 4
  54  0003              #pragma debug variable 42 4 _UART_StringTransmit_2+0 "data"
  54  0003              #pragma debug variable 7 4 _UART_StringTransmit_2+2 "size"
  57  0003              #line 57 "c:\users\tech\desktop\powerlinetransceiver\UART\UART.c"
  57  0000  0700     R  	mov a,_UART_StringTransmit_2[0]
  57  0001  0083        	mov mp,a
  57  0002  0700     R  	mov a,_UART_StringTransmit_2[1]
  57  0003  0084        	mov sbp,a
  57  0004  0F01        	mov a,1
  57  0005  0082        	mov ir,a
  58  0006              #line 58 "c:\users\tech\desktop\powerlinetransceiver\UART\UART.c"
  58  0006  1F00     E  	clr ra
  58  0007  2800     R  	jmp _L7
  58  0008              _L9:
  59  0008              #line 59 "c:\users\tech\desktop\powerlinetransceiver\UART\UART.c"
  59  0008  3846        	snz [70].0
  59  0009  2800     R  	jmp _L9
  60  000A              #line 60 "c:\users\tech\desktop\powerlinetransceiver\UART\UART.c"
  60  000A  0700     E  	mov a,ra
  60  000B  0080     E  	mov rb,a
  60  000C  1F00     E  	clr rc
  60  000D  3F85        	sz acc.7
  60  000E  1F80     E  	set rc
  60  000F  0700     E  	mov a,rb
  60  0010  0300     R  	add a,_UART_StringTransmit_2[0]
  60  0011  0083        	mov mp,a
  60  0012  0700     E  	mov a,rc
  60  0013  1300     R  	adc a,_UART_StringTransmit_2[1]
  60  0014  0084        	mov sbp,a
  60  0015  2000     E  	call _Crom2Prom
  60  0016  00C4        	mov [68],a
  58  0017              #line 58 "c:\users\tech\desktop\powerlinetransceiver\UART\UART.c"
  58  0017  1480     E  	inc ra
  58  0018              _L7:
  58  0018  0700     R  	mov a,_UART_StringTransmit_2[2]
  58  0019  0200     E  	sub a,ra
  58  001A  3B8A        	snz sc
  58  001B  2800     R  	jmp _L9
  58  001C  0003        	ret
  58  001D              _UART_StringTransmit endp
"File: UART.c        Assembler  Version HGASM0202      Page 6

  58  001D              #line 58 "c:\users\tech\desktop\powerlinetransceiver\UART\UART.c"
  58  001D              #pragma debug scope 1 1
  58  001D              ___acc equ [5]
  58  001D              public _UART_Receive
  58  001D              #pragma debug scope 5 1
  72  001D              #line 72 "c:\users\tech\desktop\powerlinetransceiver\UART\UART.c"
  72  0000              _UART_Receive .section 'code'
  72  0000              _UART_Receive proc
  73  0000              #line 73 "c:\users\tech\desktop\powerlinetransceiver\UART\UART.c"
  73  0000  1F05        	clr [5]
  76  0001              #line 76 "c:\users\tech\desktop\powerlinetransceiver\UART\UART.c"
  76  0001  0F01        	mov a,1
  76  0002  0300     R  	add a,___TimeOutCounter_1890[0]
  76  0003  0080     E  	mov rb,a
  76  0004  0F00        	mov a,0
  76  0005  1300     R  	adc a,___TimeOutCounter_1890[1]
  76  0006  0080     E  	mov rc,a
  77  0007              #line 77 "c:\users\tech\desktop\powerlinetransceiver\UART\UART.c"
  77  0007              ;# 77 "c:\users\tech\desktop\powerlinetransceiver\UART\UART.c" 1
  77  0007  0001        	clr wdt
  77  0008              _L14:
  78  0008              #line 78 "c:\users\tech\desktop\powerlinetransceiver\UART\UART.c"
  78  0008  3946        	snz [70].2
  78  0009  2800     R  	jmp _L12
  78  000A  3CC6        	sz [70].1
  78  000B  2800     R  	jmp _L13
  78  000C              _L12:
  78  000C  0F0A        	mov a,10
  78  000D  0200     E  	sub a,rb
  78  000E  0F00        	mov a,0
  78  000F  1200     E  	sbc a,rc
  78  0010  3C0A        	sz c
  78  0011  2800     R  	jmp _L14
  78  0012              _L13:
  79  0012              #line 79 "c:\users\tech\desktop\powerlinetransceiver\UART\UART.c"
  79  0012  1F00     R  	clr ___TimeOutCounter_1890[0]
  79  0013  1F00     R  	clr ___TimeOutCounter_1890[1]
  80  0014              #line 80 "c:\users\tech\desktop\powerlinetransceiver\UART\UART.c"
  80  0014  0744        	mov a,[68]
  80  0015  0085        	mov [5],a
  81  0016              #line 81 "c:\users\tech\desktop\powerlinetransceiver\UART\UART.c"
  81  0016  3546        	clr [70].2
 101  0017              #line 101 "c:\users\tech\desktop\powerlinetransceiver\UART\UART.c"
 101  0017  0705        	mov a,[5]
 101  0018  0080     E  	mov ra,a
 102  0019              #line 102 "c:\users\tech\desktop\powerlinetransceiver\UART\UART.c"
 102  0019  0700     E  	mov a,ra
 102  001A  0003        	ret
 102  001B              _UART_Receive endp
 102  001B              #line 102 "c:\users\tech\desktop\powerlinetransceiver\UART\UART.c"
 102  001B              #pragma debug scope 1 1
 102  001B              public _UART_ReceiveNonBlocking
 102  001B              #pragma debug scope 6 1
 110  001B              #line 110 "c:\users\tech\desktop\powerlinetransceiver\UART\UART.c"
 110  0000              _UART_ReceiveNonBlocking .section 'code'
 110  0000              _UART_ReceiveNonBlocking proc
 111  0000              #line 111 "c:\users\tech\desktop\powerlinetransceiver\UART\UART.c"
 111  0000  1F05        	clr [5]
 112  0001              #line 112 "c:\users\tech\desktop\powerlinetransceiver\UART\UART.c"
 112  0001  3946        	snz [70].2
"File: UART.c        Assembler  Version HGASM0202      Page 7

 112  0002  2800     R  	jmp _L19
 113  0003              #line 113 "c:\users\tech\desktop\powerlinetransceiver\UART\UART.c"
 113  0003  0744        	mov a,[68]
 113  0004  0085        	mov [5],a
 113  0005              _L19:
 134  0005              #line 134 "c:\users\tech\desktop\powerlinetransceiver\UART\UART.c"
 134  0005  0705        	mov a,[5]
 134  0006  0080     E  	mov ra,a
 135  0007              #line 135 "c:\users\tech\desktop\powerlinetransceiver\UART\UART.c"
 135  0007  0700     E  	mov a,ra
 135  0008  0003        	ret
 135  0009              _UART_ReceiveNonBlocking endp
 135  0009              #line 135 "c:\users\tech\desktop\powerlinetransceiver\UART\UART.c"
 135  0009              #pragma debug scope 1 1
 135  0009              public _UART_EnableInterrupts
 135  0009              #pragma debug scope 7 1
 141  0009              #line 141 "c:\users\tech\desktop\powerlinetransceiver\UART\UART.c"
 141  0000              _UART_EnableInterrupts .section 'code'
 141  0000              _UART_EnableInterrupts proc
 142  0000              #line 142 "c:\users\tech\desktop\powerlinetransceiver\UART\UART.c"
 142  0000  1F00     E  	clr ra
 142  0001  3D43        	sz [67].2
 142  0002  1480     E  	inc ra
 142  0003  0700     E  	mov a,ra
 142  0004  05C3        	orm a,[67]
 142  0005  0003        	ret
 142  0006              _UART_EnableInterrupts endp
 142  0006              #line 142 "c:\users\tech\desktop\powerlinetransceiver\UART\UART.c"
 142  0006              #pragma debug scope 1 1
 142  0006              public _UART_DisableInterrupts
 142  0006              #pragma debug scope 8 1
 151  0006              #line 151 "c:\users\tech\desktop\powerlinetransceiver\UART\UART.c"
 151  0000              _UART_DisableInterrupts .section 'code'
 151  0000              _UART_DisableInterrupts proc
 152  0000              #line 152 "c:\users\tech\desktop\powerlinetransceiver\UART\UART.c"
 152  0000  1F00     E  	clr ra
 152  0001  3D43        	sz [67].2
 152  0002  1480     E  	inc ra
 152  0003  1F00     E  	clr rc
 152  0004  3CC3        	sz [67].1
 152  0005  1480     E  	inc rc
 152  0006  0743        	mov a,[67]
 152  0007  0E01        	and a,1
 152  0008  0080     E  	mov rb,a
 152  0009  0700     E  	mov a,rc
 152  000A  0580     E  	orm a,ra
 152  000B  0700     E  	mov a,rb
 152  000C  0580     E  	orm a,ra
 152  000D  0100     E  	cpla ra
 152  000E  0080     E  	mov ra,a
 152  000F  0700     E  	mov a,ra
 152  0010  06C3        	andm a,[67]
 152  0011  0003        	ret
 152  0012              _UART_DisableInterrupts endp
 152  0012              #line 152 "c:\users\tech\desktop\powerlinetransceiver\UART\UART.c"
 152  0012              #pragma debug scope 1 1
 152  0000              @HCCINIT	.section 'data'
  75  0000              #line 75 "c:\users\tech\desktop\powerlinetransceiver\UART\UART.c"
  75  0000              @HCCINIT___TimeOutCounter_1890 .section 'data'
  75  0000              ___TimeOutCounter_1890 label byte
"File: UART.c        Assembler  Version HGASM0202      Page 8

  75  0000              #pragma debug variable 12 5 ___TimeOutCounter_1890 "TimeOutCounter"
  75  0000              	db 0
  75  0000              @ROMDATA_BASE .section inpage 'code'
  75  0000              	db 0
  75  0001              @HCCINIT___TimeOutCounter_1890 .section 'data'
  75  0001              	db 0
  75  0001              @ROMDATA_BASE .section inpage 'code'
  75  0001              	db 0
  75  0002              @HCCINIT___TimeOutCounter_1890 .section 'data'
  75  0002              #pragma debug variable 8 1 ___acc "__acc" 1
  75  0002              #pragma debug struct_end
  75  0002              #pragma debug struct_end
  75  0002              #pragma debug union_end
  75  0002              #pragma debug union_end
  75  0002              #pragma debug variable 44 1 ___simc0 "__simc0" 1
  75  0002              #pragma debug struct_end
  75  0002              #pragma debug struct_end
  75  0002              #pragma debug union_end
  75  0002              #pragma debug union_end
  75  0002              #pragma debug variable 46 1 ___uucr1 "__uucr1" 1
  75  0002              #pragma debug struct_end
  75  0002              #pragma debug struct_end
  75  0002              #pragma debug union_end
  75  0002              #pragma debug union_end
  75  0002              #pragma debug variable 48 1 ___uucr2 "__uucr2" 1
  75  0002              #pragma debug struct_end
  75  0002              #pragma debug struct_end
  75  0002              #pragma debug union_end
  75  0002              #pragma debug union_end
  75  0002              #pragma debug variable 50 1 ___utxr_rxr "__utxr_rxr" 1
  75  0002              #pragma debug struct_end
  75  0002              #pragma debug struct_end
  75  0002              #pragma debug union_end
  75  0002              #pragma debug union_end
  75  0002              #pragma debug variable 52 1 ___ubrg "__ubrg" 1
  75  0002              #pragma debug struct_end
  75  0002              #pragma debug struct_end
  75  0002              #pragma debug union_end
  75  0002              #pragma debug union_end
  75  0002              #pragma debug variable 54 1 ___uusr "__uusr" 1
  75  0002              extern _builtin_holtek_mant1:byte
  75  0002              extern _builtin_holtek_mant12p:byte
  75  0002              extern _builtin_holtek_signs:byte
  75  0002              extern _builtin_holtek_uitod:near
  75  0002              extern _builtin_holtek_mant2:byte
  75  0002              extern _builtin_holtek_dtmul:near
  75  0002              extern _builtin_holtek_dtdiv:near
  75  0002              extern _builtin_holtek_dtsub:near
  75  0002              extern _builtin_holtek_dtol:near
  75  0002              
  75  0002              ; 
  75  0002              ; Generated by holtek-gcc v3.19, Mon Nov 18 18:09:10 2024
  75  0002              ; Rebuild 718
  75  0002              ; end of file


        0 Errors, 0